
main:     file format elf64-x86-64


Disassembly of section .init:

0000000000403000 <_init>:
  403000:	f3 0f 1e fa          	endbr64 
  403004:	48 83 ec 08          	sub    $0x8,%rsp
  403008:	48 8b 05 d1 2f 01 00 	mov    0x12fd1(%rip),%rax        # 415fe0 <__gmon_start__>
  40300f:	48 85 c0             	test   %rax,%rax
  403012:	74 02                	je     403016 <_init+0x16>
  403014:	ff d0                	callq  *%rax
  403016:	48 83 c4 08          	add    $0x8,%rsp
  40301a:	c3                   	retq   

Disassembly of section .plt:

0000000000403020 <.plt>:
  403020:	ff 35 e2 2f 01 00    	pushq  0x12fe2(%rip)        # 416008 <_GLOBAL_OFFSET_TABLE_+0x8>
  403026:	ff 25 e4 2f 01 00    	jmpq   *0x12fe4(%rip)        # 416010 <_GLOBAL_OFFSET_TABLE_+0x10>
  40302c:	0f 1f 40 00          	nopl   0x0(%rax)

0000000000403030 <_Znam@plt>:
  403030:	ff 25 e2 2f 01 00    	jmpq   *0x12fe2(%rip)        # 416018 <_Znam@GLIBCXX_3.4>
  403036:	68 00 00 00 00       	pushq  $0x0
  40303b:	e9 e0 ff ff ff       	jmpq   403020 <.plt>

0000000000403040 <_ZNSaIcED2Ev@plt>:
  403040:	ff 25 da 2f 01 00    	jmpq   *0x12fda(%rip)        # 416020 <_ZNSaIcED2Ev@GLIBCXX_3.4>
  403046:	68 01 00 00 00       	pushq  $0x1
  40304b:	e9 d0 ff ff ff       	jmpq   403020 <.plt>

0000000000403050 <_ZSt7getlineIcSt11char_traitsIcESaIcEERSt13basic_istreamIT_T0_ES7_RNSt7__cxx1112basic_stringIS4_S5_T1_EE@plt>:
  403050:	ff 25 d2 2f 01 00    	jmpq   *0x12fd2(%rip)        # 416028 <_ZSt7getlineIcSt11char_traitsIcESaIcEERSt13basic_istreamIT_T0_ES7_RNSt7__cxx1112basic_stringIS4_S5_T1_EE@GLIBCXX_3.4.21>
  403056:	68 02 00 00 00       	pushq  $0x2
  40305b:	e9 c0 ff ff ff       	jmpq   403020 <.plt>

0000000000403060 <_ZNSt14basic_ifstreamIcSt11char_traitsIcEE5closeEv@plt>:
  403060:	ff 25 ca 2f 01 00    	jmpq   *0x12fca(%rip)        # 416030 <_ZNSt14basic_ifstreamIcSt11char_traitsIcEE5closeEv@GLIBCXX_3.4>
  403066:	68 03 00 00 00       	pushq  $0x3
  40306b:	e9 b0 ff ff ff       	jmpq   403020 <.plt>

0000000000403070 <_ZNSt14basic_ifstreamIcSt11char_traitsIcEED1Ev@plt>:
  403070:	ff 25 c2 2f 01 00    	jmpq   *0x12fc2(%rip)        # 416038 <_ZNSt14basic_ifstreamIcSt11char_traitsIcEED1Ev@GLIBCXX_3.4>
  403076:	68 04 00 00 00       	pushq  $0x4
  40307b:	e9 a0 ff ff ff       	jmpq   403020 <.plt>

0000000000403080 <_ZSt9terminatev@plt>:
  403080:	ff 25 ba 2f 01 00    	jmpq   *0x12fba(%rip)        # 416040 <_ZSt9terminatev@GLIBCXX_3.4>
  403086:	68 05 00 00 00       	pushq  $0x5
  40308b:	e9 90 ff ff ff       	jmpq   403020 <.plt>

0000000000403090 <_ZSt17__throw_bad_allocv@plt>:
  403090:	ff 25 b2 2f 01 00    	jmpq   *0x12fb2(%rip)        # 416048 <_ZSt17__throw_bad_allocv@GLIBCXX_3.4>
  403096:	68 06 00 00 00       	pushq  $0x6
  40309b:	e9 80 ff ff ff       	jmpq   403020 <.plt>

00000000004030a0 <__cxa_begin_catch@plt>:
  4030a0:	ff 25 aa 2f 01 00    	jmpq   *0x12faa(%rip)        # 416050 <__cxa_begin_catch@CXXABI_1.3>
  4030a6:	68 07 00 00 00       	pushq  $0x7
  4030ab:	e9 70 ff ff ff       	jmpq   403020 <.plt>

00000000004030b0 <_ZNKSt7__cxx1112basic_stringIcSt11char_traitsIcESaIcEE5c_strEv@plt>:
  4030b0:	ff 25 a2 2f 01 00    	jmpq   *0x12fa2(%rip)        # 416058 <_ZNKSt7__cxx1112basic_stringIcSt11char_traitsIcESaIcEE5c_strEv@GLIBCXX_3.4.21>
  4030b6:	68 08 00 00 00       	pushq  $0x8
  4030bb:	e9 60 ff ff ff       	jmpq   403020 <.plt>

00000000004030c0 <_ZNSt7__cxx1112basic_stringIcSt11char_traitsIcESaIcEEC1ERKS4_@plt>:
  4030c0:	ff 25 9a 2f 01 00    	jmpq   *0x12f9a(%rip)        # 416060 <_ZNSt7__cxx1112basic_stringIcSt11char_traitsIcESaIcEEC1ERKS4_@GLIBCXX_3.4.21>
  4030c6:	68 09 00 00 00       	pushq  $0x9
  4030cb:	e9 50 ff ff ff       	jmpq   403020 <.plt>

00000000004030d0 <memcmp@plt>:
  4030d0:	ff 25 92 2f 01 00    	jmpq   *0x12f92(%rip)        # 416068 <memcmp@GLIBC_2.2.5>
  4030d6:	68 0a 00 00 00       	pushq  $0xa
  4030db:	e9 40 ff ff ff       	jmpq   403020 <.plt>

00000000004030e0 <_ZNSt9basic_iosIcSt11char_traitsIcEE7copyfmtERKS2_@plt>:
  4030e0:	ff 25 8a 2f 01 00    	jmpq   *0x12f8a(%rip)        # 416070 <_ZNSt9basic_iosIcSt11char_traitsIcEE7copyfmtERKS2_@GLIBCXX_3.4>
  4030e6:	68 0b 00 00 00       	pushq  $0xb
  4030eb:	e9 30 ff ff ff       	jmpq   403020 <.plt>

00000000004030f0 <_ZSt4endlIcSt11char_traitsIcEERSt13basic_ostreamIT_T0_ES6_@plt>:
  4030f0:	ff 25 82 2f 01 00    	jmpq   *0x12f82(%rip)        # 416078 <_ZSt4endlIcSt11char_traitsIcEERSt13basic_ostreamIT_T0_ES6_@GLIBCXX_3.4>
  4030f6:	68 0c 00 00 00       	pushq  $0xc
  4030fb:	e9 20 ff ff ff       	jmpq   403020 <.plt>

0000000000403100 <__cxa_allocate_exception@plt>:
  403100:	ff 25 7a 2f 01 00    	jmpq   *0x12f7a(%rip)        # 416080 <__cxa_allocate_exception@CXXABI_1.3>
  403106:	68 0d 00 00 00       	pushq  $0xd
  40310b:	e9 10 ff ff ff       	jmpq   403020 <.plt>

0000000000403110 <_ZSt20__throw_length_errorPKc@plt>:
  403110:	ff 25 72 2f 01 00    	jmpq   *0x12f72(%rip)        # 416088 <_ZSt20__throw_length_errorPKc@GLIBCXX_3.4>
  403116:	68 0e 00 00 00       	pushq  $0xe
  40311b:	e9 00 ff ff ff       	jmpq   403020 <.plt>

0000000000403120 <_ZNSt7__cxx1112basic_stringIcSt11char_traitsIcESaIcEE3endEv@plt>:
  403120:	ff 25 6a 2f 01 00    	jmpq   *0x12f6a(%rip)        # 416090 <_ZNSt7__cxx1112basic_stringIcSt11char_traitsIcESaIcEE3endEv@GLIBCXX_3.4.21>
  403126:	68 0f 00 00 00       	pushq  $0xf
  40312b:	e9 f0 fe ff ff       	jmpq   403020 <.plt>

0000000000403130 <_ZNSt7__cxx1112basic_stringIcSt11char_traitsIcESaIcEEC1EOS4_@plt>:
  403130:	ff 25 62 2f 01 00    	jmpq   *0x12f62(%rip)        # 416098 <_ZNSt7__cxx1112basic_stringIcSt11char_traitsIcESaIcEEC1EOS4_@GLIBCXX_3.4.21>
  403136:	68 10 00 00 00       	pushq  $0x10
  40313b:	e9 e0 fe ff ff       	jmpq   403020 <.plt>

0000000000403140 <_ZNSt7__cxx1112basic_stringIcSt11char_traitsIcESaIcEED1Ev@plt>:
  403140:	ff 25 5a 2f 01 00    	jmpq   *0x12f5a(%rip)        # 4160a0 <_ZNSt7__cxx1112basic_stringIcSt11char_traitsIcESaIcEED1Ev@GLIBCXX_3.4.21>
  403146:	68 11 00 00 00       	pushq  $0x11
  40314b:	e9 d0 fe ff ff       	jmpq   403020 <.plt>

0000000000403150 <_ZNSt7__cxx1112basic_stringIcSt11char_traitsIcESaIcEEpLEc@plt>:
  403150:	ff 25 52 2f 01 00    	jmpq   *0x12f52(%rip)        # 4160a8 <_ZNSt7__cxx1112basic_stringIcSt11char_traitsIcESaIcEEpLEc@GLIBCXX_3.4.21>
  403156:	68 12 00 00 00       	pushq  $0x12
  40315b:	e9 c0 fe ff ff       	jmpq   403020 <.plt>

0000000000403160 <_ZNSt9bad_allocD1Ev@plt>:
  403160:	ff 25 4a 2f 01 00    	jmpq   *0x12f4a(%rip)        # 4160b0 <_ZNSt9bad_allocD1Ev@GLIBCXX_3.4>
  403166:	68 13 00 00 00       	pushq  $0x13
  40316b:	e9 b0 fe ff ff       	jmpq   403020 <.plt>

0000000000403170 <_ZNSt7__cxx1112basic_stringIcSt11char_traitsIcESaIcEE13_M_set_lengthEm@plt>:
  403170:	ff 25 42 2f 01 00    	jmpq   *0x12f42(%rip)        # 4160b8 <_ZNSt7__cxx1112basic_stringIcSt11char_traitsIcESaIcEE13_M_set_lengthEm@GLIBCXX_3.4.21>
  403176:	68 14 00 00 00       	pushq  $0x14
  40317b:	e9 a0 fe ff ff       	jmpq   403020 <.plt>

0000000000403180 <_ZNSt7__cxx1118basic_stringstreamIcSt11char_traitsIcESaIcEEC1Ev@plt>:
  403180:	ff 25 3a 2f 01 00    	jmpq   *0x12f3a(%rip)        # 4160c0 <_ZNSt7__cxx1118basic_stringstreamIcSt11char_traitsIcESaIcEEC1Ev@GLIBCXX_3.4.26>
  403186:	68 15 00 00 00       	pushq  $0x15
  40318b:	e9 90 fe ff ff       	jmpq   403020 <.plt>

0000000000403190 <_ZSt19__throw_logic_errorPKc@plt>:
  403190:	ff 25 32 2f 01 00    	jmpq   *0x12f32(%rip)        # 4160c8 <_ZSt19__throw_logic_errorPKc@GLIBCXX_3.4>
  403196:	68 16 00 00 00       	pushq  $0x16
  40319b:	e9 80 fe ff ff       	jmpq   403020 <.plt>

00000000004031a0 <__cxa_free_exception@plt>:
  4031a0:	ff 25 2a 2f 01 00    	jmpq   *0x12f2a(%rip)        # 4160d0 <__cxa_free_exception@CXXABI_1.3>
  4031a6:	68 17 00 00 00       	pushq  $0x17
  4031ab:	e9 70 fe ff ff       	jmpq   403020 <.plt>

00000000004031b0 <_ZNSt7__cxx1118basic_stringstreamIcSt11char_traitsIcESaIcEED1Ev@plt>:
  4031b0:	ff 25 22 2f 01 00    	jmpq   *0x12f22(%rip)        # 4160d8 <_ZNSt7__cxx1118basic_stringstreamIcSt11char_traitsIcESaIcEED1Ev@GLIBCXX_3.4.21>
  4031b6:	68 18 00 00 00       	pushq  $0x18
  4031bb:	e9 60 fe ff ff       	jmpq   403020 <.plt>

00000000004031c0 <_ZNSt7__cxx1112basic_stringIcSt11char_traitsIcESaIcEE13_M_local_dataEv@plt>:
  4031c0:	ff 25 1a 2f 01 00    	jmpq   *0x12f1a(%rip)        # 4160e0 <_ZNSt7__cxx1112basic_stringIcSt11char_traitsIcESaIcEE13_M_local_dataEv@GLIBCXX_3.4.21>
  4031c6:	68 19 00 00 00       	pushq  $0x19
  4031cb:	e9 50 fe ff ff       	jmpq   403020 <.plt>

00000000004031d0 <memcpy@plt>:
  4031d0:	ff 25 12 2f 01 00    	jmpq   *0x12f12(%rip)        # 4160e8 <memcpy@GLIBC_2.14>
  4031d6:	68 1a 00 00 00       	pushq  $0x1a
  4031db:	e9 40 fe ff ff       	jmpq   403020 <.plt>

00000000004031e0 <_ZNSt7__cxx1112basic_stringIcSt11char_traitsIcESaIcEE7_M_dataEPc@plt>:
  4031e0:	ff 25 0a 2f 01 00    	jmpq   *0x12f0a(%rip)        # 4160f0 <_ZNSt7__cxx1112basic_stringIcSt11char_traitsIcESaIcEE7_M_dataEPc@GLIBCXX_3.4.21>
  4031e6:	68 1b 00 00 00       	pushq  $0x1b
  4031eb:	e9 30 fe ff ff       	jmpq   403020 <.plt>

00000000004031f0 <_ZNSt7__cxx1112basic_stringIcSt11char_traitsIcESaIcEE5beginEv@plt>:
  4031f0:	ff 25 02 2f 01 00    	jmpq   *0x12f02(%rip)        # 4160f8 <_ZNSt7__cxx1112basic_stringIcSt11char_traitsIcESaIcEE5beginEv@GLIBCXX_3.4.21>
  4031f6:	68 1c 00 00 00       	pushq  $0x1c
  4031fb:	e9 20 fe ff ff       	jmpq   403020 <.plt>

0000000000403200 <__cxa_atexit@plt>:
  403200:	ff 25 fa 2e 01 00    	jmpq   *0x12efa(%rip)        # 416100 <__cxa_atexit@GLIBC_2.2.5>
  403206:	68 1d 00 00 00       	pushq  $0x1d
  40320b:	e9 10 fe ff ff       	jmpq   403020 <.plt>

0000000000403210 <_ZStlsIcSt11char_traitsIcESaIcEERSt13basic_ostreamIT_T0_ES7_RKNSt7__cxx1112basic_stringIS4_S5_T1_EE@plt>:
  403210:	ff 25 f2 2e 01 00    	jmpq   *0x12ef2(%rip)        # 416108 <_ZStlsIcSt11char_traitsIcESaIcEERSt13basic_ostreamIT_T0_ES7_RKNSt7__cxx1112basic_stringIS4_S5_T1_EE@GLIBCXX_3.4.21>
  403216:	68 1e 00 00 00       	pushq  $0x1e
  40321b:	e9 00 fe ff ff       	jmpq   403020 <.plt>

0000000000403220 <_ZdlPv@plt>:
  403220:	ff 25 ea 2e 01 00    	jmpq   *0x12eea(%rip)        # 416110 <_ZdlPv@GLIBCXX_3.4>
  403226:	68 1f 00 00 00       	pushq  $0x1f
  40322b:	e9 f0 fd ff ff       	jmpq   403020 <.plt>

0000000000403230 <_ZNKSt7__cxx1112basic_stringIcSt11char_traitsIcESaIcEE5beginEv@plt>:
  403230:	ff 25 e2 2e 01 00    	jmpq   *0x12ee2(%rip)        # 416118 <_ZNKSt7__cxx1112basic_stringIcSt11char_traitsIcESaIcEE5beginEv@GLIBCXX_3.4.21>
  403236:	68 20 00 00 00       	pushq  $0x20
  40323b:	e9 e0 fd ff ff       	jmpq   403020 <.plt>

0000000000403240 <_ZNKSt7__cxx1118basic_stringstreamIcSt11char_traitsIcESaIcEE3strEv@plt>:
  403240:	ff 25 da 2e 01 00    	jmpq   *0x12eda(%rip)        # 416120 <_ZNKSt7__cxx1118basic_stringstreamIcSt11char_traitsIcESaIcEE3strEv@GLIBCXX_3.4.21>
  403246:	68 21 00 00 00       	pushq  $0x21
  40324b:	e9 d0 fd ff ff       	jmpq   403020 <.plt>

0000000000403250 <_Znwm@plt>:
  403250:	ff 25 d2 2e 01 00    	jmpq   *0x12ed2(%rip)        # 416128 <_Znwm@GLIBCXX_3.4>
  403256:	68 22 00 00 00       	pushq  $0x22
  40325b:	e9 c0 fd ff ff       	jmpq   403020 <.plt>

0000000000403260 <_ZNSt7__cxx1112basic_stringIcSt11char_traitsIcESaIcEE13_S_copy_charsEPcN9__gnu_cxx17__normal_iteratorIS5_S4_EES8_@plt>:
  403260:	ff 25 ca 2e 01 00    	jmpq   *0x12eca(%rip)        # 416130 <_ZNSt7__cxx1112basic_stringIcSt11char_traitsIcESaIcEE13_S_copy_charsEPcN9__gnu_cxx17__normal_iteratorIS5_S4_EES8_@GLIBCXX_3.4.21>
  403266:	68 23 00 00 00       	pushq  $0x23
  40326b:	e9 b0 fd ff ff       	jmpq   403020 <.plt>

0000000000403270 <_ZNSolsEPFRSoS_E@plt>:
  403270:	ff 25 c2 2e 01 00    	jmpq   *0x12ec2(%rip)        # 416138 <_ZNSolsEPFRSoS_E@GLIBCXX_3.4>
  403276:	68 24 00 00 00       	pushq  $0x24
  40327b:	e9 a0 fd ff ff       	jmpq   403020 <.plt>

0000000000403280 <_ZNSt7__cxx1112basic_stringIcSt11char_traitsIcESaIcEE12_Alloc_hiderC1EPcRKS3_@plt>:
  403280:	ff 25 ba 2e 01 00    	jmpq   *0x12eba(%rip)        # 416140 <_ZNSt7__cxx1112basic_stringIcSt11char_traitsIcESaIcEE12_Alloc_hiderC1EPcRKS3_@GLIBCXX_3.4.21>
  403286:	68 25 00 00 00       	pushq  $0x25
  40328b:	e9 90 fd ff ff       	jmpq   403020 <.plt>

0000000000403290 <_ZNSaIcED1Ev@plt>:
  403290:	ff 25 b2 2e 01 00    	jmpq   *0x12eb2(%rip)        # 416148 <_ZNSaIcED1Ev@GLIBCXX_3.4>
  403296:	68 26 00 00 00       	pushq  $0x26
  40329b:	e9 80 fd ff ff       	jmpq   403020 <.plt>

00000000004032a0 <_ZNKSt7__cxx1112basic_stringIcSt11char_traitsIcESaIcEE7_M_dataEv@plt>:
  4032a0:	ff 25 aa 2e 01 00    	jmpq   *0x12eaa(%rip)        # 416150 <_ZNKSt7__cxx1112basic_stringIcSt11char_traitsIcESaIcEE7_M_dataEv@GLIBCXX_3.4.21>
  4032a6:	68 27 00 00 00       	pushq  $0x27
  4032ab:	e9 70 fd ff ff       	jmpq   403020 <.plt>

00000000004032b0 <_ZNSt13runtime_errorD2Ev@plt>:
  4032b0:	ff 25 a2 2e 01 00    	jmpq   *0x12ea2(%rip)        # 416158 <_ZNSt13runtime_errorD2Ev@GLIBCXX_3.4>
  4032b6:	68 28 00 00 00       	pushq  $0x28
  4032bb:	e9 60 fd ff ff       	jmpq   403020 <.plt>

00000000004032c0 <free@plt>:
  4032c0:	ff 25 9a 2e 01 00    	jmpq   *0x12e9a(%rip)        # 416160 <free@GLIBC_2.2.5>
  4032c6:	68 29 00 00 00       	pushq  $0x29
  4032cb:	e9 50 fd ff ff       	jmpq   403020 <.plt>

00000000004032d0 <_ZNSt7__cxx1112basic_stringIcSt11char_traitsIcESaIcEE10_M_disposeEv@plt>:
  4032d0:	ff 25 92 2e 01 00    	jmpq   *0x12e92(%rip)        # 416168 <_ZNSt7__cxx1112basic_stringIcSt11char_traitsIcESaIcEE10_M_disposeEv@GLIBCXX_3.4.21>
  4032d6:	68 2a 00 00 00       	pushq  $0x2a
  4032db:	e9 40 fd ff ff       	jmpq   403020 <.plt>

00000000004032e0 <atof@plt>:
  4032e0:	ff 25 8a 2e 01 00    	jmpq   *0x12e8a(%rip)        # 416170 <atof@GLIBC_2.2.5>
  4032e6:	68 2b 00 00 00       	pushq  $0x2b
  4032eb:	e9 30 fd ff ff       	jmpq   403020 <.plt>

00000000004032f0 <_ZNKSt9basic_iosIcSt11char_traitsIcEEcvbEv@plt>:
  4032f0:	ff 25 82 2e 01 00    	jmpq   *0x12e82(%rip)        # 416178 <_ZNKSt9basic_iosIcSt11char_traitsIcEEcvbEv@GLIBCXX_3.4.21>
  4032f6:	68 2c 00 00 00       	pushq  $0x2c
  4032fb:	e9 20 fd ff ff       	jmpq   403020 <.plt>

0000000000403300 <_ZdaPv@plt>:
  403300:	ff 25 7a 2e 01 00    	jmpq   *0x12e7a(%rip)        # 416180 <_ZdaPv@GLIBCXX_3.4>
  403306:	68 2d 00 00 00       	pushq  $0x2d
  40330b:	e9 10 fd ff ff       	jmpq   403020 <.plt>

0000000000403310 <_ZNSt13runtime_errorC2ERKS_@plt>:
  403310:	ff 25 72 2e 01 00    	jmpq   *0x12e72(%rip)        # 416188 <_ZNSt13runtime_errorC2ERKS_@GLIBCXX_3.4.21>
  403316:	68 2e 00 00 00       	pushq  $0x2e
  40331b:	e9 00 fd ff ff       	jmpq   403020 <.plt>

0000000000403320 <malloc@plt>:
  403320:	ff 25 6a 2e 01 00    	jmpq   *0x12e6a(%rip)        # 416190 <malloc@GLIBC_2.2.5>
  403326:	68 2f 00 00 00       	pushq  $0x2f
  40332b:	e9 f0 fc ff ff       	jmpq   403020 <.plt>

0000000000403330 <_ZNSt7__cxx1112basic_stringIcSt11char_traitsIcESaIcEEC1EPKcRKS3_@plt>:
  403330:	ff 25 62 2e 01 00    	jmpq   *0x12e62(%rip)        # 416198 <_ZNSt7__cxx1112basic_stringIcSt11char_traitsIcESaIcEEC1EPKcRKS3_@GLIBCXX_3.4.21>
  403336:	68 30 00 00 00       	pushq  $0x30
  40333b:	e9 e0 fc ff ff       	jmpq   403020 <.plt>

0000000000403340 <_ZNKSt13runtime_error4whatEv@plt>:
  403340:	ff 25 5a 2e 01 00    	jmpq   *0x12e5a(%rip)        # 4161a0 <_ZNKSt13runtime_error4whatEv@GLIBCXX_3.4>
  403346:	68 31 00 00 00       	pushq  $0x31
  40334b:	e9 d0 fc ff ff       	jmpq   403020 <.plt>

0000000000403350 <strcmp@plt>:
  403350:	ff 25 52 2e 01 00    	jmpq   *0x12e52(%rip)        # 4161a8 <strcmp@GLIBC_2.2.5>
  403356:	68 32 00 00 00       	pushq  $0x32
  40335b:	e9 c0 fc ff ff       	jmpq   403020 <.plt>

0000000000403360 <__cxa_rethrow@plt>:
  403360:	ff 25 4a 2e 01 00    	jmpq   *0x12e4a(%rip)        # 4161b0 <__cxa_rethrow@CXXABI_1.3>
  403366:	68 33 00 00 00       	pushq  $0x33
  40336b:	e9 b0 fc ff ff       	jmpq   403020 <.plt>

0000000000403370 <_ZNKSt7__cxx1112basic_stringIcSt11char_traitsIcESaIcEE6lengthEv@plt>:
  403370:	ff 25 42 2e 01 00    	jmpq   *0x12e42(%rip)        # 4161b8 <_ZNKSt7__cxx1112basic_stringIcSt11char_traitsIcESaIcEE6lengthEv@GLIBCXX_3.4.21>
  403376:	68 34 00 00 00       	pushq  $0x34
  40337b:	e9 a0 fc ff ff       	jmpq   403020 <.plt>

0000000000403380 <_ZNSt8ios_base4InitC1Ev@plt>:
  403380:	ff 25 3a 2e 01 00    	jmpq   *0x12e3a(%rip)        # 4161c0 <_ZNSt8ios_base4InitC1Ev@GLIBCXX_3.4>
  403386:	68 35 00 00 00       	pushq  $0x35
  40338b:	e9 90 fc ff ff       	jmpq   403020 <.plt>

0000000000403390 <_ZNSt14basic_ifstreamIcSt11char_traitsIcEEC1ERKNSt7__cxx1112basic_stringIcS1_SaIcEEESt13_Ios_Openmode@plt>:
  403390:	ff 25 32 2e 01 00    	jmpq   *0x12e32(%rip)        # 4161c8 <_ZNSt14basic_ifstreamIcSt11char_traitsIcEEC1ERKNSt7__cxx1112basic_stringIcS1_SaIcEEESt13_Ios_Openmode@GLIBCXX_3.4.21>
  403396:	68 36 00 00 00       	pushq  $0x36
  40339b:	e9 80 fc ff ff       	jmpq   403020 <.plt>

00000000004033a0 <memmove@plt>:
  4033a0:	ff 25 2a 2e 01 00    	jmpq   *0x12e2a(%rip)        # 4161d0 <memmove@GLIBC_2.2.5>
  4033a6:	68 37 00 00 00       	pushq  $0x37
  4033ab:	e9 70 fc ff ff       	jmpq   403020 <.plt>

00000000004033b0 <__cxa_end_catch@plt>:
  4033b0:	ff 25 22 2e 01 00    	jmpq   *0x12e22(%rip)        # 4161d8 <__cxa_end_catch@CXXABI_1.3>
  4033b6:	68 38 00 00 00       	pushq  $0x38
  4033bb:	e9 60 fc ff ff       	jmpq   403020 <.plt>

00000000004033c0 <__gxx_personality_v0@plt>:
  4033c0:	ff 25 1a 2e 01 00    	jmpq   *0x12e1a(%rip)        # 4161e0 <__gxx_personality_v0@CXXABI_1.3>
  4033c6:	68 39 00 00 00       	pushq  $0x39
  4033cb:	e9 50 fc ff ff       	jmpq   403020 <.plt>

00000000004033d0 <__cxa_throw@plt>:
  4033d0:	ff 25 12 2e 01 00    	jmpq   *0x12e12(%rip)        # 4161e8 <__cxa_throw@CXXABI_1.3>
  4033d6:	68 3a 00 00 00       	pushq  $0x3a
  4033db:	e9 40 fc ff ff       	jmpq   403020 <.plt>

00000000004033e0 <_Unwind_Resume@plt>:
  4033e0:	ff 25 0a 2e 01 00    	jmpq   *0x12e0a(%rip)        # 4161f0 <_Unwind_Resume@GCC_3.0>
  4033e6:	68 3b 00 00 00       	pushq  $0x3b
  4033eb:	e9 30 fc ff ff       	jmpq   403020 <.plt>

00000000004033f0 <_ZNSaIcEC1Ev@plt>:
  4033f0:	ff 25 02 2e 01 00    	jmpq   *0x12e02(%rip)        # 4161f8 <_ZNSaIcEC1Ev@GLIBCXX_3.4>
  4033f6:	68 3c 00 00 00       	pushq  $0x3c
  4033fb:	e9 20 fc ff ff       	jmpq   403020 <.plt>

0000000000403400 <_ZNSt7__cxx1112basic_stringIcSt11char_traitsIcESaIcEE9_M_createERmm@plt>:
  403400:	ff 25 fa 2d 01 00    	jmpq   *0x12dfa(%rip)        # 416200 <_ZNSt7__cxx1112basic_stringIcSt11char_traitsIcESaIcEE9_M_createERmm@GLIBCXX_3.4.21>
  403406:	68 3d 00 00 00       	pushq  $0x3d
  40340b:	e9 10 fc ff ff       	jmpq   403020 <.plt>

0000000000403410 <_ZNKSt7__cxx1112basic_stringIcSt11char_traitsIcESaIcEE3endEv@plt>:
  403410:	ff 25 f2 2d 01 00    	jmpq   *0x12df2(%rip)        # 416208 <_ZNKSt7__cxx1112basic_stringIcSt11char_traitsIcESaIcEE3endEv@GLIBCXX_3.4.21>
  403416:	68 3e 00 00 00       	pushq  $0x3e
  40341b:	e9 00 fc ff ff       	jmpq   403020 <.plt>

0000000000403420 <_ZNSt13runtime_errorC2EPKc@plt>:
  403420:	ff 25 ea 2d 01 00    	jmpq   *0x12dea(%rip)        # 416210 <_ZNSt13runtime_errorC2EPKc@GLIBCXX_3.4.21>
  403426:	68 3f 00 00 00       	pushq  $0x3f
  40342b:	e9 f0 fb ff ff       	jmpq   403020 <.plt>

0000000000403430 <_ZNSolsEd@plt>:
  403430:	ff 25 e2 2d 01 00    	jmpq   *0x12de2(%rip)        # 416218 <_ZNSolsEd@GLIBCXX_3.4>
  403436:	68 40 00 00 00       	pushq  $0x40
  40343b:	e9 e0 fb ff ff       	jmpq   403020 <.plt>

0000000000403440 <__cxa_pure_virtual@plt>:
  403440:	ff 25 da 2d 01 00    	jmpq   *0x12dda(%rip)        # 416220 <__cxa_pure_virtual@CXXABI_1.3>
  403446:	68 41 00 00 00       	pushq  $0x41
  40344b:	e9 d0 fb ff ff       	jmpq   403020 <.plt>

0000000000403450 <_ZNSt7__cxx1112basic_stringIcSt11char_traitsIcESaIcEE11_M_capacityEm@plt>:
  403450:	ff 25 d2 2d 01 00    	jmpq   *0x12dd2(%rip)        # 416228 <_ZNSt7__cxx1112basic_stringIcSt11char_traitsIcESaIcEE11_M_capacityEm@GLIBCXX_3.4.21>
  403456:	68 42 00 00 00       	pushq  $0x42
  40345b:	e9 c0 fb ff ff       	jmpq   403020 <.plt>

0000000000403460 <_ZNSt7__cxx1112basic_stringIcSt11char_traitsIcESaIcEEixEm@plt>:
  403460:	ff 25 ca 2d 01 00    	jmpq   *0x12dca(%rip)        # 416230 <_ZNSt7__cxx1112basic_stringIcSt11char_traitsIcESaIcEEixEm@GLIBCXX_3.4.21>
  403466:	68 43 00 00 00       	pushq  $0x43
  40346b:	e9 b0 fb ff ff       	jmpq   403020 <.plt>

0000000000403470 <_ZNSt8ios_base4InitD1Ev@plt>:
  403470:	ff 25 c2 2d 01 00    	jmpq   *0x12dc2(%rip)        # 416238 <_ZNSt8ios_base4InitD1Ev@GLIBCXX_3.4>
  403476:	68 44 00 00 00       	pushq  $0x44
  40347b:	e9 a0 fb ff ff       	jmpq   403020 <.plt>

Disassembly of section .text:

0000000000403480 <__cxx_global_var_init>:
  403480:	55                   	push   %rbp
  403481:	48 89 e5             	mov    %rsp,%rbp
  403484:	48 bf 91 63 41 00 00 	movabs $0x416391,%rdi
  40348b:	00 00 00 
  40348e:	e8 ed fe ff ff       	callq  403380 <_ZNSt8ios_base4InitC1Ev@plt>
  403493:	48 b8 70 34 40 00 00 	movabs $0x403470,%rax
  40349a:	00 00 00 
  40349d:	48 89 c7             	mov    %rax,%rdi
  4034a0:	48 be 91 63 41 00 00 	movabs $0x416391,%rsi
  4034a7:	00 00 00 
  4034aa:	48 ba 48 62 41 00 00 	movabs $0x416248,%rdx
  4034b1:	00 00 00 
  4034b4:	e8 47 fd ff ff       	callq  403200 <__cxa_atexit@plt>
  4034b9:	5d                   	pop    %rbp
  4034ba:	c3                   	retq   
  4034bb:	0f 1f 44 00 00       	nopl   0x0(%rax,%rax,1)

00000000004034c0 <_GLOBAL__sub_I_ETL.cpp>:
  4034c0:	55                   	push   %rbp
  4034c1:	48 89 e5             	mov    %rsp,%rbp
  4034c4:	e8 b7 ff ff ff       	callq  403480 <__cxx_global_var_init>
  4034c9:	5d                   	pop    %rbp
  4034ca:	c3                   	retq   
  4034cb:	0f 1f 44 00 00       	nopl   0x0(%rax,%rax,1)

00000000004034d0 <__cxx_global_var_init>:
  4034d0:	55                   	push   %rbp
  4034d1:	48 89 e5             	mov    %rsp,%rbp
  4034d4:	48 bf 92 63 41 00 00 	movabs $0x416392,%rdi
  4034db:	00 00 00 
  4034de:	e8 9d fe ff ff       	callq  403380 <_ZNSt8ios_base4InitC1Ev@plt>
  4034e3:	48 b8 70 34 40 00 00 	movabs $0x403470,%rax
  4034ea:	00 00 00 
  4034ed:	48 89 c7             	mov    %rax,%rdi
  4034f0:	48 be 92 63 41 00 00 	movabs $0x416392,%rsi
  4034f7:	00 00 00 
  4034fa:	48 ba 48 62 41 00 00 	movabs $0x416248,%rdx
  403501:	00 00 00 
  403504:	e8 f7 fc ff ff       	callq  403200 <__cxa_atexit@plt>
  403509:	5d                   	pop    %rbp
  40350a:	c3                   	retq   
  40350b:	0f 1f 44 00 00       	nopl   0x0(%rax,%rax,1)

0000000000403510 <_GLOBAL__sub_I_main.cpp>:
  403510:	55                   	push   %rbp
  403511:	48 89 e5             	mov    %rsp,%rbp
  403514:	e8 b7 ff ff ff       	callq  4034d0 <__cxx_global_var_init>
  403519:	5d                   	pop    %rbp
  40351a:	c3                   	retq   
  40351b:	0f 1f 44 00 00       	nopl   0x0(%rax,%rax,1)

0000000000403520 <_start>:
  403520:	f3 0f 1e fa          	endbr64 
  403524:	31 ed                	xor    %ebp,%ebp
  403526:	49 89 d1             	mov    %rdx,%r9
  403529:	5e                   	pop    %rsi
  40352a:	48 89 e2             	mov    %rsp,%rdx
  40352d:	48 83 e4 f0          	and    $0xfffffffffffffff0,%rsp
  403531:	50                   	push   %rax
  403532:	54                   	push   %rsp
  403533:	49 c7 c0 00 de 40 00 	mov    $0x40de00,%r8
  40353a:	48 c7 c1 90 dd 40 00 	mov    $0x40dd90,%rcx
  403541:	48 c7 c7 c0 c6 40 00 	mov    $0x40c6c0,%rdi
  403548:	ff 15 8a 2a 01 00    	callq  *0x12a8a(%rip)        # 415fd8 <__libc_start_main@GLIBC_2.2.5>
  40354e:	f4                   	hlt    
  40354f:	90                   	nop

0000000000403550 <_dl_relocate_static_pie>:
  403550:	f3 0f 1e fa          	endbr64 
  403554:	c3                   	retq   
  403555:	66 2e 0f 1f 84 00 00 	nopw   %cs:0x0(%rax,%rax,1)
  40355c:	00 00 00 
  40355f:	90                   	nop

0000000000403560 <deregister_tm_clones>:
  403560:	b8 58 62 41 00       	mov    $0x416258,%eax
  403565:	48 3d 58 62 41 00    	cmp    $0x416258,%rax
  40356b:	74 13                	je     403580 <deregister_tm_clones+0x20>
  40356d:	b8 00 00 00 00       	mov    $0x0,%eax
  403572:	48 85 c0             	test   %rax,%rax
  403575:	74 09                	je     403580 <deregister_tm_clones+0x20>
  403577:	bf 58 62 41 00       	mov    $0x416258,%edi
  40357c:	ff e0                	jmpq   *%rax
  40357e:	66 90                	xchg   %ax,%ax
  403580:	c3                   	retq   
  403581:	66 66 2e 0f 1f 84 00 	data16 nopw %cs:0x0(%rax,%rax,1)
  403588:	00 00 00 00 
  40358c:	0f 1f 40 00          	nopl   0x0(%rax)

0000000000403590 <register_tm_clones>:
  403590:	be 58 62 41 00       	mov    $0x416258,%esi
  403595:	48 81 ee 58 62 41 00 	sub    $0x416258,%rsi
  40359c:	48 89 f0             	mov    %rsi,%rax
  40359f:	48 c1 ee 3f          	shr    $0x3f,%rsi
  4035a3:	48 c1 f8 03          	sar    $0x3,%rax
  4035a7:	48 01 c6             	add    %rax,%rsi
  4035aa:	48 d1 fe             	sar    %rsi
  4035ad:	74 11                	je     4035c0 <register_tm_clones+0x30>
  4035af:	b8 00 00 00 00       	mov    $0x0,%eax
  4035b4:	48 85 c0             	test   %rax,%rax
  4035b7:	74 07                	je     4035c0 <register_tm_clones+0x30>
  4035b9:	bf 58 62 41 00       	mov    $0x416258,%edi
  4035be:	ff e0                	jmpq   *%rax
  4035c0:	c3                   	retq   
  4035c1:	66 66 2e 0f 1f 84 00 	data16 nopw %cs:0x0(%rax,%rax,1)
  4035c8:	00 00 00 00 
  4035cc:	0f 1f 40 00          	nopl   0x0(%rax)

00000000004035d0 <__do_global_dtors_aux>:
  4035d0:	f3 0f 1e fa          	endbr64 
  4035d4:	80 3d b5 2d 01 00 00 	cmpb   $0x0,0x12db5(%rip)        # 416390 <completed.8060>
  4035db:	75 13                	jne    4035f0 <__do_global_dtors_aux+0x20>
  4035dd:	55                   	push   %rbp
  4035de:	48 89 e5             	mov    %rsp,%rbp
  4035e1:	e8 7a ff ff ff       	callq  403560 <deregister_tm_clones>
  4035e6:	c6 05 a3 2d 01 00 01 	movb   $0x1,0x12da3(%rip)        # 416390 <completed.8060>
  4035ed:	5d                   	pop    %rbp
  4035ee:	c3                   	retq   
  4035ef:	90                   	nop
  4035f0:	c3                   	retq   
  4035f1:	66 66 2e 0f 1f 84 00 	data16 nopw %cs:0x0(%rax,%rax,1)
  4035f8:	00 00 00 00 
  4035fc:	0f 1f 40 00          	nopl   0x0(%rax)

0000000000403600 <frame_dummy>:
  403600:	f3 0f 1e fa          	endbr64 
  403604:	eb 8a                	jmp    403590 <register_tm_clones>
  403606:	66 2e 0f 1f 84 00 00 	nopw   %cs:0x0(%rax,%rax,1)
  40360d:	00 00 00 

0000000000403610 <_ZN3ETL7readCSVB5cxx11Ev>:
  403610:	55                   	push   %rbp
  403611:	48 89 e5             	mov    %rsp,%rbp
  403614:	48 81 ec c0 02 00 00 	sub    $0x2c0,%rsp
  40361b:	48 89 f8             	mov    %rdi,%rax
  40361e:	48 89 7d f8          	mov    %rdi,-0x8(%rbp)
  403622:	48 89 75 f0          	mov    %rsi,-0x10(%rbp)
  403626:	48 8b 4d f0          	mov    -0x10(%rbp),%rcx
  40362a:	48 8d 95 e8 fd ff ff 	lea    -0x218(%rbp),%rdx
  403631:	41 b8 08 00 00 00    	mov    $0x8,%r8d
  403637:	48 89 bd 70 fd ff ff 	mov    %rdi,-0x290(%rbp)
  40363e:	48 89 d7             	mov    %rdx,%rdi
  403641:	48 89 ce             	mov    %rcx,%rsi
  403644:	44 89 c2             	mov    %r8d,%edx
  403647:	48 89 85 68 fd ff ff 	mov    %rax,-0x298(%rbp)
  40364e:	48 89 8d 60 fd ff ff 	mov    %rcx,-0x2a0(%rbp)
  403655:	e8 36 fd ff ff       	callq  403390 <_ZNSt14basic_ifstreamIcSt11char_traitsIcEEC1ERKNSt7__cxx1112basic_stringIcS1_SaIcEEESt13_Ios_Openmode@plt>
  40365a:	c6 85 e7 fd ff ff 00 	movb   $0x0,-0x219(%rbp)
  403661:	48 8b bd 70 fd ff ff 	mov    -0x290(%rbp),%rdi
  403668:	e8 83 03 00 00       	callq  4039f0 <_ZNSt6vectorIS_INSt7__cxx1112basic_stringIcSt11char_traitsIcESaIcEEESaIS5_EESaIS7_EEC2Ev>
  40366d:	48 8d 85 b8 fd ff ff 	lea    -0x248(%rbp),%rax
  403674:	48 89 c7             	mov    %rax,%rdi
  403677:	48 89 85 58 fd ff ff 	mov    %rax,-0x2a8(%rbp)
  40367e:	e8 6d fd ff ff       	callq  4033f0 <_ZNSaIcEC1Ev@plt>
  403683:	be fb e2 40 00       	mov    $0x40e2fb,%esi
  403688:	48 8d bd c0 fd ff ff 	lea    -0x240(%rbp),%rdi
  40368f:	48 8b 95 58 fd ff ff 	mov    -0x2a8(%rbp),%rdx
  403696:	e8 95 fc ff ff       	callq  403330 <_ZNSt7__cxx1112basic_stringIcSt11char_traitsIcESaIcEEC1EPKcRKS3_@plt>
  40369b:	e9 00 00 00 00       	jmpq   4036a0 <_ZN3ETL7readCSVB5cxx11Ev+0x90>
  4036a0:	48 8d bd b8 fd ff ff 	lea    -0x248(%rbp),%rdi
  4036a7:	e8 e4 fb ff ff       	callq  403290 <_ZNSaIcED1Ev@plt>
  4036ac:	48 8d bd e8 fd ff ff 	lea    -0x218(%rbp),%rdi
  4036b3:	48 8d b5 c0 fd ff ff 	lea    -0x240(%rbp),%rsi
  4036ba:	e8 91 f9 ff ff       	callq  403050 <_ZSt7getlineIcSt11char_traitsIcESaIcEERSt13basic_istreamIT_T0_ES7_RNSt7__cxx1112basic_stringIS4_S5_T1_EE@plt>
  4036bf:	48 89 85 50 fd ff ff 	mov    %rax,-0x2b0(%rbp)
  4036c6:	e9 00 00 00 00       	jmpq   4036cb <_ZN3ETL7readCSVB5cxx11Ev+0xbb>
  4036cb:	48 8b 85 50 fd ff ff 	mov    -0x2b0(%rbp),%rax
  4036d2:	48 8b 08             	mov    (%rax),%rcx
  4036d5:	48 8b 49 e8          	mov    -0x18(%rcx),%rcx
  4036d9:	48 01 c8             	add    %rcx,%rax
  4036dc:	48 89 c7             	mov    %rax,%rdi
  4036df:	e8 0c fc ff ff       	callq  4032f0 <_ZNKSt9basic_iosIcSt11char_traitsIcEEcvbEv@plt>
  4036e4:	88 85 4f fd ff ff    	mov    %al,-0x2b1(%rbp)
  4036ea:	e9 00 00 00 00       	jmpq   4036ef <_ZN3ETL7readCSVB5cxx11Ev+0xdf>
  4036ef:	8a 85 4f fd ff ff    	mov    -0x2b1(%rbp),%al
  4036f5:	a8 01                	test   $0x1,%al
  4036f7:	0f 85 05 00 00 00    	jne    403702 <_ZN3ETL7readCSVB5cxx11Ev+0xf2>
  4036fd:	e9 f0 00 00 00       	jmpq   4037f2 <_ZN3ETL7readCSVB5cxx11Ev+0x1e2>
  403702:	48 8d bd 90 fd ff ff 	lea    -0x270(%rbp),%rdi
  403709:	e8 02 03 00 00       	callq  403a10 <_ZNSt6vectorINSt7__cxx1112basic_stringIcSt11char_traitsIcESaIcEEESaIS5_EEC2Ev>
  40370e:	48 8b 85 60 fd ff ff 	mov    -0x2a0(%rbp),%rax
  403715:	48 83 c0 20          	add    $0x20,%rax
  403719:	48 8d bd 78 fd ff ff 	lea    -0x288(%rbp),%rdi
  403720:	48 89 c6             	mov    %rax,%rsi
  403723:	e8 c8 03 00 00       	callq  403af0 <_ZN5boost9algorithm9is_any_ofINSt7__cxx1112basic_stringIcSt11char_traitsIcESaIcEEEEENS0_6detail10is_any_ofFINS_11range_valueIT_E4typeEEERKSB_>
  403728:	e9 00 00 00 00       	jmpq   40372d <_ZN3ETL7readCSVB5cxx11Ev+0x11d>
  40372d:	48 8d bd 90 fd ff ff 	lea    -0x270(%rbp),%rdi
  403734:	48 8d b5 c0 fd ff ff 	lea    -0x240(%rbp),%rsi
  40373b:	48 8d 95 78 fd ff ff 	lea    -0x288(%rbp),%rdx
  403742:	b9 01 00 00 00       	mov    $0x1,%ecx
  403747:	e8 e4 02 00 00       	callq  403a30 <_ZN5boost9algorithm5splitISt6vectorINSt7__cxx1112basic_stringIcSt11char_traitsIcESaIcEEESaIS8_EERS8_NS0_6detail10is_any_ofFIcEEEERT_SG_OT0_T1_NS0_24token_compress_mode_typeE>
  40374c:	e9 00 00 00 00       	jmpq   403751 <_ZN3ETL7readCSVB5cxx11Ev+0x141>
  403751:	48 8d bd 78 fd ff ff 	lea    -0x288(%rbp),%rdi
  403758:	e8 e3 03 00 00       	callq  403b40 <_ZN5boost9algorithm6detail10is_any_ofFIcED2Ev>
  40375d:	48 8d b5 90 fd ff ff 	lea    -0x270(%rbp),%rsi
  403764:	48 8b bd 70 fd ff ff 	mov    -0x290(%rbp),%rdi
  40376b:	e8 50 04 00 00       	callq  403bc0 <_ZNSt6vectorIS_INSt7__cxx1112basic_stringIcSt11char_traitsIcESaIcEEESaIS5_EESaIS7_EE9push_backERKS7_>
  403770:	e9 00 00 00 00       	jmpq   403775 <_ZN3ETL7readCSVB5cxx11Ev+0x165>
  403775:	48 8d bd 90 fd ff ff 	lea    -0x270(%rbp),%rdi
  40377c:	e8 bf 04 00 00       	callq  403c40 <_ZNSt6vectorINSt7__cxx1112basic_stringIcSt11char_traitsIcESaIcEEESaIS5_EED2Ev>
  403781:	e9 26 ff ff ff       	jmpq   4036ac <_ZN3ETL7readCSVB5cxx11Ev+0x9c>
  403786:	48 89 85 b0 fd ff ff 	mov    %rax,-0x250(%rbp)
  40378d:	89 95 ac fd ff ff    	mov    %edx,-0x254(%rbp)
  403793:	48 8d bd b8 fd ff ff 	lea    -0x248(%rbp),%rdi
  40379a:	e8 f1 fa ff ff       	callq  403290 <_ZNSaIcED1Ev@plt>
  40379f:	e9 bd 00 00 00       	jmpq   403861 <_ZN3ETL7readCSVB5cxx11Ev+0x251>
  4037a4:	48 89 85 b0 fd ff ff 	mov    %rax,-0x250(%rbp)
  4037ab:	89 95 ac fd ff ff    	mov    %edx,-0x254(%rbp)
  4037b1:	e9 72 00 00 00       	jmpq   403828 <_ZN3ETL7readCSVB5cxx11Ev+0x218>
  4037b6:	48 89 85 b0 fd ff ff 	mov    %rax,-0x250(%rbp)
  4037bd:	89 95 ac fd ff ff    	mov    %edx,-0x254(%rbp)
  4037c3:	e9 19 00 00 00       	jmpq   4037e1 <_ZN3ETL7readCSVB5cxx11Ev+0x1d1>
  4037c8:	48 89 85 b0 fd ff ff 	mov    %rax,-0x250(%rbp)
  4037cf:	89 95 ac fd ff ff    	mov    %edx,-0x254(%rbp)
  4037d5:	48 8d bd 78 fd ff ff 	lea    -0x288(%rbp),%rdi
  4037dc:	e8 5f 03 00 00       	callq  403b40 <_ZN5boost9algorithm6detail10is_any_ofFIcED2Ev>
  4037e1:	48 8d bd 90 fd ff ff 	lea    -0x270(%rbp),%rdi
  4037e8:	e8 53 04 00 00       	callq  403c40 <_ZNSt6vectorINSt7__cxx1112basic_stringIcSt11char_traitsIcESaIcEEESaIS5_EED2Ev>
  4037ed:	e9 36 00 00 00       	jmpq   403828 <_ZN3ETL7readCSVB5cxx11Ev+0x218>
  4037f2:	48 8d bd e8 fd ff ff 	lea    -0x218(%rbp),%rdi
  4037f9:	e8 62 f8 ff ff       	callq  403060 <_ZNSt14basic_ifstreamIcSt11char_traitsIcEE5closeEv@plt>
  4037fe:	e9 00 00 00 00       	jmpq   403803 <_ZN3ETL7readCSVB5cxx11Ev+0x1f3>
  403803:	c6 85 e7 fd ff ff 01 	movb   $0x1,-0x219(%rbp)
  40380a:	48 8d bd c0 fd ff ff 	lea    -0x240(%rbp),%rdi
  403811:	e8 2a f9 ff ff       	callq  403140 <_ZNSt7__cxx1112basic_stringIcSt11char_traitsIcESaIcEED1Ev@plt>
  403816:	f6 85 e7 fd ff ff 01 	testb  $0x1,-0x219(%rbp)
  40381d:	0f 85 22 00 00 00    	jne    403845 <_ZN3ETL7readCSVB5cxx11Ev+0x235>
  403823:	e9 11 00 00 00       	jmpq   403839 <_ZN3ETL7readCSVB5cxx11Ev+0x229>
  403828:	48 8d bd c0 fd ff ff 	lea    -0x240(%rbp),%rdi
  40382f:	e8 0c f9 ff ff       	callq  403140 <_ZNSt7__cxx1112basic_stringIcSt11char_traitsIcESaIcEED1Ev@plt>
  403834:	e9 28 00 00 00       	jmpq   403861 <_ZN3ETL7readCSVB5cxx11Ev+0x251>
  403839:	48 8b bd 70 fd ff ff 	mov    -0x290(%rbp),%rdi
  403840:	e8 6b 04 00 00       	callq  403cb0 <_ZNSt6vectorIS_INSt7__cxx1112basic_stringIcSt11char_traitsIcESaIcEEESaIS5_EESaIS7_EED2Ev>
  403845:	48 8d bd e8 fd ff ff 	lea    -0x218(%rbp),%rdi
  40384c:	e8 1f f8 ff ff       	callq  403070 <_ZNSt14basic_ifstreamIcSt11char_traitsIcEED1Ev@plt>
  403851:	48 8b 85 68 fd ff ff 	mov    -0x298(%rbp),%rax
  403858:	48 81 c4 c0 02 00 00 	add    $0x2c0,%rsp
  40385f:	5d                   	pop    %rbp
  403860:	c3                   	retq   
  403861:	48 8b bd 70 fd ff ff 	mov    -0x290(%rbp),%rdi
  403868:	e8 43 04 00 00       	callq  403cb0 <_ZNSt6vectorIS_INSt7__cxx1112basic_stringIcSt11char_traitsIcESaIcEEESaIS5_EESaIS7_EED2Ev>
  40386d:	48 8d bd e8 fd ff ff 	lea    -0x218(%rbp),%rdi
  403874:	e8 f7 f7 ff ff       	callq  403070 <_ZNSt14basic_ifstreamIcSt11char_traitsIcEED1Ev@plt>
  403879:	48 8b bd b0 fd ff ff 	mov    -0x250(%rbp),%rdi
  403880:	e8 5b fb ff ff       	callq  4033e0 <_Unwind_Resume@plt>
  403885:	66 2e 0f 1f 84 00 00 	nopw   %cs:0x0(%rax,%rax,1)
  40388c:	00 00 00 
  40388f:	90                   	nop

0000000000403890 <_ZN3ETL10CSVtoEigenESt6vectorIS0_INSt7__cxx1112basic_stringIcSt11char_traitsIcESaIcEEESaIS6_EESaIS8_EEii>:
  403890:	55                   	push   %rbp
  403891:	48 89 e5             	mov    %rsp,%rbp
  403894:	48 81 ec 80 00 00 00 	sub    $0x80,%rsp
  40389b:	48 89 f8             	mov    %rdi,%rax
  40389e:	49 89 f9             	mov    %rdi,%r9
  4038a1:	4c 89 4d f8          	mov    %r9,-0x8(%rbp)
  4038a5:	48 89 75 f0          	mov    %rsi,-0x10(%rbp)
  4038a9:	89 4d ec             	mov    %ecx,-0x14(%rbp)
  4038ac:	44 89 45 e8          	mov    %r8d,-0x18(%rbp)
  4038b0:	48 8b 75 f0          	mov    -0x10(%rbp),%rsi
  4038b4:	44 8a 56 40          	mov    0x40(%rsi),%r10b
  4038b8:	41 80 e2 01          	and    $0x1,%r10b
  4038bc:	41 0f b6 ca          	movzbl %r10b,%ecx
  4038c0:	83 f9 01             	cmp    $0x1,%ecx
  4038c3:	48 89 55 a8          	mov    %rdx,-0x58(%rbp)
  4038c7:	48 89 7d a0          	mov    %rdi,-0x60(%rbp)
  4038cb:	48 89 45 98          	mov    %rax,-0x68(%rbp)
  4038cf:	0f 85 09 00 00 00    	jne    4038de <_ZN3ETL10CSVtoEigenESt6vectorIS0_INSt7__cxx1112basic_stringIcSt11char_traitsIcESaIcEEESaIS6_EESaIS8_EEii+0x4e>
  4038d5:	8b 45 ec             	mov    -0x14(%rbp),%eax
  4038d8:	83 e8 01             	sub    $0x1,%eax
  4038db:	89 45 ec             	mov    %eax,-0x14(%rbp)
  4038de:	48 8d 7d d0          	lea    -0x30(%rbp),%rdi
  4038e2:	48 8d 75 e8          	lea    -0x18(%rbp),%rsi
  4038e6:	48 8d 55 ec          	lea    -0x14(%rbp),%rdx
  4038ea:	e8 31 04 00 00       	callq  403d20 <_ZN5Eigen6MatrixIdLin1ELin1ELi0ELin1ELin1EEC2IiiEERKT_RKT0_>
  4038ef:	c7 45 cc 00 00 00 00 	movl   $0x0,-0x34(%rbp)
  4038f6:	8b 45 cc             	mov    -0x34(%rbp),%eax
  4038f9:	3b 45 ec             	cmp    -0x14(%rbp),%eax
  4038fc:	0f 8d 9e 00 00 00    	jge    4039a0 <_ZN3ETL10CSVtoEigenESt6vectorIS0_INSt7__cxx1112basic_stringIcSt11char_traitsIcESaIcEEESaIS6_EESaIS8_EEii+0x110>
  403902:	c7 45 c8 00 00 00 00 	movl   $0x0,-0x38(%rbp)
  403909:	8b 45 c8             	mov    -0x38(%rbp),%eax
  40390c:	3b 45 e8             	cmp    -0x18(%rbp),%eax
  40390f:	0f 8d 78 00 00 00    	jge    40398d <_ZN3ETL10CSVtoEigenESt6vectorIS0_INSt7__cxx1112basic_stringIcSt11char_traitsIcESaIcEEESaIS6_EESaIS8_EEii+0xfd>
  403915:	48 63 75 cc          	movslq -0x34(%rbp),%rsi
  403919:	48 8b 7d a8          	mov    -0x58(%rbp),%rdi
  40391d:	e8 6e 04 00 00       	callq  403d90 <_ZNSt6vectorIS_INSt7__cxx1112basic_stringIcSt11char_traitsIcESaIcEEESaIS5_EESaIS7_EEixEm>
  403922:	48 63 75 c8          	movslq -0x38(%rbp),%rsi
  403926:	48 89 c7             	mov    %rax,%rdi
  403929:	e8 82 04 00 00       	callq  403db0 <_ZNSt6vectorINSt7__cxx1112basic_stringIcSt11char_traitsIcESaIcEEESaIS5_EEixEm>
  40392e:	48 89 c7             	mov    %rax,%rdi
  403931:	e8 7a f7 ff ff       	callq  4030b0 <_ZNKSt7__cxx1112basic_stringIcSt11char_traitsIcESaIcEE5c_strEv@plt>
  403936:	48 89 c7             	mov    %rax,%rdi
  403939:	e8 a2 f9 ff ff       	callq  4032e0 <atof@plt>
  40393e:	48 63 75 c8          	movslq -0x38(%rbp),%rsi
  403942:	48 63 55 cc          	movslq -0x34(%rbp),%rdx
  403946:	48 8d 7d d0          	lea    -0x30(%rbp),%rdi
  40394a:	f2 0f 11 45 90       	movsd  %xmm0,-0x70(%rbp)
  40394f:	e8 7c 04 00 00       	callq  403dd0 <_ZN5Eigen15DenseCoeffsBaseINS_6MatrixIdLin1ELin1ELi0ELin1ELin1EEELi1EEclEll>
  403954:	48 89 45 88          	mov    %rax,-0x78(%rbp)
  403958:	e9 00 00 00 00       	jmpq   40395d <_ZN3ETL10CSVtoEigenESt6vectorIS0_INSt7__cxx1112basic_stringIcSt11char_traitsIcESaIcEEESaIS6_EESaIS8_EEii+0xcd>
  40395d:	48 8b 45 88          	mov    -0x78(%rbp),%rax
  403961:	f2 0f 10 45 90       	movsd  -0x70(%rbp),%xmm0
  403966:	f2 0f 11 00          	movsd  %xmm0,(%rax)
  40396a:	8b 45 c8             	mov    -0x38(%rbp),%eax
  40396d:	83 c0 01             	add    $0x1,%eax
  403970:	89 45 c8             	mov    %eax,-0x38(%rbp)
  403973:	e9 91 ff ff ff       	jmpq   403909 <_ZN3ETL10CSVtoEigenESt6vectorIS0_INSt7__cxx1112basic_stringIcSt11char_traitsIcESaIcEEESaIS6_EESaIS8_EEii+0x79>
  403978:	48 89 45 c0          	mov    %rax,-0x40(%rbp)
  40397c:	89 55 bc             	mov    %edx,-0x44(%rbp)
  40397f:	48 8d 7d d0          	lea    -0x30(%rbp),%rdi
  403983:	e8 e8 04 00 00       	callq  403e70 <_ZN5Eigen6MatrixIdLin1ELin1ELi0ELin1ELin1EED2Ev>
  403988:	e9 55 00 00 00       	jmpq   4039e2 <_ZN3ETL10CSVtoEigenESt6vectorIS0_INSt7__cxx1112basic_stringIcSt11char_traitsIcESaIcEEESaIS6_EESaIS8_EEii+0x152>
  40398d:	e9 00 00 00 00       	jmpq   403992 <_ZN3ETL10CSVtoEigenESt6vectorIS0_INSt7__cxx1112basic_stringIcSt11char_traitsIcESaIcEEESaIS6_EESaIS8_EEii+0x102>
  403992:	8b 45 cc             	mov    -0x34(%rbp),%eax
  403995:	83 c0 01             	add    $0x1,%eax
  403998:	89 45 cc             	mov    %eax,-0x34(%rbp)
  40399b:	e9 56 ff ff ff       	jmpq   4038f6 <_ZN3ETL10CSVtoEigenESt6vectorIS0_INSt7__cxx1112basic_stringIcSt11char_traitsIcESaIcEEESaIS6_EESaIS8_EEii+0x66>
  4039a0:	48 8d 7d d0          	lea    -0x30(%rbp),%rdi
  4039a4:	e8 57 04 00 00       	callq  403e00 <_ZN5Eigen9DenseBaseINS_6MatrixIdLin1ELin1ELi0ELin1ELin1EEEE9transposeEv>
  4039a9:	48 89 45 80          	mov    %rax,-0x80(%rbp)
  4039ad:	e9 00 00 00 00       	jmpq   4039b2 <_ZN3ETL10CSVtoEigenESt6vectorIS0_INSt7__cxx1112basic_stringIcSt11char_traitsIcESaIcEEESaIS6_EESaIS8_EEii+0x122>
  4039b2:	48 8b 45 80          	mov    -0x80(%rbp),%rax
  4039b6:	48 89 45 b0          	mov    %rax,-0x50(%rbp)
  4039ba:	48 8d 75 b0          	lea    -0x50(%rbp),%rsi
  4039be:	48 8b 7d a0          	mov    -0x60(%rbp),%rdi
  4039c2:	e8 69 04 00 00       	callq  403e30 <_ZN5Eigen6MatrixIdLin1ELin1ELi0ELin1ELin1EEC2INS_9TransposeIS1_EEEERKNS_9EigenBaseIT_EE>
  4039c7:	e9 00 00 00 00       	jmpq   4039cc <_ZN3ETL10CSVtoEigenESt6vectorIS0_INSt7__cxx1112basic_stringIcSt11char_traitsIcESaIcEEESaIS6_EESaIS8_EEii+0x13c>
  4039cc:	48 8d 7d d0          	lea    -0x30(%rbp),%rdi
  4039d0:	e8 9b 04 00 00       	callq  403e70 <_ZN5Eigen6MatrixIdLin1ELin1ELi0ELin1ELin1EED2Ev>
  4039d5:	48 8b 45 98          	mov    -0x68(%rbp),%rax
  4039d9:	48 81 c4 80 00 00 00 	add    $0x80,%rsp
  4039e0:	5d                   	pop    %rbp
  4039e1:	c3                   	retq   
  4039e2:	48 8b 7d c0          	mov    -0x40(%rbp),%rdi
  4039e6:	e8 f5 f9 ff ff       	callq  4033e0 <_Unwind_Resume@plt>
  4039eb:	0f 1f 44 00 00       	nopl   0x0(%rax,%rax,1)

00000000004039f0 <_ZNSt6vectorIS_INSt7__cxx1112basic_stringIcSt11char_traitsIcESaIcEEESaIS5_EESaIS7_EEC2Ev>:
  4039f0:	55                   	push   %rbp
  4039f1:	48 89 e5             	mov    %rsp,%rbp
  4039f4:	48 83 ec 10          	sub    $0x10,%rsp
  4039f8:	48 89 7d f8          	mov    %rdi,-0x8(%rbp)
  4039fc:	48 8b 45 f8          	mov    -0x8(%rbp),%rax
  403a00:	48 89 c7             	mov    %rax,%rdi
  403a03:	e8 88 04 00 00       	callq  403e90 <_ZNSt12_Vector_baseISt6vectorINSt7__cxx1112basic_stringIcSt11char_traitsIcESaIcEEESaIS6_EESaIS8_EEC2Ev>
  403a08:	48 83 c4 10          	add    $0x10,%rsp
  403a0c:	5d                   	pop    %rbp
  403a0d:	c3                   	retq   
  403a0e:	66 90                	xchg   %ax,%ax

0000000000403a10 <_ZNSt6vectorINSt7__cxx1112basic_stringIcSt11char_traitsIcESaIcEEESaIS5_EEC2Ev>:
  403a10:	55                   	push   %rbp
  403a11:	48 89 e5             	mov    %rsp,%rbp
  403a14:	48 83 ec 10          	sub    $0x10,%rsp
  403a18:	48 89 7d f8          	mov    %rdi,-0x8(%rbp)
  403a1c:	48 8b 45 f8          	mov    -0x8(%rbp),%rax
  403a20:	48 89 c7             	mov    %rax,%rdi
  403a23:	e8 28 05 00 00       	callq  403f50 <_ZNSt12_Vector_baseINSt7__cxx1112basic_stringIcSt11char_traitsIcESaIcEEESaIS5_EEC2Ev>
  403a28:	48 83 c4 10          	add    $0x10,%rsp
  403a2c:	5d                   	pop    %rbp
  403a2d:	c3                   	retq   
  403a2e:	66 90                	xchg   %ax,%ax

0000000000403a30 <_ZN5boost9algorithm5splitISt6vectorINSt7__cxx1112basic_stringIcSt11char_traitsIcESaIcEEESaIS8_EERS8_NS0_6detail10is_any_ofFIcEEEERT_SG_OT0_T1_NS0_24token_compress_mode_typeE>:
  403a30:	55                   	push   %rbp
  403a31:	48 89 e5             	mov    %rsp,%rbp
  403a34:	48 81 ec 80 00 00 00 	sub    $0x80,%rsp
  403a3b:	48 89 7d f8          	mov    %rdi,-0x8(%rbp)
  403a3f:	48 89 75 f0          	mov    %rsi,-0x10(%rbp)
  403a43:	89 4d ec             	mov    %ecx,-0x14(%rbp)
  403a46:	48 8b 7d f8          	mov    -0x8(%rbp),%rdi
  403a4a:	48 8b 75 f0          	mov    -0x10(%rbp),%rsi
  403a4e:	48 8d 45 b0          	lea    -0x50(%rbp),%rax
  403a52:	48 89 7d 98          	mov    %rdi,-0x68(%rbp)
  403a56:	48 89 c7             	mov    %rax,%rdi
  403a59:	48 89 75 90          	mov    %rsi,-0x70(%rbp)
  403a5d:	48 89 d6             	mov    %rdx,%rsi
  403a60:	48 89 45 88          	mov    %rax,-0x78(%rbp)
  403a64:	e8 97 23 00 00       	callq  405e00 <_ZN5boost9algorithm6detail10is_any_ofFIcEC2ERKS3_>
  403a69:	8b 55 ec             	mov    -0x14(%rbp),%edx
  403a6c:	48 8d 7d c8          	lea    -0x38(%rbp),%rdi
  403a70:	48 8b 75 88          	mov    -0x78(%rbp),%rsi
  403a74:	e8 17 23 00 00       	callq  405d90 <_ZN5boost9algorithm12token_finderINS0_6detail10is_any_ofFIcEEEENS2_13token_finderFIT_EES6_NS0_24token_compress_mode_typeE>
  403a79:	e9 00 00 00 00       	jmpq   403a7e <_ZN5boost9algorithm5splitISt6vectorINSt7__cxx1112basic_stringIcSt11char_traitsIcESaIcEEESaIS8_EERS8_NS0_6detail10is_any_ofFIcEEEERT_SG_OT0_T1_NS0_24token_compress_mode_typeE+0x4e>
  403a7e:	48 8d 55 c8          	lea    -0x38(%rbp),%rdx
  403a82:	48 8b 7d 98          	mov    -0x68(%rbp),%rdi
  403a86:	48 8b 75 90          	mov    -0x70(%rbp),%rsi
  403a8a:	e8 41 20 00 00       	callq  405ad0 <_ZN5boost9algorithm10iter_splitISt6vectorINSt7__cxx1112basic_stringIcSt11char_traitsIcESaIcEEESaIS8_EERS8_NS0_6detail13token_finderFINSC_10is_any_ofFIcEEEEEERT_SI_OT0_T1_>
  403a8f:	48 89 45 80          	mov    %rax,-0x80(%rbp)
  403a93:	e9 00 00 00 00       	jmpq   403a98 <_ZN5boost9algorithm5splitISt6vectorINSt7__cxx1112basic_stringIcSt11char_traitsIcESaIcEEESaIS8_EERS8_NS0_6detail10is_any_ofFIcEEEERT_SG_OT0_T1_NS0_24token_compress_mode_typeE+0x68>
  403a98:	48 8d 7d c8          	lea    -0x38(%rbp),%rdi
  403a9c:	e8 0f 24 00 00       	callq  405eb0 <_ZN5boost9algorithm6detail13token_finderFINS1_10is_any_ofFIcEEED2Ev>
  403aa1:	48 8d 7d b0          	lea    -0x50(%rbp),%rdi
  403aa5:	e8 96 00 00 00       	callq  403b40 <_ZN5boost9algorithm6detail10is_any_ofFIcED2Ev>
  403aaa:	48 8b 45 80          	mov    -0x80(%rbp),%rax
  403aae:	48 81 c4 80 00 00 00 	add    $0x80,%rsp
  403ab5:	5d                   	pop    %rbp
  403ab6:	c3                   	retq   
  403ab7:	48 89 45 a8          	mov    %rax,-0x58(%rbp)
  403abb:	89 55 a4             	mov    %edx,-0x5c(%rbp)
  403abe:	e9 10 00 00 00       	jmpq   403ad3 <_ZN5boost9algorithm5splitISt6vectorINSt7__cxx1112basic_stringIcSt11char_traitsIcESaIcEEESaIS8_EERS8_NS0_6detail10is_any_ofFIcEEEERT_SG_OT0_T1_NS0_24token_compress_mode_typeE+0xa3>
  403ac3:	48 89 45 a8          	mov    %rax,-0x58(%rbp)
  403ac7:	89 55 a4             	mov    %edx,-0x5c(%rbp)
  403aca:	48 8d 7d c8          	lea    -0x38(%rbp),%rdi
  403ace:	e8 dd 23 00 00       	callq  405eb0 <_ZN5boost9algorithm6detail13token_finderFINS1_10is_any_ofFIcEEED2Ev>
  403ad3:	48 8d 7d b0          	lea    -0x50(%rbp),%rdi
  403ad7:	e8 64 00 00 00       	callq  403b40 <_ZN5boost9algorithm6detail10is_any_ofFIcED2Ev>
  403adc:	48 8b 7d a8          	mov    -0x58(%rbp),%rdi
  403ae0:	e8 fb f8 ff ff       	callq  4033e0 <_Unwind_Resume@plt>
  403ae5:	66 2e 0f 1f 84 00 00 	nopw   %cs:0x0(%rax,%rax,1)
  403aec:	00 00 00 
  403aef:	90                   	nop

0000000000403af0 <_ZN5boost9algorithm9is_any_ofINSt7__cxx1112basic_stringIcSt11char_traitsIcESaIcEEEEENS0_6detail10is_any_ofFINS_11range_valueIT_E4typeEEERKSB_>:
  403af0:	55                   	push   %rbp
  403af1:	48 89 e5             	mov    %rsp,%rbp
  403af4:	48 83 ec 30          	sub    $0x30,%rsp
  403af8:	48 89 f8             	mov    %rdi,%rax
  403afb:	48 89 f9             	mov    %rdi,%rcx
  403afe:	48 89 4d f8          	mov    %rcx,-0x8(%rbp)
  403b02:	48 89 75 f0          	mov    %rsi,-0x10(%rbp)
  403b06:	48 8b 4d f0          	mov    -0x10(%rbp),%rcx
  403b0a:	48 89 7d d8          	mov    %rdi,-0x28(%rbp)
  403b0e:	48 89 cf             	mov    %rcx,%rdi
  403b11:	48 89 45 d0          	mov    %rax,-0x30(%rbp)
  403b15:	e8 16 0a 00 00       	callq  404530 <_ZN5boost10as_literalINSt7__cxx1112basic_stringIcSt11char_traitsIcESaIcEEEEENS_14iterator_rangeINS_14range_iteratorIKT_vE4typeEEERSA_>
  403b1a:	48 89 45 e0          	mov    %rax,-0x20(%rbp)
  403b1e:	48 89 55 e8          	mov    %rdx,-0x18(%rbp)
  403b22:	48 8b 7d d8          	mov    -0x28(%rbp),%rdi
  403b26:	48 8d 75 e0          	lea    -0x20(%rbp),%rsi
  403b2a:	e8 41 0a 00 00       	callq  404570 <_ZN5boost9algorithm6detail10is_any_ofFIcEC2INS_14iterator_rangeIN9__gnu_cxx17__normal_iteratorIPKcNSt7__cxx1112basic_stringIcSt11char_traitsIcESaIcEEEEEEEEERKT_>
  403b2f:	48 8b 45 d0          	mov    -0x30(%rbp),%rax
  403b33:	48 83 c4 30          	add    $0x30,%rsp
  403b37:	5d                   	pop    %rbp
  403b38:	c3                   	retq   
  403b39:	0f 1f 80 00 00 00 00 	nopl   0x0(%rax)

0000000000403b40 <_ZN5boost9algorithm6detail10is_any_ofFIcED2Ev>:
  403b40:	55                   	push   %rbp
  403b41:	48 89 e5             	mov    %rsp,%rbp
  403b44:	48 83 ec 30          	sub    $0x30,%rsp
  403b48:	48 89 7d f8          	mov    %rdi,-0x8(%rbp)
  403b4c:	48 8b 45 f8          	mov    -0x8(%rbp),%rax
  403b50:	48 8b 78 10          	mov    0x10(%rax),%rdi
  403b54:	48 89 45 f0          	mov    %rax,-0x10(%rbp)
  403b58:	e8 c3 0d 00 00       	callq  404920 <_ZN5boost9algorithm6detail10is_any_ofFIcE17use_fixed_storageEm>
  403b5d:	88 45 ef             	mov    %al,-0x11(%rbp)
  403b60:	e9 00 00 00 00       	jmpq   403b65 <_ZN5boost9algorithm6detail10is_any_ofFIcED2Ev+0x25>
  403b65:	8a 45 ef             	mov    -0x11(%rbp),%al
  403b68:	a8 01                	test   $0x1,%al
  403b6a:	0f 85 36 00 00 00    	jne    403ba6 <_ZN5boost9algorithm6detail10is_any_ofFIcED2Ev+0x66>
  403b70:	e9 00 00 00 00       	jmpq   403b75 <_ZN5boost9algorithm6detail10is_any_ofFIcED2Ev+0x35>
  403b75:	48 8b 45 f0          	mov    -0x10(%rbp),%rax
  403b79:	48 83 38 00          	cmpq   $0x0,(%rax)
  403b7d:	0f 84 23 00 00 00    	je     403ba6 <_ZN5boost9algorithm6detail10is_any_ofFIcED2Ev+0x66>
  403b83:	48 8b 45 f0          	mov    -0x10(%rbp),%rax
  403b87:	48 8b 08             	mov    (%rax),%rcx
  403b8a:	48 83 f9 00          	cmp    $0x0,%rcx
  403b8e:	48 89 4d e0          	mov    %rcx,-0x20(%rbp)
  403b92:	0f 84 09 00 00 00    	je     403ba1 <_ZN5boost9algorithm6detail10is_any_ofFIcED2Ev+0x61>
  403b98:	48 8b 7d e0          	mov    -0x20(%rbp),%rdi
  403b9c:	e8 5f f7 ff ff       	callq  403300 <_ZdaPv@plt>
  403ba1:	e9 00 00 00 00       	jmpq   403ba6 <_ZN5boost9algorithm6detail10is_any_ofFIcED2Ev+0x66>
  403ba6:	48 83 c4 30          	add    $0x30,%rsp
  403baa:	5d                   	pop    %rbp
  403bab:	c3                   	retq   
  403bac:	48 89 c7             	mov    %rax,%rdi
  403baf:	89 55 dc             	mov    %edx,-0x24(%rbp)
  403bb2:	e8 99 04 00 00       	callq  404050 <__clang_call_terminate>
  403bb7:	66 0f 1f 84 00 00 00 	nopw   0x0(%rax,%rax,1)
  403bbe:	00 00 

0000000000403bc0 <_ZNSt6vectorIS_INSt7__cxx1112basic_stringIcSt11char_traitsIcESaIcEEESaIS5_EESaIS7_EE9push_backERKS7_>:
  403bc0:	55                   	push   %rbp
  403bc1:	48 89 e5             	mov    %rsp,%rbp
  403bc4:	48 83 ec 20          	sub    $0x20,%rsp
  403bc8:	48 89 7d f8          	mov    %rdi,-0x8(%rbp)
  403bcc:	48 89 75 f0          	mov    %rsi,-0x10(%rbp)
  403bd0:	48 8b 45 f8          	mov    -0x8(%rbp),%rax
  403bd4:	48 8b 48 08          	mov    0x8(%rax),%rcx
  403bd8:	48 3b 48 10          	cmp    0x10(%rax),%rcx
  403bdc:	48 89 45 e0          	mov    %rax,-0x20(%rbp)
  403be0:	0f 84 30 00 00 00    	je     403c16 <_ZNSt6vectorIS_INSt7__cxx1112basic_stringIcSt11char_traitsIcESaIcEEESaIS5_EESaIS7_EE9push_backERKS7_+0x56>
  403be6:	48 8b 45 e0          	mov    -0x20(%rbp),%rax
  403bea:	48 8b 4d e0          	mov    -0x20(%rbp),%rcx
  403bee:	48 8b 71 08          	mov    0x8(%rcx),%rsi
  403bf2:	48 8b 55 f0          	mov    -0x10(%rbp),%rdx
  403bf6:	48 89 c7             	mov    %rax,%rdi
  403bf9:	e8 d2 68 00 00       	callq  40a4d0 <_ZNSt16allocator_traitsISaISt6vectorINSt7__cxx1112basic_stringIcSt11char_traitsIcESaIcEEESaIS6_EEEE9constructIS8_JRKS8_EEEvRS9_PT_DpOT0_>
  403bfe:	48 8b 45 e0          	mov    -0x20(%rbp),%rax
  403c02:	48 8b 48 08          	mov    0x8(%rax),%rcx
  403c06:	48 81 c1 18 00 00 00 	add    $0x18,%rcx
  403c0d:	48 89 48 08          	mov    %rcx,0x8(%rax)
  403c11:	e9 1e 00 00 00       	jmpq   403c34 <_ZNSt6vectorIS_INSt7__cxx1112basic_stringIcSt11char_traitsIcESaIcEEESaIS5_EESaIS7_EE9push_backERKS7_+0x74>
  403c16:	48 8b 7d e0          	mov    -0x20(%rbp),%rdi
  403c1a:	e8 b1 6b 00 00       	callq  40a7d0 <_ZNSt6vectorIS_INSt7__cxx1112basic_stringIcSt11char_traitsIcESaIcEEESaIS5_EESaIS7_EE3endEv>
  403c1f:	48 89 45 e8          	mov    %rax,-0x18(%rbp)
  403c23:	48 8b 55 f0          	mov    -0x10(%rbp),%rdx
  403c27:	48 8b 75 e8          	mov    -0x18(%rbp),%rsi
  403c2b:	48 8b 7d e0          	mov    -0x20(%rbp),%rdi
  403c2f:	e8 ec 68 00 00       	callq  40a520 <_ZNSt6vectorIS_INSt7__cxx1112basic_stringIcSt11char_traitsIcESaIcEEESaIS5_EESaIS7_EE17_M_realloc_insertIJRKS7_EEEvN9__gnu_cxx17__normal_iteratorIPS7_S9_EEDpOT_>
  403c34:	48 83 c4 20          	add    $0x20,%rsp
  403c38:	5d                   	pop    %rbp
  403c39:	c3                   	retq   
  403c3a:	66 0f 1f 44 00 00    	nopw   0x0(%rax,%rax,1)

0000000000403c40 <_ZNSt6vectorINSt7__cxx1112basic_stringIcSt11char_traitsIcESaIcEEESaIS5_EED2Ev>:
  403c40:	55                   	push   %rbp
  403c41:	48 89 e5             	mov    %rsp,%rbp
  403c44:	48 83 ec 30          	sub    $0x30,%rsp
  403c48:	48 89 7d f8          	mov    %rdi,-0x8(%rbp)
  403c4c:	48 8b 45 f8          	mov    -0x8(%rbp),%rax
  403c50:	48 8b 38             	mov    (%rax),%rdi
  403c53:	48 8b 70 08          	mov    0x8(%rax),%rsi
  403c57:	48 89 7d e0          	mov    %rdi,-0x20(%rbp)
  403c5b:	48 89 c7             	mov    %rax,%rdi
  403c5e:	48 89 45 d8          	mov    %rax,-0x28(%rbp)
  403c62:	48 89 75 d0          	mov    %rsi,-0x30(%rbp)
  403c66:	e8 c5 06 00 00       	callq  404330 <_ZNSt12_Vector_baseINSt7__cxx1112basic_stringIcSt11char_traitsIcESaIcEEESaIS5_EE19_M_get_Tp_allocatorEv>
  403c6b:	48 8b 7d e0          	mov    -0x20(%rbp),%rdi
  403c6f:	48 8b 75 d0          	mov    -0x30(%rbp),%rsi
  403c73:	48 89 c2             	mov    %rax,%rdx
  403c76:	e8 85 06 00 00       	callq  404300 <_ZSt8_DestroyIPNSt7__cxx1112basic_stringIcSt11char_traitsIcESaIcEEES5_EvT_S7_RSaIT0_E>
  403c7b:	e9 00 00 00 00       	jmpq   403c80 <_ZNSt6vectorINSt7__cxx1112basic_stringIcSt11char_traitsIcESaIcEEESaIS5_EED2Ev+0x40>
  403c80:	48 8b 45 d8          	mov    -0x28(%rbp),%rax
  403c84:	48 89 c7             	mov    %rax,%rdi
  403c87:	e8 b4 06 00 00       	callq  404340 <_ZNSt12_Vector_baseINSt7__cxx1112basic_stringIcSt11char_traitsIcESaIcEEESaIS5_EED2Ev>
  403c8c:	48 83 c4 30          	add    $0x30,%rsp
  403c90:	5d                   	pop    %rbp
  403c91:	c3                   	retq   
  403c92:	48 89 45 f0          	mov    %rax,-0x10(%rbp)
  403c96:	89 55 ec             	mov    %edx,-0x14(%rbp)
  403c99:	48 8b 45 d8          	mov    -0x28(%rbp),%rax
  403c9d:	48 89 c7             	mov    %rax,%rdi
  403ca0:	e8 9b 06 00 00       	callq  404340 <_ZNSt12_Vector_baseINSt7__cxx1112basic_stringIcSt11char_traitsIcESaIcEEESaIS5_EED2Ev>
  403ca5:	48 8b 7d f0          	mov    -0x10(%rbp),%rdi
  403ca9:	e8 a2 03 00 00       	callq  404050 <__clang_call_terminate>
  403cae:	66 90                	xchg   %ax,%ax

0000000000403cb0 <_ZNSt6vectorIS_INSt7__cxx1112basic_stringIcSt11char_traitsIcESaIcEEESaIS5_EESaIS7_EED2Ev>:
  403cb0:	55                   	push   %rbp
  403cb1:	48 89 e5             	mov    %rsp,%rbp
  403cb4:	48 83 ec 30          	sub    $0x30,%rsp
  403cb8:	48 89 7d f8          	mov    %rdi,-0x8(%rbp)
  403cbc:	48 8b 45 f8          	mov    -0x8(%rbp),%rax
  403cc0:	48 8b 38             	mov    (%rax),%rdi
  403cc3:	48 8b 70 08          	mov    0x8(%rax),%rsi
  403cc7:	48 89 7d e0          	mov    %rdi,-0x20(%rbp)
  403ccb:	48 89 c7             	mov    %rax,%rdi
  403cce:	48 89 45 d8          	mov    %rax,-0x28(%rbp)
  403cd2:	48 89 75 d0          	mov    %rsi,-0x30(%rbp)
  403cd6:	e8 f5 03 00 00       	callq  4040d0 <_ZNSt12_Vector_baseISt6vectorINSt7__cxx1112basic_stringIcSt11char_traitsIcESaIcEEESaIS6_EESaIS8_EE19_M_get_Tp_allocatorEv>
  403cdb:	48 8b 7d e0          	mov    -0x20(%rbp),%rdi
  403cdf:	48 8b 75 d0          	mov    -0x30(%rbp),%rsi
  403ce3:	48 89 c2             	mov    %rax,%rdx
  403ce6:	e8 b5 03 00 00       	callq  4040a0 <_ZSt8_DestroyIPSt6vectorINSt7__cxx1112basic_stringIcSt11char_traitsIcESaIcEEESaIS6_EES8_EvT_SA_RSaIT0_E>
  403ceb:	e9 00 00 00 00       	jmpq   403cf0 <_ZNSt6vectorIS_INSt7__cxx1112basic_stringIcSt11char_traitsIcESaIcEEESaIS5_EESaIS7_EED2Ev+0x40>
  403cf0:	48 8b 45 d8          	mov    -0x28(%rbp),%rax
  403cf4:	48 89 c7             	mov    %rax,%rdi
  403cf7:	e8 e4 03 00 00       	callq  4040e0 <_ZNSt12_Vector_baseISt6vectorINSt7__cxx1112basic_stringIcSt11char_traitsIcESaIcEEESaIS6_EESaIS8_EED2Ev>
  403cfc:	48 83 c4 30          	add    $0x30,%rsp
  403d00:	5d                   	pop    %rbp
  403d01:	c3                   	retq   
  403d02:	48 89 45 f0          	mov    %rax,-0x10(%rbp)
  403d06:	89 55 ec             	mov    %edx,-0x14(%rbp)
  403d09:	48 8b 45 d8          	mov    -0x28(%rbp),%rax
  403d0d:	48 89 c7             	mov    %rax,%rdi
  403d10:	e8 cb 03 00 00       	callq  4040e0 <_ZNSt12_Vector_baseISt6vectorINSt7__cxx1112basic_stringIcSt11char_traitsIcESaIcEEESaIS6_EESaIS8_EED2Ev>
  403d15:	48 8b 7d f0          	mov    -0x10(%rbp),%rdi
  403d19:	e8 32 03 00 00       	callq  404050 <__clang_call_terminate>
  403d1e:	66 90                	xchg   %ax,%ax

0000000000403d20 <_ZN5Eigen6MatrixIdLin1ELin1ELi0ELin1ELin1EEC2IiiEERKT_RKT0_>:
  403d20:	55                   	push   %rbp
  403d21:	48 89 e5             	mov    %rsp,%rbp
  403d24:	48 83 ec 30          	sub    $0x30,%rsp
  403d28:	48 89 7d f8          	mov    %rdi,-0x8(%rbp)
  403d2c:	48 89 75 f0          	mov    %rsi,-0x10(%rbp)
  403d30:	48 89 55 e8          	mov    %rdx,-0x18(%rbp)
  403d34:	48 8b 45 f8          	mov    -0x8(%rbp),%rax
  403d38:	48 89 c7             	mov    %rax,%rdi
  403d3b:	48 89 45 d0          	mov    %rax,-0x30(%rbp)
  403d3f:	e8 9c 77 00 00       	callq  40b4e0 <_ZN5Eigen15PlainObjectBaseINS_6MatrixIdLin1ELin1ELi0ELin1ELin1EEEEC2Ev>
  403d44:	e8 c7 77 00 00       	callq  40b510 <_ZN5Eigen15PlainObjectBaseINS_6MatrixIdLin1ELin1ELi0ELin1ELin1EEEE22_check_template_paramsEv>
  403d49:	e9 00 00 00 00       	jmpq   403d4e <_ZN5Eigen6MatrixIdLin1ELin1ELi0ELin1ELin1EEC2IiiEERKT_RKT0_+0x2e>
  403d4e:	48 8b 45 f0          	mov    -0x10(%rbp),%rax
  403d52:	48 63 30             	movslq (%rax),%rsi
  403d55:	48 8b 45 e8          	mov    -0x18(%rbp),%rax
  403d59:	48 63 10             	movslq (%rax),%rdx
  403d5c:	31 c9                	xor    %ecx,%ecx
  403d5e:	48 8b 7d d0          	mov    -0x30(%rbp),%rdi
  403d62:	e8 b9 77 00 00       	callq  40b520 <_ZN5Eigen15PlainObjectBaseINS_6MatrixIdLin1ELin1ELi0ELin1ELin1EEEE6_init2IiiEEvllPNS_8internal9enable_ifILb1ET_E4typeE>
  403d67:	e9 00 00 00 00       	jmpq   403d6c <_ZN5Eigen6MatrixIdLin1ELin1ELi0ELin1ELin1EEC2IiiEERKT_RKT0_+0x4c>
  403d6c:	48 83 c4 30          	add    $0x30,%rsp
  403d70:	5d                   	pop    %rbp
  403d71:	c3                   	retq   
  403d72:	48 89 45 e0          	mov    %rax,-0x20(%rbp)
  403d76:	89 55 dc             	mov    %edx,-0x24(%rbp)
  403d79:	48 8b 45 d0          	mov    -0x30(%rbp),%rax
  403d7d:	48 89 c7             	mov    %rax,%rdi
  403d80:	e8 3b 02 00 00       	callq  403fc0 <_ZN5Eigen15PlainObjectBaseINS_6MatrixIdLin1ELin1ELi0ELin1ELin1EEEED2Ev>
  403d85:	48 8b 7d e0          	mov    -0x20(%rbp),%rdi
  403d89:	e8 52 f6 ff ff       	callq  4033e0 <_Unwind_Resume@plt>
  403d8e:	66 90                	xchg   %ax,%ax

0000000000403d90 <_ZNSt6vectorIS_INSt7__cxx1112basic_stringIcSt11char_traitsIcESaIcEEESaIS5_EESaIS7_EEixEm>:
  403d90:	55                   	push   %rbp
  403d91:	48 89 e5             	mov    %rsp,%rbp
  403d94:	48 89 7d f8          	mov    %rdi,-0x8(%rbp)
  403d98:	48 89 75 f0          	mov    %rsi,-0x10(%rbp)
  403d9c:	48 8b 45 f8          	mov    -0x8(%rbp),%rax
  403da0:	48 8b 00             	mov    (%rax),%rax
  403da3:	48 69 4d f0 18 00 00 	imul   $0x18,-0x10(%rbp),%rcx
  403daa:	00 
  403dab:	48 01 c8             	add    %rcx,%rax
  403dae:	5d                   	pop    %rbp
  403daf:	c3                   	retq   

0000000000403db0 <_ZNSt6vectorINSt7__cxx1112basic_stringIcSt11char_traitsIcESaIcEEESaIS5_EEixEm>:
  403db0:	55                   	push   %rbp
  403db1:	48 89 e5             	mov    %rsp,%rbp
  403db4:	48 89 7d f8          	mov    %rdi,-0x8(%rbp)
  403db8:	48 89 75 f0          	mov    %rsi,-0x10(%rbp)
  403dbc:	48 8b 45 f8          	mov    -0x8(%rbp),%rax
  403dc0:	48 8b 00             	mov    (%rax),%rax
  403dc3:	48 8b 4d f0          	mov    -0x10(%rbp),%rcx
  403dc7:	48 c1 e1 05          	shl    $0x5,%rcx
  403dcb:	48 01 c8             	add    %rcx,%rax
  403dce:	5d                   	pop    %rbp
  403dcf:	c3                   	retq   

0000000000403dd0 <_ZN5Eigen15DenseCoeffsBaseINS_6MatrixIdLin1ELin1ELi0ELin1ELin1EEELi1EEclEll>:
  403dd0:	55                   	push   %rbp
  403dd1:	48 89 e5             	mov    %rsp,%rbp
  403dd4:	48 83 ec 20          	sub    $0x20,%rsp
  403dd8:	48 89 7d f8          	mov    %rdi,-0x8(%rbp)
  403ddc:	48 89 75 f0          	mov    %rsi,-0x10(%rbp)
  403de0:	48 89 55 e8          	mov    %rdx,-0x18(%rbp)
  403de4:	48 8b 7d f8          	mov    -0x8(%rbp),%rdi
  403de8:	48 8b 75 f0          	mov    -0x10(%rbp),%rsi
  403dec:	48 8b 55 e8          	mov    -0x18(%rbp),%rdx
  403df0:	e8 db 7a 00 00       	callq  40b8d0 <_ZN5Eigen15DenseCoeffsBaseINS_6MatrixIdLin1ELin1ELi0ELin1ELin1EEELi1EE8coeffRefEll>
  403df5:	48 83 c4 20          	add    $0x20,%rsp
  403df9:	5d                   	pop    %rbp
  403dfa:	c3                   	retq   
  403dfb:	0f 1f 44 00 00       	nopl   0x0(%rax,%rax,1)

0000000000403e00 <_ZN5Eigen9DenseBaseINS_6MatrixIdLin1ELin1ELi0ELin1ELin1EEEE9transposeEv>:
  403e00:	55                   	push   %rbp
  403e01:	48 89 e5             	mov    %rsp,%rbp
  403e04:	48 83 ec 10          	sub    $0x10,%rsp
  403e08:	48 89 7d f0          	mov    %rdi,-0x10(%rbp)
  403e0c:	48 8b 45 f0          	mov    -0x10(%rbp),%rax
  403e10:	48 89 c7             	mov    %rax,%rdi
  403e13:	e8 38 7b 00 00       	callq  40b950 <_ZN5Eigen9EigenBaseINS_6MatrixIdLin1ELin1ELi0ELin1ELin1EEEE7derivedEv>
  403e18:	48 8d 7d f8          	lea    -0x8(%rbp),%rdi
  403e1c:	48 89 c6             	mov    %rax,%rsi
  403e1f:	e8 7c 7e 00 00       	callq  40bca0 <_ZN5Eigen9TransposeINS_6MatrixIdLin1ELin1ELi0ELin1ELin1EEEEC2ERS2_>
  403e24:	48 8b 45 f8          	mov    -0x8(%rbp),%rax
  403e28:	48 83 c4 10          	add    $0x10,%rsp
  403e2c:	5d                   	pop    %rbp
  403e2d:	c3                   	retq   
  403e2e:	66 90                	xchg   %ax,%ax

0000000000403e30 <_ZN5Eigen6MatrixIdLin1ELin1ELi0ELin1ELin1EEC2INS_9TransposeIS1_EEEERKNS_9EigenBaseIT_EE>:
  403e30:	55                   	push   %rbp
  403e31:	48 89 e5             	mov    %rsp,%rbp
  403e34:	48 83 ec 20          	sub    $0x20,%rsp
  403e38:	48 89 7d f8          	mov    %rdi,-0x8(%rbp)
  403e3c:	48 89 75 f0          	mov    %rsi,-0x10(%rbp)
  403e40:	48 8b 45 f8          	mov    -0x8(%rbp),%rax
  403e44:	48 8b 7d f0          	mov    -0x10(%rbp),%rdi
  403e48:	48 89 45 e8          	mov    %rax,-0x18(%rbp)
  403e4c:	e8 df 7e 00 00       	callq  40bd30 <_ZNK5Eigen9EigenBaseINS_9TransposeINS_6MatrixIdLin1ELin1ELi0ELin1ELin1EEEEEE7derivedEv>
  403e51:	48 8b 7d e8          	mov    -0x18(%rbp),%rdi
  403e55:	48 89 c6             	mov    %rax,%rsi
  403e58:	e8 e3 7e 00 00       	callq  40bd40 <_ZN5Eigen15PlainObjectBaseINS_6MatrixIdLin1ELin1ELi0ELin1ELin1EEEEC2INS_9TransposeIS2_EEEERKNS_9DenseBaseIT_EE>
  403e5d:	48 83 c4 20          	add    $0x20,%rsp
  403e61:	5d                   	pop    %rbp
  403e62:	c3                   	retq   
  403e63:	66 2e 0f 1f 84 00 00 	nopw   %cs:0x0(%rax,%rax,1)
  403e6a:	00 00 00 
  403e6d:	0f 1f 00             	nopl   (%rax)

0000000000403e70 <_ZN5Eigen6MatrixIdLin1ELin1ELi0ELin1ELin1EED2Ev>:
  403e70:	55                   	push   %rbp
  403e71:	48 89 e5             	mov    %rsp,%rbp
  403e74:	48 83 ec 10          	sub    $0x10,%rsp
  403e78:	48 89 7d f8          	mov    %rdi,-0x8(%rbp)
  403e7c:	48 8b 45 f8          	mov    -0x8(%rbp),%rax
  403e80:	48 89 c7             	mov    %rax,%rdi
  403e83:	e8 38 01 00 00       	callq  403fc0 <_ZN5Eigen15PlainObjectBaseINS_6MatrixIdLin1ELin1ELi0ELin1ELin1EEEED2Ev>
  403e88:	48 83 c4 10          	add    $0x10,%rsp
  403e8c:	5d                   	pop    %rbp
  403e8d:	c3                   	retq   
  403e8e:	66 90                	xchg   %ax,%ax

0000000000403e90 <_ZNSt12_Vector_baseISt6vectorINSt7__cxx1112basic_stringIcSt11char_traitsIcESaIcEEESaIS6_EESaIS8_EEC2Ev>:
  403e90:	55                   	push   %rbp
  403e91:	48 89 e5             	mov    %rsp,%rbp
  403e94:	48 83 ec 10          	sub    $0x10,%rsp
  403e98:	48 89 7d f8          	mov    %rdi,-0x8(%rbp)
  403e9c:	48 8b 7d f8          	mov    -0x8(%rbp),%rdi
  403ea0:	e8 0b 00 00 00       	callq  403eb0 <_ZNSt12_Vector_baseISt6vectorINSt7__cxx1112basic_stringIcSt11char_traitsIcESaIcEEESaIS6_EESaIS8_EE12_Vector_implC2Ev>
  403ea5:	48 83 c4 10          	add    $0x10,%rsp
  403ea9:	5d                   	pop    %rbp
  403eaa:	c3                   	retq   
  403eab:	0f 1f 44 00 00       	nopl   0x0(%rax,%rax,1)

0000000000403eb0 <_ZNSt12_Vector_baseISt6vectorINSt7__cxx1112basic_stringIcSt11char_traitsIcESaIcEEESaIS6_EESaIS8_EE12_Vector_implC2Ev>:
  403eb0:	55                   	push   %rbp
  403eb1:	48 89 e5             	mov    %rsp,%rbp
  403eb4:	48 83 ec 10          	sub    $0x10,%rsp
  403eb8:	48 89 7d f8          	mov    %rdi,-0x8(%rbp)
  403ebc:	48 8b 45 f8          	mov    -0x8(%rbp),%rax
  403ec0:	48 89 c1             	mov    %rax,%rcx
  403ec3:	48 89 cf             	mov    %rcx,%rdi
  403ec6:	48 89 45 f0          	mov    %rax,-0x10(%rbp)
  403eca:	e8 21 00 00 00       	callq  403ef0 <_ZNSaISt6vectorINSt7__cxx1112basic_stringIcSt11char_traitsIcESaIcEEESaIS5_EEEC2Ev>
  403ecf:	48 8b 45 f0          	mov    -0x10(%rbp),%rax
  403ed3:	48 89 c7             	mov    %rax,%rdi
  403ed6:	e8 35 00 00 00       	callq  403f10 <_ZNSt12_Vector_baseISt6vectorINSt7__cxx1112basic_stringIcSt11char_traitsIcESaIcEEESaIS6_EESaIS8_EE17_Vector_impl_dataC2Ev>
  403edb:	48 83 c4 10          	add    $0x10,%rsp
  403edf:	5d                   	pop    %rbp
  403ee0:	c3                   	retq   
  403ee1:	66 2e 0f 1f 84 00 00 	nopw   %cs:0x0(%rax,%rax,1)
  403ee8:	00 00 00 
  403eeb:	0f 1f 44 00 00       	nopl   0x0(%rax,%rax,1)

0000000000403ef0 <_ZNSaISt6vectorINSt7__cxx1112basic_stringIcSt11char_traitsIcESaIcEEESaIS5_EEEC2Ev>:
  403ef0:	55                   	push   %rbp
  403ef1:	48 89 e5             	mov    %rsp,%rbp
  403ef4:	48 83 ec 10          	sub    $0x10,%rsp
  403ef8:	48 89 7d f8          	mov    %rdi,-0x8(%rbp)
  403efc:	48 8b 45 f8          	mov    -0x8(%rbp),%rax
  403f00:	48 89 c7             	mov    %rax,%rdi
  403f03:	e8 38 00 00 00       	callq  403f40 <_ZN9__gnu_cxx13new_allocatorISt6vectorINSt7__cxx1112basic_stringIcSt11char_traitsIcESaIcEEESaIS7_EEEC2Ev>
  403f08:	48 83 c4 10          	add    $0x10,%rsp
  403f0c:	5d                   	pop    %rbp
  403f0d:	c3                   	retq   
  403f0e:	66 90                	xchg   %ax,%ax

0000000000403f10 <_ZNSt12_Vector_baseISt6vectorINSt7__cxx1112basic_stringIcSt11char_traitsIcESaIcEEESaIS6_EESaIS8_EE17_Vector_impl_dataC2Ev>:
  403f10:	55                   	push   %rbp
  403f11:	48 89 e5             	mov    %rsp,%rbp
  403f14:	48 89 7d f8          	mov    %rdi,-0x8(%rbp)
  403f18:	48 8b 45 f8          	mov    -0x8(%rbp),%rax
  403f1c:	48 c7 00 00 00 00 00 	movq   $0x0,(%rax)
  403f23:	48 c7 40 08 00 00 00 	movq   $0x0,0x8(%rax)
  403f2a:	00 
  403f2b:	48 c7 40 10 00 00 00 	movq   $0x0,0x10(%rax)
  403f32:	00 
  403f33:	5d                   	pop    %rbp
  403f34:	c3                   	retq   
  403f35:	66 2e 0f 1f 84 00 00 	nopw   %cs:0x0(%rax,%rax,1)
  403f3c:	00 00 00 
  403f3f:	90                   	nop

0000000000403f40 <_ZN9__gnu_cxx13new_allocatorISt6vectorINSt7__cxx1112basic_stringIcSt11char_traitsIcESaIcEEESaIS7_EEEC2Ev>:
  403f40:	55                   	push   %rbp
  403f41:	48 89 e5             	mov    %rsp,%rbp
  403f44:	48 89 7d f8          	mov    %rdi,-0x8(%rbp)
  403f48:	5d                   	pop    %rbp
  403f49:	c3                   	retq   
  403f4a:	66 0f 1f 44 00 00    	nopw   0x0(%rax,%rax,1)

0000000000403f50 <_ZNSt12_Vector_baseINSt7__cxx1112basic_stringIcSt11char_traitsIcESaIcEEESaIS5_EEC2Ev>:
  403f50:	55                   	push   %rbp
  403f51:	48 89 e5             	mov    %rsp,%rbp
  403f54:	48 83 ec 10          	sub    $0x10,%rsp
  403f58:	48 89 7d f8          	mov    %rdi,-0x8(%rbp)
  403f5c:	48 8b 7d f8          	mov    -0x8(%rbp),%rdi
  403f60:	e8 0b 00 00 00       	callq  403f70 <_ZNSt12_Vector_baseINSt7__cxx1112basic_stringIcSt11char_traitsIcESaIcEEESaIS5_EE12_Vector_implC2Ev>
  403f65:	48 83 c4 10          	add    $0x10,%rsp
  403f69:	5d                   	pop    %rbp
  403f6a:	c3                   	retq   
  403f6b:	0f 1f 44 00 00       	nopl   0x0(%rax,%rax,1)

0000000000403f70 <_ZNSt12_Vector_baseINSt7__cxx1112basic_stringIcSt11char_traitsIcESaIcEEESaIS5_EE12_Vector_implC2Ev>:
  403f70:	55                   	push   %rbp
  403f71:	48 89 e5             	mov    %rsp,%rbp
  403f74:	48 83 ec 10          	sub    $0x10,%rsp
  403f78:	48 89 7d f8          	mov    %rdi,-0x8(%rbp)
  403f7c:	48 8b 45 f8          	mov    -0x8(%rbp),%rax
  403f80:	48 89 c1             	mov    %rax,%rcx
  403f83:	48 89 cf             	mov    %rcx,%rdi
  403f86:	48 89 45 f0          	mov    %rax,-0x10(%rbp)
  403f8a:	e8 21 22 00 00       	callq  4061b0 <_ZNSaINSt7__cxx1112basic_stringIcSt11char_traitsIcESaIcEEEEC2Ev>
  403f8f:	48 8b 45 f0          	mov    -0x10(%rbp),%rax
  403f93:	48 89 c7             	mov    %rax,%rdi
  403f96:	e8 55 64 00 00       	callq  40a3f0 <_ZNSt12_Vector_baseINSt7__cxx1112basic_stringIcSt11char_traitsIcESaIcEEESaIS5_EE17_Vector_impl_dataC2Ev>
  403f9b:	48 83 c4 10          	add    $0x10,%rsp
  403f9f:	5d                   	pop    %rbp
  403fa0:	c3                   	retq   
  403fa1:	66 2e 0f 1f 84 00 00 	nopw   %cs:0x0(%rax,%rax,1)
  403fa8:	00 00 00 
  403fab:	0f 1f 44 00 00       	nopl   0x0(%rax,%rax,1)

0000000000403fb0 <_ZN9__gnu_cxx13new_allocatorINSt7__cxx1112basic_stringIcSt11char_traitsIcESaIcEEEEC2Ev>:
  403fb0:	55                   	push   %rbp
  403fb1:	48 89 e5             	mov    %rsp,%rbp
  403fb4:	48 89 7d f8          	mov    %rdi,-0x8(%rbp)
  403fb8:	5d                   	pop    %rbp
  403fb9:	c3                   	retq   
  403fba:	66 0f 1f 44 00 00    	nopw   0x0(%rax,%rax,1)

0000000000403fc0 <_ZN5Eigen15PlainObjectBaseINS_6MatrixIdLin1ELin1ELi0ELin1ELin1EEEED2Ev>:
  403fc0:	55                   	push   %rbp
  403fc1:	48 89 e5             	mov    %rsp,%rbp
  403fc4:	48 83 ec 10          	sub    $0x10,%rsp
  403fc8:	48 89 7d f8          	mov    %rdi,-0x8(%rbp)
  403fcc:	48 8b 7d f8          	mov    -0x8(%rbp),%rdi
  403fd0:	e8 0b 00 00 00       	callq  403fe0 <_ZN5Eigen12DenseStorageIdLin1ELin1ELin1ELi0EED2Ev>
  403fd5:	48 83 c4 10          	add    $0x10,%rsp
  403fd9:	5d                   	pop    %rbp
  403fda:	c3                   	retq   
  403fdb:	0f 1f 44 00 00       	nopl   0x0(%rax,%rax,1)

0000000000403fe0 <_ZN5Eigen12DenseStorageIdLin1ELin1ELin1ELi0EED2Ev>:
  403fe0:	55                   	push   %rbp
  403fe1:	48 89 e5             	mov    %rsp,%rbp
  403fe4:	48 83 ec 10          	sub    $0x10,%rsp
  403fe8:	48 89 7d f8          	mov    %rdi,-0x8(%rbp)
  403fec:	48 8b 45 f8          	mov    -0x8(%rbp),%rax
  403ff0:	48 8b 38             	mov    (%rax),%rdi
  403ff3:	48 8b 48 08          	mov    0x8(%rax),%rcx
  403ff7:	48 8b 40 10          	mov    0x10(%rax),%rax
  403ffb:	48 0f af c8          	imul   %rax,%rcx
  403fff:	48 89 ce             	mov    %rcx,%rsi
  404002:	e8 19 00 00 00       	callq  404020 <_ZN5Eigen8internal31conditional_aligned_delete_autoIdLb1EEEvPT_m>
  404007:	e9 00 00 00 00       	jmpq   40400c <_ZN5Eigen12DenseStorageIdLin1ELin1ELin1ELi0EED2Ev+0x2c>
  40400c:	48 83 c4 10          	add    $0x10,%rsp
  404010:	5d                   	pop    %rbp
  404011:	c3                   	retq   
  404012:	48 89 c7             	mov    %rax,%rdi
  404015:	89 55 f4             	mov    %edx,-0xc(%rbp)
  404018:	e8 33 00 00 00       	callq  404050 <__clang_call_terminate>
  40401d:	0f 1f 00             	nopl   (%rax)

0000000000404020 <_ZN5Eigen8internal31conditional_aligned_delete_autoIdLb1EEEvPT_m>:
  404020:	55                   	push   %rbp
  404021:	48 89 e5             	mov    %rsp,%rbp
  404024:	48 83 ec 10          	sub    $0x10,%rsp
  404028:	48 89 7d f8          	mov    %rdi,-0x8(%rbp)
  40402c:	48 89 75 f0          	mov    %rsi,-0x10(%rbp)
  404030:	48 8b 45 f8          	mov    -0x8(%rbp),%rax
  404034:	48 89 c7             	mov    %rax,%rdi
  404037:	e8 24 00 00 00       	callq  404060 <_ZN5Eigen8internal24conditional_aligned_freeILb1EEEvPv>
  40403c:	48 83 c4 10          	add    $0x10,%rsp
  404040:	5d                   	pop    %rbp
  404041:	c3                   	retq   
  404042:	66 2e 0f 1f 84 00 00 	nopw   %cs:0x0(%rax,%rax,1)
  404049:	00 00 00 
  40404c:	0f 1f 40 00          	nopl   0x0(%rax)

0000000000404050 <__clang_call_terminate>:
  404050:	50                   	push   %rax
  404051:	e8 4a f0 ff ff       	callq  4030a0 <__cxa_begin_catch@plt>
  404056:	48 89 04 24          	mov    %rax,(%rsp)
  40405a:	e8 21 f0 ff ff       	callq  403080 <_ZSt9terminatev@plt>
  40405f:	90                   	nop

0000000000404060 <_ZN5Eigen8internal24conditional_aligned_freeILb1EEEvPv>:
  404060:	55                   	push   %rbp
  404061:	48 89 e5             	mov    %rsp,%rbp
  404064:	48 83 ec 10          	sub    $0x10,%rsp
  404068:	48 89 7d f8          	mov    %rdi,-0x8(%rbp)
  40406c:	48 8b 7d f8          	mov    -0x8(%rbp),%rdi
  404070:	e8 0b 00 00 00       	callq  404080 <_ZN5Eigen8internal12aligned_freeEPv>
  404075:	48 83 c4 10          	add    $0x10,%rsp
  404079:	5d                   	pop    %rbp
  40407a:	c3                   	retq   
  40407b:	0f 1f 44 00 00       	nopl   0x0(%rax,%rax,1)

0000000000404080 <_ZN5Eigen8internal12aligned_freeEPv>:
  404080:	55                   	push   %rbp
  404081:	48 89 e5             	mov    %rsp,%rbp
  404084:	48 83 ec 10          	sub    $0x10,%rsp
  404088:	48 89 7d f8          	mov    %rdi,-0x8(%rbp)
  40408c:	48 8b 7d f8          	mov    -0x8(%rbp),%rdi
  404090:	e8 2b f2 ff ff       	callq  4032c0 <free@plt>
  404095:	48 83 c4 10          	add    $0x10,%rsp
  404099:	5d                   	pop    %rbp
  40409a:	c3                   	retq   
  40409b:	0f 1f 44 00 00       	nopl   0x0(%rax,%rax,1)

00000000004040a0 <_ZSt8_DestroyIPSt6vectorINSt7__cxx1112basic_stringIcSt11char_traitsIcESaIcEEESaIS6_EES8_EvT_SA_RSaIT0_E>:
  4040a0:	55                   	push   %rbp
  4040a1:	48 89 e5             	mov    %rsp,%rbp
  4040a4:	48 83 ec 20          	sub    $0x20,%rsp
  4040a8:	48 89 7d f8          	mov    %rdi,-0x8(%rbp)
  4040ac:	48 89 75 f0          	mov    %rsi,-0x10(%rbp)
  4040b0:	48 89 55 e8          	mov    %rdx,-0x18(%rbp)
  4040b4:	48 8b 7d f8          	mov    -0x8(%rbp),%rdi
  4040b8:	48 8b 75 f0          	mov    -0x10(%rbp),%rsi
  4040bc:	e8 8f 00 00 00       	callq  404150 <_ZSt8_DestroyIPSt6vectorINSt7__cxx1112basic_stringIcSt11char_traitsIcESaIcEEESaIS6_EEEvT_SA_>
  4040c1:	48 83 c4 20          	add    $0x20,%rsp
  4040c5:	5d                   	pop    %rbp
  4040c6:	c3                   	retq   
  4040c7:	66 0f 1f 84 00 00 00 	nopw   0x0(%rax,%rax,1)
  4040ce:	00 00 

00000000004040d0 <_ZNSt12_Vector_baseISt6vectorINSt7__cxx1112basic_stringIcSt11char_traitsIcESaIcEEESaIS6_EESaIS8_EE19_M_get_Tp_allocatorEv>:
  4040d0:	55                   	push   %rbp
  4040d1:	48 89 e5             	mov    %rsp,%rbp
  4040d4:	48 89 7d f8          	mov    %rdi,-0x8(%rbp)
  4040d8:	48 8b 45 f8          	mov    -0x8(%rbp),%rax
  4040dc:	5d                   	pop    %rbp
  4040dd:	c3                   	retq   
  4040de:	66 90                	xchg   %ax,%ax

00000000004040e0 <_ZNSt12_Vector_baseISt6vectorINSt7__cxx1112basic_stringIcSt11char_traitsIcESaIcEEESaIS6_EESaIS8_EED2Ev>:
  4040e0:	55                   	push   %rbp
  4040e1:	48 89 e5             	mov    %rsp,%rbp
  4040e4:	48 83 ec 20          	sub    $0x20,%rsp
  4040e8:	48 89 7d f8          	mov    %rdi,-0x8(%rbp)
  4040ec:	48 8b 45 f8          	mov    -0x8(%rbp),%rax
  4040f0:	48 8b 08             	mov    (%rax),%rcx
  4040f3:	48 8b 50 10          	mov    0x10(%rax),%rdx
  4040f7:	48 29 ca             	sub    %rcx,%rdx
  4040fa:	48 c1 fa 03          	sar    $0x3,%rdx
  4040fe:	48 be ab aa aa aa aa 	movabs $0xaaaaaaaaaaaaaaab,%rsi
  404105:	aa aa aa 
  404108:	48 0f af d6          	imul   %rsi,%rdx
  40410c:	48 89 c7             	mov    %rax,%rdi
  40410f:	48 89 ce             	mov    %rcx,%rsi
  404112:	48 89 45 e0          	mov    %rax,-0x20(%rbp)
  404116:	e8 e5 00 00 00       	callq  404200 <_ZNSt12_Vector_baseISt6vectorINSt7__cxx1112basic_stringIcSt11char_traitsIcESaIcEEESaIS6_EESaIS8_EE13_M_deallocateEPS8_m>
  40411b:	e9 00 00 00 00       	jmpq   404120 <_ZNSt12_Vector_baseISt6vectorINSt7__cxx1112basic_stringIcSt11char_traitsIcESaIcEEESaIS6_EESaIS8_EED2Ev+0x40>
  404120:	48 8b 7d e0          	mov    -0x20(%rbp),%rdi
  404124:	e8 27 01 00 00       	callq  404250 <_ZNSt12_Vector_baseISt6vectorINSt7__cxx1112basic_stringIcSt11char_traitsIcESaIcEEESaIS6_EESaIS8_EE12_Vector_implD2Ev>
  404129:	48 83 c4 20          	add    $0x20,%rsp
  40412d:	5d                   	pop    %rbp
  40412e:	c3                   	retq   
  40412f:	48 89 45 f0          	mov    %rax,-0x10(%rbp)
  404133:	89 55 ec             	mov    %edx,-0x14(%rbp)
  404136:	48 8b 7d e0          	mov    -0x20(%rbp),%rdi
  40413a:	e8 11 01 00 00       	callq  404250 <_ZNSt12_Vector_baseISt6vectorINSt7__cxx1112basic_stringIcSt11char_traitsIcESaIcEEESaIS6_EESaIS8_EE12_Vector_implD2Ev>
  40413f:	48 8b 7d f0          	mov    -0x10(%rbp),%rdi
  404143:	e8 08 ff ff ff       	callq  404050 <__clang_call_terminate>
  404148:	0f 1f 84 00 00 00 00 	nopl   0x0(%rax,%rax,1)
  40414f:	00 

0000000000404150 <_ZSt8_DestroyIPSt6vectorINSt7__cxx1112basic_stringIcSt11char_traitsIcESaIcEEESaIS6_EEEvT_SA_>:
  404150:	55                   	push   %rbp
  404151:	48 89 e5             	mov    %rsp,%rbp
  404154:	48 83 ec 10          	sub    $0x10,%rsp
  404158:	48 89 7d f8          	mov    %rdi,-0x8(%rbp)
  40415c:	48 89 75 f0          	mov    %rsi,-0x10(%rbp)
  404160:	48 8b 7d f8          	mov    -0x8(%rbp),%rdi
  404164:	48 8b 75 f0          	mov    -0x10(%rbp),%rsi
  404168:	e8 13 00 00 00       	callq  404180 <_ZNSt12_Destroy_auxILb0EE9__destroyIPSt6vectorINSt7__cxx1112basic_stringIcSt11char_traitsIcESaIcEEESaIS8_EEEEvT_SC_>
  40416d:	48 83 c4 10          	add    $0x10,%rsp
  404171:	5d                   	pop    %rbp
  404172:	c3                   	retq   
  404173:	66 2e 0f 1f 84 00 00 	nopw   %cs:0x0(%rax,%rax,1)
  40417a:	00 00 00 
  40417d:	0f 1f 00             	nopl   (%rax)

0000000000404180 <_ZNSt12_Destroy_auxILb0EE9__destroyIPSt6vectorINSt7__cxx1112basic_stringIcSt11char_traitsIcESaIcEEESaIS8_EEEEvT_SC_>:
  404180:	55                   	push   %rbp
  404181:	48 89 e5             	mov    %rsp,%rbp
  404184:	48 83 ec 10          	sub    $0x10,%rsp
  404188:	48 89 7d f8          	mov    %rdi,-0x8(%rbp)
  40418c:	48 89 75 f0          	mov    %rsi,-0x10(%rbp)
  404190:	48 8b 45 f8          	mov    -0x8(%rbp),%rax
  404194:	48 3b 45 f0          	cmp    -0x10(%rbp),%rax
  404198:	0f 84 24 00 00 00    	je     4041c2 <_ZNSt12_Destroy_auxILb0EE9__destroyIPSt6vectorINSt7__cxx1112basic_stringIcSt11char_traitsIcESaIcEEESaIS8_EEEEvT_SC_+0x42>
  40419e:	48 8b 7d f8          	mov    -0x8(%rbp),%rdi
  4041a2:	e8 49 00 00 00       	callq  4041f0 <_ZSt11__addressofISt6vectorINSt7__cxx1112basic_stringIcSt11char_traitsIcESaIcEEESaIS6_EEEPT_RS9_>
  4041a7:	48 89 c7             	mov    %rax,%rdi
  4041aa:	e8 21 00 00 00       	callq  4041d0 <_ZSt8_DestroyISt6vectorINSt7__cxx1112basic_stringIcSt11char_traitsIcESaIcEEESaIS6_EEEvPT_>
  4041af:	48 8b 45 f8          	mov    -0x8(%rbp),%rax
  4041b3:	48 05 18 00 00 00    	add    $0x18,%rax
  4041b9:	48 89 45 f8          	mov    %rax,-0x8(%rbp)
  4041bd:	e9 ce ff ff ff       	jmpq   404190 <_ZNSt12_Destroy_auxILb0EE9__destroyIPSt6vectorINSt7__cxx1112basic_stringIcSt11char_traitsIcESaIcEEESaIS8_EEEEvT_SC_+0x10>
  4041c2:	48 83 c4 10          	add    $0x10,%rsp
  4041c6:	5d                   	pop    %rbp
  4041c7:	c3                   	retq   
  4041c8:	0f 1f 84 00 00 00 00 	nopl   0x0(%rax,%rax,1)
  4041cf:	00 

00000000004041d0 <_ZSt8_DestroyISt6vectorINSt7__cxx1112basic_stringIcSt11char_traitsIcESaIcEEESaIS6_EEEvPT_>:
  4041d0:	55                   	push   %rbp
  4041d1:	48 89 e5             	mov    %rsp,%rbp
  4041d4:	48 83 ec 10          	sub    $0x10,%rsp
  4041d8:	48 89 7d f8          	mov    %rdi,-0x8(%rbp)
  4041dc:	48 8b 7d f8          	mov    -0x8(%rbp),%rdi
  4041e0:	e8 5b fa ff ff       	callq  403c40 <_ZNSt6vectorINSt7__cxx1112basic_stringIcSt11char_traitsIcESaIcEEESaIS5_EED2Ev>
  4041e5:	48 83 c4 10          	add    $0x10,%rsp
  4041e9:	5d                   	pop    %rbp
  4041ea:	c3                   	retq   
  4041eb:	0f 1f 44 00 00       	nopl   0x0(%rax,%rax,1)

00000000004041f0 <_ZSt11__addressofISt6vectorINSt7__cxx1112basic_stringIcSt11char_traitsIcESaIcEEESaIS6_EEEPT_RS9_>:
  4041f0:	55                   	push   %rbp
  4041f1:	48 89 e5             	mov    %rsp,%rbp
  4041f4:	48 89 7d f8          	mov    %rdi,-0x8(%rbp)
  4041f8:	48 8b 45 f8          	mov    -0x8(%rbp),%rax
  4041fc:	5d                   	pop    %rbp
  4041fd:	c3                   	retq   
  4041fe:	66 90                	xchg   %ax,%ax

0000000000404200 <_ZNSt12_Vector_baseISt6vectorINSt7__cxx1112basic_stringIcSt11char_traitsIcESaIcEEESaIS6_EESaIS8_EE13_M_deallocateEPS8_m>:
  404200:	55                   	push   %rbp
  404201:	48 89 e5             	mov    %rsp,%rbp
  404204:	48 83 ec 20          	sub    $0x20,%rsp
  404208:	48 89 7d f8          	mov    %rdi,-0x8(%rbp)
  40420c:	48 89 75 f0          	mov    %rsi,-0x10(%rbp)
  404210:	48 89 55 e8          	mov    %rdx,-0x18(%rbp)
  404214:	48 8b 45 f8          	mov    -0x8(%rbp),%rax
  404218:	48 83 7d f0 00       	cmpq   $0x0,-0x10(%rbp)
  40421d:	48 89 45 e0          	mov    %rax,-0x20(%rbp)
  404221:	0f 84 14 00 00 00    	je     40423b <_ZNSt12_Vector_baseISt6vectorINSt7__cxx1112basic_stringIcSt11char_traitsIcESaIcEEESaIS6_EESaIS8_EE13_M_deallocateEPS8_m+0x3b>
  404227:	48 8b 45 e0          	mov    -0x20(%rbp),%rax
  40422b:	48 8b 75 f0          	mov    -0x10(%rbp),%rsi
  40422f:	48 8b 55 e8          	mov    -0x18(%rbp),%rdx
  404233:	48 89 c7             	mov    %rax,%rdi
  404236:	e8 35 00 00 00       	callq  404270 <_ZNSt16allocator_traitsISaISt6vectorINSt7__cxx1112basic_stringIcSt11char_traitsIcESaIcEEESaIS6_EEEE10deallocateERS9_PS8_m>
  40423b:	48 83 c4 20          	add    $0x20,%rsp
  40423f:	5d                   	pop    %rbp
  404240:	c3                   	retq   
  404241:	66 2e 0f 1f 84 00 00 	nopw   %cs:0x0(%rax,%rax,1)
  404248:	00 00 00 
  40424b:	0f 1f 44 00 00       	nopl   0x0(%rax,%rax,1)

0000000000404250 <_ZNSt12_Vector_baseISt6vectorINSt7__cxx1112basic_stringIcSt11char_traitsIcESaIcEEESaIS6_EESaIS8_EE12_Vector_implD2Ev>:
  404250:	55                   	push   %rbp
  404251:	48 89 e5             	mov    %rsp,%rbp
  404254:	48 83 ec 10          	sub    $0x10,%rsp
  404258:	48 89 7d f8          	mov    %rdi,-0x8(%rbp)
  40425c:	48 8b 45 f8          	mov    -0x8(%rbp),%rax
  404260:	48 89 c7             	mov    %rax,%rdi
  404263:	e8 68 00 00 00       	callq  4042d0 <_ZNSaISt6vectorINSt7__cxx1112basic_stringIcSt11char_traitsIcESaIcEEESaIS5_EEED2Ev>
  404268:	48 83 c4 10          	add    $0x10,%rsp
  40426c:	5d                   	pop    %rbp
  40426d:	c3                   	retq   
  40426e:	66 90                	xchg   %ax,%ax

0000000000404270 <_ZNSt16allocator_traitsISaISt6vectorINSt7__cxx1112basic_stringIcSt11char_traitsIcESaIcEEESaIS6_EEEE10deallocateERS9_PS8_m>:
  404270:	55                   	push   %rbp
  404271:	48 89 e5             	mov    %rsp,%rbp
  404274:	48 83 ec 20          	sub    $0x20,%rsp
  404278:	48 89 7d f8          	mov    %rdi,-0x8(%rbp)
  40427c:	48 89 75 f0          	mov    %rsi,-0x10(%rbp)
  404280:	48 89 55 e8          	mov    %rdx,-0x18(%rbp)
  404284:	48 8b 45 f8          	mov    -0x8(%rbp),%rax
  404288:	48 8b 75 f0          	mov    -0x10(%rbp),%rsi
  40428c:	48 8b 55 e8          	mov    -0x18(%rbp),%rdx
  404290:	48 89 c7             	mov    %rax,%rdi
  404293:	e8 08 00 00 00       	callq  4042a0 <_ZN9__gnu_cxx13new_allocatorISt6vectorINSt7__cxx1112basic_stringIcSt11char_traitsIcESaIcEEESaIS7_EEE10deallocateEPS9_m>
  404298:	48 83 c4 20          	add    $0x20,%rsp
  40429c:	5d                   	pop    %rbp
  40429d:	c3                   	retq   
  40429e:	66 90                	xchg   %ax,%ax

00000000004042a0 <_ZN9__gnu_cxx13new_allocatorISt6vectorINSt7__cxx1112basic_stringIcSt11char_traitsIcESaIcEEESaIS7_EEE10deallocateEPS9_m>:
  4042a0:	55                   	push   %rbp
  4042a1:	48 89 e5             	mov    %rsp,%rbp
  4042a4:	48 83 ec 20          	sub    $0x20,%rsp
  4042a8:	48 89 7d f8          	mov    %rdi,-0x8(%rbp)
  4042ac:	48 89 75 f0          	mov    %rsi,-0x10(%rbp)
  4042b0:	48 89 55 e8          	mov    %rdx,-0x18(%rbp)
  4042b4:	48 8b 45 f0          	mov    -0x10(%rbp),%rax
  4042b8:	48 89 c7             	mov    %rax,%rdi
  4042bb:	e8 60 ef ff ff       	callq  403220 <_ZdlPv@plt>
  4042c0:	48 83 c4 20          	add    $0x20,%rsp
  4042c4:	5d                   	pop    %rbp
  4042c5:	c3                   	retq   
  4042c6:	66 2e 0f 1f 84 00 00 	nopw   %cs:0x0(%rax,%rax,1)
  4042cd:	00 00 00 

00000000004042d0 <_ZNSaISt6vectorINSt7__cxx1112basic_stringIcSt11char_traitsIcESaIcEEESaIS5_EEED2Ev>:
  4042d0:	55                   	push   %rbp
  4042d1:	48 89 e5             	mov    %rsp,%rbp
  4042d4:	48 83 ec 10          	sub    $0x10,%rsp
  4042d8:	48 89 7d f8          	mov    %rdi,-0x8(%rbp)
  4042dc:	48 8b 45 f8          	mov    -0x8(%rbp),%rax
  4042e0:	48 89 c7             	mov    %rax,%rdi
  4042e3:	e8 08 00 00 00       	callq  4042f0 <_ZN9__gnu_cxx13new_allocatorISt6vectorINSt7__cxx1112basic_stringIcSt11char_traitsIcESaIcEEESaIS7_EEED2Ev>
  4042e8:	48 83 c4 10          	add    $0x10,%rsp
  4042ec:	5d                   	pop    %rbp
  4042ed:	c3                   	retq   
  4042ee:	66 90                	xchg   %ax,%ax

00000000004042f0 <_ZN9__gnu_cxx13new_allocatorISt6vectorINSt7__cxx1112basic_stringIcSt11char_traitsIcESaIcEEESaIS7_EEED2Ev>:
  4042f0:	55                   	push   %rbp
  4042f1:	48 89 e5             	mov    %rsp,%rbp
  4042f4:	48 89 7d f8          	mov    %rdi,-0x8(%rbp)
  4042f8:	5d                   	pop    %rbp
  4042f9:	c3                   	retq   
  4042fa:	66 0f 1f 44 00 00    	nopw   0x0(%rax,%rax,1)

0000000000404300 <_ZSt8_DestroyIPNSt7__cxx1112basic_stringIcSt11char_traitsIcESaIcEEES5_EvT_S7_RSaIT0_E>:
  404300:	55                   	push   %rbp
  404301:	48 89 e5             	mov    %rsp,%rbp
  404304:	48 83 ec 20          	sub    $0x20,%rsp
  404308:	48 89 7d f8          	mov    %rdi,-0x8(%rbp)
  40430c:	48 89 75 f0          	mov    %rsi,-0x10(%rbp)
  404310:	48 89 55 e8          	mov    %rdx,-0x18(%rbp)
  404314:	48 8b 7d f8          	mov    -0x8(%rbp),%rdi
  404318:	48 8b 75 f0          	mov    -0x10(%rbp),%rsi
  40431c:	e8 7f 00 00 00       	callq  4043a0 <_ZSt8_DestroyIPNSt7__cxx1112basic_stringIcSt11char_traitsIcESaIcEEEEvT_S7_>
  404321:	48 83 c4 20          	add    $0x20,%rsp
  404325:	5d                   	pop    %rbp
  404326:	c3                   	retq   
  404327:	66 0f 1f 84 00 00 00 	nopw   0x0(%rax,%rax,1)
  40432e:	00 00 

0000000000404330 <_ZNSt12_Vector_baseINSt7__cxx1112basic_stringIcSt11char_traitsIcESaIcEEESaIS5_EE19_M_get_Tp_allocatorEv>:
  404330:	55                   	push   %rbp
  404331:	48 89 e5             	mov    %rsp,%rbp
  404334:	48 89 7d f8          	mov    %rdi,-0x8(%rbp)
  404338:	48 8b 45 f8          	mov    -0x8(%rbp),%rax
  40433c:	5d                   	pop    %rbp
  40433d:	c3                   	retq   
  40433e:	66 90                	xchg   %ax,%ax

0000000000404340 <_ZNSt12_Vector_baseINSt7__cxx1112basic_stringIcSt11char_traitsIcESaIcEEESaIS5_EED2Ev>:
  404340:	55                   	push   %rbp
  404341:	48 89 e5             	mov    %rsp,%rbp
  404344:	48 83 ec 20          	sub    $0x20,%rsp
  404348:	48 89 7d f8          	mov    %rdi,-0x8(%rbp)
  40434c:	48 8b 45 f8          	mov    -0x8(%rbp),%rax
  404350:	48 8b 08             	mov    (%rax),%rcx
  404353:	48 8b 50 10          	mov    0x10(%rax),%rdx
  404357:	48 29 ca             	sub    %rcx,%rdx
  40435a:	48 c1 fa 05          	sar    $0x5,%rdx
  40435e:	48 89 c7             	mov    %rax,%rdi
  404361:	48 89 ce             	mov    %rcx,%rsi
  404364:	48 89 45 e0          	mov    %rax,-0x20(%rbp)
  404368:	e8 e3 00 00 00       	callq  404450 <_ZNSt12_Vector_baseINSt7__cxx1112basic_stringIcSt11char_traitsIcESaIcEEESaIS5_EE13_M_deallocateEPS5_m>
  40436d:	e9 00 00 00 00       	jmpq   404372 <_ZNSt12_Vector_baseINSt7__cxx1112basic_stringIcSt11char_traitsIcESaIcEEESaIS5_EED2Ev+0x32>
  404372:	48 8b 7d e0          	mov    -0x20(%rbp),%rdi
  404376:	e8 25 01 00 00       	callq  4044a0 <_ZNSt12_Vector_baseINSt7__cxx1112basic_stringIcSt11char_traitsIcESaIcEEESaIS5_EE12_Vector_implD2Ev>
  40437b:	48 83 c4 20          	add    $0x20,%rsp
  40437f:	5d                   	pop    %rbp
  404380:	c3                   	retq   
  404381:	48 89 45 f0          	mov    %rax,-0x10(%rbp)
  404385:	89 55 ec             	mov    %edx,-0x14(%rbp)
  404388:	48 8b 7d e0          	mov    -0x20(%rbp),%rdi
  40438c:	e8 0f 01 00 00       	callq  4044a0 <_ZNSt12_Vector_baseINSt7__cxx1112basic_stringIcSt11char_traitsIcESaIcEEESaIS5_EE12_Vector_implD2Ev>
  404391:	48 8b 7d f0          	mov    -0x10(%rbp),%rdi
  404395:	e8 b6 fc ff ff       	callq  404050 <__clang_call_terminate>
  40439a:	66 0f 1f 44 00 00    	nopw   0x0(%rax,%rax,1)

00000000004043a0 <_ZSt8_DestroyIPNSt7__cxx1112basic_stringIcSt11char_traitsIcESaIcEEEEvT_S7_>:
  4043a0:	55                   	push   %rbp
  4043a1:	48 89 e5             	mov    %rsp,%rbp
  4043a4:	48 83 ec 10          	sub    $0x10,%rsp
  4043a8:	48 89 7d f8          	mov    %rdi,-0x8(%rbp)
  4043ac:	48 89 75 f0          	mov    %rsi,-0x10(%rbp)
  4043b0:	48 8b 7d f8          	mov    -0x8(%rbp),%rdi
  4043b4:	48 8b 75 f0          	mov    -0x10(%rbp),%rsi
  4043b8:	e8 13 00 00 00       	callq  4043d0 <_ZNSt12_Destroy_auxILb0EE9__destroyIPNSt7__cxx1112basic_stringIcSt11char_traitsIcESaIcEEEEEvT_S9_>
  4043bd:	48 83 c4 10          	add    $0x10,%rsp
  4043c1:	5d                   	pop    %rbp
  4043c2:	c3                   	retq   
  4043c3:	66 2e 0f 1f 84 00 00 	nopw   %cs:0x0(%rax,%rax,1)
  4043ca:	00 00 00 
  4043cd:	0f 1f 00             	nopl   (%rax)

00000000004043d0 <_ZNSt12_Destroy_auxILb0EE9__destroyIPNSt7__cxx1112basic_stringIcSt11char_traitsIcESaIcEEEEEvT_S9_>:
  4043d0:	55                   	push   %rbp
  4043d1:	48 89 e5             	mov    %rsp,%rbp
  4043d4:	48 83 ec 10          	sub    $0x10,%rsp
  4043d8:	48 89 7d f8          	mov    %rdi,-0x8(%rbp)
  4043dc:	48 89 75 f0          	mov    %rsi,-0x10(%rbp)
  4043e0:	48 8b 45 f8          	mov    -0x8(%rbp),%rax
  4043e4:	48 3b 45 f0          	cmp    -0x10(%rbp),%rax
  4043e8:	0f 84 24 00 00 00    	je     404412 <_ZNSt12_Destroy_auxILb0EE9__destroyIPNSt7__cxx1112basic_stringIcSt11char_traitsIcESaIcEEEEEvT_S9_+0x42>
  4043ee:	48 8b 7d f8          	mov    -0x8(%rbp),%rdi
  4043f2:	e8 49 00 00 00       	callq  404440 <_ZSt11__addressofINSt7__cxx1112basic_stringIcSt11char_traitsIcESaIcEEEEPT_RS6_>
  4043f7:	48 89 c7             	mov    %rax,%rdi
  4043fa:	e8 21 00 00 00       	callq  404420 <_ZSt8_DestroyINSt7__cxx1112basic_stringIcSt11char_traitsIcESaIcEEEEvPT_>
  4043ff:	48 8b 45 f8          	mov    -0x8(%rbp),%rax
  404403:	48 05 20 00 00 00    	add    $0x20,%rax
  404409:	48 89 45 f8          	mov    %rax,-0x8(%rbp)
  40440d:	e9 ce ff ff ff       	jmpq   4043e0 <_ZNSt12_Destroy_auxILb0EE9__destroyIPNSt7__cxx1112basic_stringIcSt11char_traitsIcESaIcEEEEEvT_S9_+0x10>
  404412:	48 83 c4 10          	add    $0x10,%rsp
  404416:	5d                   	pop    %rbp
  404417:	c3                   	retq   
  404418:	0f 1f 84 00 00 00 00 	nopl   0x0(%rax,%rax,1)
  40441f:	00 

0000000000404420 <_ZSt8_DestroyINSt7__cxx1112basic_stringIcSt11char_traitsIcESaIcEEEEvPT_>:
  404420:	55                   	push   %rbp
  404421:	48 89 e5             	mov    %rsp,%rbp
  404424:	48 83 ec 10          	sub    $0x10,%rsp
  404428:	48 89 7d f8          	mov    %rdi,-0x8(%rbp)
  40442c:	48 8b 7d f8          	mov    -0x8(%rbp),%rdi
  404430:	e8 0b ed ff ff       	callq  403140 <_ZNSt7__cxx1112basic_stringIcSt11char_traitsIcESaIcEED1Ev@plt>
  404435:	48 83 c4 10          	add    $0x10,%rsp
  404439:	5d                   	pop    %rbp
  40443a:	c3                   	retq   
  40443b:	0f 1f 44 00 00       	nopl   0x0(%rax,%rax,1)

0000000000404440 <_ZSt11__addressofINSt7__cxx1112basic_stringIcSt11char_traitsIcESaIcEEEEPT_RS6_>:
  404440:	55                   	push   %rbp
  404441:	48 89 e5             	mov    %rsp,%rbp
  404444:	48 89 7d f8          	mov    %rdi,-0x8(%rbp)
  404448:	48 8b 45 f8          	mov    -0x8(%rbp),%rax
  40444c:	5d                   	pop    %rbp
  40444d:	c3                   	retq   
  40444e:	66 90                	xchg   %ax,%ax

0000000000404450 <_ZNSt12_Vector_baseINSt7__cxx1112basic_stringIcSt11char_traitsIcESaIcEEESaIS5_EE13_M_deallocateEPS5_m>:
  404450:	55                   	push   %rbp
  404451:	48 89 e5             	mov    %rsp,%rbp
  404454:	48 83 ec 20          	sub    $0x20,%rsp
  404458:	48 89 7d f8          	mov    %rdi,-0x8(%rbp)
  40445c:	48 89 75 f0          	mov    %rsi,-0x10(%rbp)
  404460:	48 89 55 e8          	mov    %rdx,-0x18(%rbp)
  404464:	48 8b 45 f8          	mov    -0x8(%rbp),%rax
  404468:	48 83 7d f0 00       	cmpq   $0x0,-0x10(%rbp)
  40446d:	48 89 45 e0          	mov    %rax,-0x20(%rbp)
  404471:	0f 84 14 00 00 00    	je     40448b <_ZNSt12_Vector_baseINSt7__cxx1112basic_stringIcSt11char_traitsIcESaIcEEESaIS5_EE13_M_deallocateEPS5_m+0x3b>
  404477:	48 8b 45 e0          	mov    -0x20(%rbp),%rax
  40447b:	48 8b 75 f0          	mov    -0x10(%rbp),%rsi
  40447f:	48 8b 55 e8          	mov    -0x18(%rbp),%rdx
  404483:	48 89 c7             	mov    %rax,%rdi
  404486:	e8 35 00 00 00       	callq  4044c0 <_ZNSt16allocator_traitsISaINSt7__cxx1112basic_stringIcSt11char_traitsIcESaIcEEEEE10deallocateERS6_PS5_m>
  40448b:	48 83 c4 20          	add    $0x20,%rsp
  40448f:	5d                   	pop    %rbp
  404490:	c3                   	retq   
  404491:	66 2e 0f 1f 84 00 00 	nopw   %cs:0x0(%rax,%rax,1)
  404498:	00 00 00 
  40449b:	0f 1f 44 00 00       	nopl   0x0(%rax,%rax,1)

00000000004044a0 <_ZNSt12_Vector_baseINSt7__cxx1112basic_stringIcSt11char_traitsIcESaIcEEESaIS5_EE12_Vector_implD2Ev>:
  4044a0:	55                   	push   %rbp
  4044a1:	48 89 e5             	mov    %rsp,%rbp
  4044a4:	48 83 ec 10          	sub    $0x10,%rsp
  4044a8:	48 89 7d f8          	mov    %rdi,-0x8(%rbp)
  4044ac:	48 8b 45 f8          	mov    -0x8(%rbp),%rax
  4044b0:	48 89 c7             	mov    %rax,%rdi
  4044b3:	e8 18 1e 00 00       	callq  4062d0 <_ZNSaINSt7__cxx1112basic_stringIcSt11char_traitsIcESaIcEEEED2Ev>
  4044b8:	48 83 c4 10          	add    $0x10,%rsp
  4044bc:	5d                   	pop    %rbp
  4044bd:	c3                   	retq   
  4044be:	66 90                	xchg   %ax,%ax

00000000004044c0 <_ZNSt16allocator_traitsISaINSt7__cxx1112basic_stringIcSt11char_traitsIcESaIcEEEEE10deallocateERS6_PS5_m>:
  4044c0:	55                   	push   %rbp
  4044c1:	48 89 e5             	mov    %rsp,%rbp
  4044c4:	48 83 ec 20          	sub    $0x20,%rsp
  4044c8:	48 89 7d f8          	mov    %rdi,-0x8(%rbp)
  4044cc:	48 89 75 f0          	mov    %rsi,-0x10(%rbp)
  4044d0:	48 89 55 e8          	mov    %rdx,-0x18(%rbp)
  4044d4:	48 8b 45 f8          	mov    -0x8(%rbp),%rax
  4044d8:	48 8b 75 f0          	mov    -0x10(%rbp),%rsi
  4044dc:	48 8b 55 e8          	mov    -0x18(%rbp),%rdx
  4044e0:	48 89 c7             	mov    %rax,%rdi
  4044e3:	e8 08 00 00 00       	callq  4044f0 <_ZN9__gnu_cxx13new_allocatorINSt7__cxx1112basic_stringIcSt11char_traitsIcESaIcEEEE10deallocateEPS6_m>
  4044e8:	48 83 c4 20          	add    $0x20,%rsp
  4044ec:	5d                   	pop    %rbp
  4044ed:	c3                   	retq   
  4044ee:	66 90                	xchg   %ax,%ax

00000000004044f0 <_ZN9__gnu_cxx13new_allocatorINSt7__cxx1112basic_stringIcSt11char_traitsIcESaIcEEEE10deallocateEPS6_m>:
  4044f0:	55                   	push   %rbp
  4044f1:	48 89 e5             	mov    %rsp,%rbp
  4044f4:	48 83 ec 20          	sub    $0x20,%rsp
  4044f8:	48 89 7d f8          	mov    %rdi,-0x8(%rbp)
  4044fc:	48 89 75 f0          	mov    %rsi,-0x10(%rbp)
  404500:	48 89 55 e8          	mov    %rdx,-0x18(%rbp)
  404504:	48 8b 45 f0          	mov    -0x10(%rbp),%rax
  404508:	48 89 c7             	mov    %rax,%rdi
  40450b:	e8 10 ed ff ff       	callq  403220 <_ZdlPv@plt>
  404510:	48 83 c4 20          	add    $0x20,%rsp
  404514:	5d                   	pop    %rbp
  404515:	c3                   	retq   
  404516:	66 2e 0f 1f 84 00 00 	nopw   %cs:0x0(%rax,%rax,1)
  40451d:	00 00 00 

0000000000404520 <_ZN9__gnu_cxx13new_allocatorINSt7__cxx1112basic_stringIcSt11char_traitsIcESaIcEEEED2Ev>:
  404520:	55                   	push   %rbp
  404521:	48 89 e5             	mov    %rsp,%rbp
  404524:	48 89 7d f8          	mov    %rdi,-0x8(%rbp)
  404528:	5d                   	pop    %rbp
  404529:	c3                   	retq   
  40452a:	66 0f 1f 44 00 00    	nopw   0x0(%rax,%rax,1)

0000000000404530 <_ZN5boost10as_literalINSt7__cxx1112basic_stringIcSt11char_traitsIcESaIcEEEEENS_14iterator_rangeINS_14range_iteratorIKT_vE4typeEEERSA_>:
  404530:	55                   	push   %rbp
  404531:	48 89 e5             	mov    %rsp,%rbp
  404534:	48 83 ec 20          	sub    $0x20,%rsp
  404538:	48 89 7d e8          	mov    %rdi,-0x18(%rbp)
  40453c:	48 8b 45 e8          	mov    -0x18(%rbp),%rax
  404540:	48 89 c7             	mov    %rax,%rdi
  404543:	48 89 45 e0          	mov    %rax,-0x20(%rbp)
  404547:	e8 34 01 00 00       	callq  404680 <_ZN5boost12range_detail11is_char_ptrINSt7__cxx1112basic_stringIcSt11char_traitsIcESaIcEEEEElRKT_>
  40454c:	48 8b 7d e0          	mov    -0x20(%rbp),%rdi
  404550:	48 89 c6             	mov    %rax,%rsi
  404553:	e8 f8 00 00 00       	callq  404650 <_ZN5boost12range_detail10make_rangeIKNSt7__cxx1112basic_stringIcSt11char_traitsIcESaIcEEEEENS_14iterator_rangeINS_14range_iteratorIT_vE4typeEEERSB_l>
  404558:	48 89 45 f0          	mov    %rax,-0x10(%rbp)
  40455c:	48 89 55 f8          	mov    %rdx,-0x8(%rbp)
  404560:	48 8b 45 f0          	mov    -0x10(%rbp),%rax
  404564:	48 8b 55 f8          	mov    -0x8(%rbp),%rdx
  404568:	48 83 c4 20          	add    $0x20,%rsp
  40456c:	5d                   	pop    %rbp
  40456d:	c3                   	retq   
  40456e:	66 90                	xchg   %ax,%ax

0000000000404570 <_ZN5boost9algorithm6detail10is_any_ofFIcEC2INS_14iterator_rangeIN9__gnu_cxx17__normal_iteratorIPKcNSt7__cxx1112basic_stringIcSt11char_traitsIcESaIcEEEEEEEEERKT_>:
  404570:	55                   	push   %rbp
  404571:	48 89 e5             	mov    %rsp,%rbp
  404574:	48 83 ec 40          	sub    $0x40,%rsp
  404578:	48 89 7d f8          	mov    %rdi,-0x8(%rbp)
  40457c:	48 89 75 f0          	mov    %rsi,-0x10(%rbp)
  404580:	48 8b 45 f8          	mov    -0x8(%rbp),%rax
  404584:	48 c7 40 10 00 00 00 	movq   $0x0,0x10(%rax)
  40458b:	00 
  40458c:	48 c7 00 00 00 00 00 	movq   $0x0,(%rax)
  404593:	48 8b 7d f0          	mov    -0x10(%rbp),%rdi
  404597:	48 89 45 c8          	mov    %rax,-0x38(%rbp)
  40459b:	e8 40 03 00 00       	callq  4048e0 <_ZN5boost26range_distance_adl_barrier8distanceINS_14iterator_rangeIN9__gnu_cxx17__normal_iteratorIPKcNSt7__cxx1112basic_stringIcSt11char_traitsIcESaIcEEEEEEEEENS_16range_differenceIT_E4typeERKSG_>
  4045a0:	48 89 45 e8          	mov    %rax,-0x18(%rbp)
  4045a4:	48 8b 45 e8          	mov    -0x18(%rbp),%rax
  4045a8:	48 8b 4d c8          	mov    -0x38(%rbp),%rcx
  4045ac:	48 89 41 10          	mov    %rax,0x10(%rcx)
  4045b0:	48 c7 45 e0 00 00 00 	movq   $0x0,-0x20(%rbp)
  4045b7:	00 
  4045b8:	48 8b 79 10          	mov    0x10(%rcx),%rdi
  4045bc:	e8 5f 03 00 00       	callq  404920 <_ZN5boost9algorithm6detail10is_any_ofFIcE17use_fixed_storageEm>
  4045c1:	a8 01                	test   $0x1,%al
  4045c3:	0f 85 05 00 00 00    	jne    4045ce <_ZN5boost9algorithm6detail10is_any_ofFIcEC2INS_14iterator_rangeIN9__gnu_cxx17__normal_iteratorIPKcNSt7__cxx1112basic_stringIcSt11char_traitsIcESaIcEEEEEEEEERKT_+0x5e>
  4045c9:	e9 0d 00 00 00       	jmpq   4045db <_ZN5boost9algorithm6detail10is_any_ofFIcEC2INS_14iterator_rangeIN9__gnu_cxx17__normal_iteratorIPKcNSt7__cxx1112basic_stringIcSt11char_traitsIcESaIcEEEEEEEEERKT_+0x6b>
  4045ce:	48 8b 45 c8          	mov    -0x38(%rbp),%rax
  4045d2:	48 89 45 e0          	mov    %rax,-0x20(%rbp)
  4045d6:	e9 1b 00 00 00       	jmpq   4045f6 <_ZN5boost9algorithm6detail10is_any_ofFIcEC2INS_14iterator_rangeIN9__gnu_cxx17__normal_iteratorIPKcNSt7__cxx1112basic_stringIcSt11char_traitsIcESaIcEEEEEEEEERKT_+0x86>
  4045db:	48 8b 45 c8          	mov    -0x38(%rbp),%rax
  4045df:	48 8b 78 10          	mov    0x10(%rax),%rdi
  4045e3:	e8 48 ea ff ff       	callq  403030 <_Znam@plt>
  4045e8:	48 8b 4d c8          	mov    -0x38(%rbp),%rcx
  4045ec:	48 89 01             	mov    %rax,(%rcx)
  4045ef:	48 8b 01             	mov    (%rcx),%rax
  4045f2:	48 89 45 e0          	mov    %rax,-0x20(%rbp)
  4045f6:	48 8b 7d f0          	mov    -0x10(%rbp),%rdi
  4045fa:	e8 a1 03 00 00       	callq  4049a0 <_ZN5boost17range_adl_barrier5beginINS_14iterator_rangeIN9__gnu_cxx17__normal_iteratorIPKcNSt7__cxx1112basic_stringIcSt11char_traitsIcESaIcEEEEEEEEENS_14range_iteratorIKT_vE4typeERSH_>
  4045ff:	48 89 45 d8          	mov    %rax,-0x28(%rbp)
  404603:	48 8b 7d f0          	mov    -0x10(%rbp),%rdi
  404607:	e8 c4 03 00 00       	callq  4049d0 <_ZN5boost17range_adl_barrier3endINS_14iterator_rangeIN9__gnu_cxx17__normal_iteratorIPKcNSt7__cxx1112basic_stringIcSt11char_traitsIcESaIcEEEEEEEEENS_14range_iteratorIKT_vE4typeERSH_>
  40460c:	48 89 45 d0          	mov    %rax,-0x30(%rbp)
  404610:	48 8b 55 e0          	mov    -0x20(%rbp),%rdx
  404614:	48 8b 7d d8          	mov    -0x28(%rbp),%rdi
  404618:	48 8b 75 d0          	mov    -0x30(%rbp),%rsi
  40461c:	e8 1f 03 00 00       	callq  404940 <_ZSt4copyIN9__gnu_cxx17__normal_iteratorIPKcNSt7__cxx1112basic_stringIcSt11char_traitsIcESaIcEEEEEPcET0_T_SD_SC_>
  404621:	48 8b 7d e0          	mov    -0x20(%rbp),%rdi
  404625:	48 8b 4d e0          	mov    -0x20(%rbp),%rcx
  404629:	48 8b 55 c8          	mov    -0x38(%rbp),%rdx
  40462d:	48 03 4a 10          	add    0x10(%rdx),%rcx
  404631:	48 89 ce             	mov    %rcx,%rsi
  404634:	48 89 45 c0          	mov    %rax,-0x40(%rbp)
  404638:	e8 c3 03 00 00       	callq  404a00 <_ZSt4sortIPcEvT_S1_>
  40463d:	48 83 c4 40          	add    $0x40,%rsp
  404641:	5d                   	pop    %rbp
  404642:	c3                   	retq   
  404643:	66 2e 0f 1f 84 00 00 	nopw   %cs:0x0(%rax,%rax,1)
  40464a:	00 00 00 
  40464d:	0f 1f 00             	nopl   (%rax)

0000000000404650 <_ZN5boost12range_detail10make_rangeIKNSt7__cxx1112basic_stringIcSt11char_traitsIcESaIcEEEEENS_14iterator_rangeINS_14range_iteratorIT_vE4typeEEERSB_l>:
  404650:	55                   	push   %rbp
  404651:	48 89 e5             	mov    %rsp,%rbp
  404654:	48 83 ec 20          	sub    $0x20,%rsp
  404658:	48 89 7d e8          	mov    %rdi,-0x18(%rbp)
  40465c:	48 89 75 e0          	mov    %rsi,-0x20(%rbp)
  404660:	48 8b 7d e8          	mov    -0x18(%rbp),%rdi
  404664:	e8 27 00 00 00       	callq  404690 <_ZN5boost19make_iterator_rangeINSt7__cxx1112basic_stringIcSt11char_traitsIcESaIcEEEEENS_14iterator_rangeINS_14range_iteratorIKT_vE4typeEEERSA_>
  404669:	48 89 45 f0          	mov    %rax,-0x10(%rbp)
  40466d:	48 89 55 f8          	mov    %rdx,-0x8(%rbp)
  404671:	48 8b 45 f0          	mov    -0x10(%rbp),%rax
  404675:	48 8b 55 f8          	mov    -0x8(%rbp),%rdx
  404679:	48 83 c4 20          	add    $0x20,%rsp
  40467d:	5d                   	pop    %rbp
  40467e:	c3                   	retq   
  40467f:	90                   	nop

0000000000404680 <_ZN5boost12range_detail11is_char_ptrINSt7__cxx1112basic_stringIcSt11char_traitsIcESaIcEEEEElRKT_>:
  404680:	55                   	push   %rbp
  404681:	48 89 e5             	mov    %rsp,%rbp
  404684:	31 c0                	xor    %eax,%eax
  404686:	48 89 7d f8          	mov    %rdi,-0x8(%rbp)
  40468a:	5d                   	pop    %rbp
  40468b:	c3                   	retq   
  40468c:	0f 1f 40 00          	nopl   0x0(%rax)

0000000000404690 <_ZN5boost19make_iterator_rangeINSt7__cxx1112basic_stringIcSt11char_traitsIcESaIcEEEEENS_14iterator_rangeINS_14range_iteratorIKT_vE4typeEEERSA_>:
  404690:	55                   	push   %rbp
  404691:	48 89 e5             	mov    %rsp,%rbp
  404694:	48 83 ec 20          	sub    $0x20,%rsp
  404698:	48 89 7d e8          	mov    %rdi,-0x18(%rbp)
  40469c:	48 8b 75 e8          	mov    -0x18(%rbp),%rsi
  4046a0:	48 8d 7d f0          	lea    -0x10(%rbp),%rdi
  4046a4:	e8 17 00 00 00       	callq  4046c0 <_ZN5boost14iterator_rangeIN9__gnu_cxx17__normal_iteratorIPKcNSt7__cxx1112basic_stringIcSt11char_traitsIcESaIcEEEEEEC2ISA_EERKT_NS_21iterator_range_detail15const_range_tagE>
  4046a9:	48 8b 45 f0          	mov    -0x10(%rbp),%rax
  4046ad:	48 8b 55 f8          	mov    -0x8(%rbp),%rdx
  4046b1:	48 83 c4 20          	add    $0x20,%rsp
  4046b5:	5d                   	pop    %rbp
  4046b6:	c3                   	retq   
  4046b7:	66 0f 1f 84 00 00 00 	nopw   0x0(%rax,%rax,1)
  4046be:	00 00 

00000000004046c0 <_ZN5boost14iterator_rangeIN9__gnu_cxx17__normal_iteratorIPKcNSt7__cxx1112basic_stringIcSt11char_traitsIcESaIcEEEEEEC2ISA_EERKT_NS_21iterator_range_detail15const_range_tagE>:
  4046c0:	55                   	push   %rbp
  4046c1:	48 89 e5             	mov    %rsp,%rbp
  4046c4:	48 83 ec 30          	sub    $0x30,%rsp
  4046c8:	48 89 7d f0          	mov    %rdi,-0x10(%rbp)
  4046cc:	48 89 75 e8          	mov    %rsi,-0x18(%rbp)
  4046d0:	48 8b 45 f0          	mov    -0x10(%rbp),%rax
  4046d4:	48 8b 7d e8          	mov    -0x18(%rbp),%rdi
  4046d8:	48 89 45 d0          	mov    %rax,-0x30(%rbp)
  4046dc:	e8 2f 00 00 00       	callq  404710 <_ZN5boost21iterator_range_detail19iterator_range_implIN9__gnu_cxx17__normal_iteratorIPKcNSt7__cxx1112basic_stringIcSt11char_traitsIcESaIcEEEEEE9adl_beginIKSB_EESC_RT_>
  4046e1:	48 89 45 e0          	mov    %rax,-0x20(%rbp)
  4046e5:	48 8b 7d e8          	mov    -0x18(%rbp),%rdi
  4046e9:	e8 52 00 00 00       	callq  404740 <_ZN5boost21iterator_range_detail19iterator_range_implIN9__gnu_cxx17__normal_iteratorIPKcNSt7__cxx1112basic_stringIcSt11char_traitsIcESaIcEEEEEE7adl_endIKSB_EESC_RT_>
  4046ee:	48 89 45 d8          	mov    %rax,-0x28(%rbp)
  4046f2:	48 8b 75 e0          	mov    -0x20(%rbp),%rsi
  4046f6:	48 8b 55 d8          	mov    -0x28(%rbp),%rdx
  4046fa:	48 8b 7d d0          	mov    -0x30(%rbp),%rdi
  4046fe:	e8 6d 00 00 00       	callq  404770 <_ZN5boost21iterator_range_detail19iterator_range_baseIN9__gnu_cxx17__normal_iteratorIPKcNSt7__cxx1112basic_stringIcSt11char_traitsIcESaIcEEEEENS_9iterators27random_access_traversal_tagEEC2ISC_EET_SH_>
  404703:	48 83 c4 30          	add    $0x30,%rsp
  404707:	5d                   	pop    %rbp
  404708:	c3                   	retq   
  404709:	0f 1f 80 00 00 00 00 	nopl   0x0(%rax)

0000000000404710 <_ZN5boost21iterator_range_detail19iterator_range_implIN9__gnu_cxx17__normal_iteratorIPKcNSt7__cxx1112basic_stringIcSt11char_traitsIcESaIcEEEEEE9adl_beginIKSB_EESC_RT_>:
  404710:	55                   	push   %rbp
  404711:	48 89 e5             	mov    %rsp,%rbp
  404714:	48 83 ec 10          	sub    $0x10,%rsp
  404718:	48 89 7d f0          	mov    %rdi,-0x10(%rbp)
  40471c:	48 8b 7d f0          	mov    -0x10(%rbp),%rdi
  404720:	e8 8b 00 00 00       	callq  4047b0 <_ZN5boost17range_adl_barrier5beginINSt7__cxx1112basic_stringIcSt11char_traitsIcESaIcEEEEENS_14range_iteratorIKT_vE4typeERSA_>
  404725:	48 89 45 f8          	mov    %rax,-0x8(%rbp)
  404729:	48 8b 45 f8          	mov    -0x8(%rbp),%rax
  40472d:	48 83 c4 10          	add    $0x10,%rsp
  404731:	5d                   	pop    %rbp
  404732:	c3                   	retq   
  404733:	66 2e 0f 1f 84 00 00 	nopw   %cs:0x0(%rax,%rax,1)
  40473a:	00 00 00 
  40473d:	0f 1f 00             	nopl   (%rax)

0000000000404740 <_ZN5boost21iterator_range_detail19iterator_range_implIN9__gnu_cxx17__normal_iteratorIPKcNSt7__cxx1112basic_stringIcSt11char_traitsIcESaIcEEEEEE7adl_endIKSB_EESC_RT_>:
  404740:	55                   	push   %rbp
  404741:	48 89 e5             	mov    %rsp,%rbp
  404744:	48 83 ec 10          	sub    $0x10,%rsp
  404748:	48 89 7d f0          	mov    %rdi,-0x10(%rbp)
  40474c:	48 8b 7d f0          	mov    -0x10(%rbp),%rdi
  404750:	e8 bb 00 00 00       	callq  404810 <_ZN5boost17range_adl_barrier3endINSt7__cxx1112basic_stringIcSt11char_traitsIcESaIcEEEEENS_14range_iteratorIKT_vE4typeERSA_>
  404755:	48 89 45 f8          	mov    %rax,-0x8(%rbp)
  404759:	48 8b 45 f8          	mov    -0x8(%rbp),%rax
  40475d:	48 83 c4 10          	add    $0x10,%rsp
  404761:	5d                   	pop    %rbp
  404762:	c3                   	retq   
  404763:	66 2e 0f 1f 84 00 00 	nopw   %cs:0x0(%rax,%rax,1)
  40476a:	00 00 00 
  40476d:	0f 1f 00             	nopl   (%rax)

0000000000404770 <_ZN5boost21iterator_range_detail19iterator_range_baseIN9__gnu_cxx17__normal_iteratorIPKcNSt7__cxx1112basic_stringIcSt11char_traitsIcESaIcEEEEENS_9iterators27random_access_traversal_tagEEC2ISC_EET_SH_>:
  404770:	55                   	push   %rbp
  404771:	48 89 e5             	mov    %rsp,%rbp
  404774:	48 83 ec 30          	sub    $0x30,%rsp
  404778:	48 89 75 f8          	mov    %rsi,-0x8(%rbp)
  40477c:	48 89 55 f0          	mov    %rdx,-0x10(%rbp)
  404780:	48 89 7d e8          	mov    %rdi,-0x18(%rbp)
  404784:	48 8b 45 e8          	mov    -0x18(%rbp),%rax
  404788:	48 8b 4d f8          	mov    -0x8(%rbp),%rcx
  40478c:	48 89 4d e0          	mov    %rcx,-0x20(%rbp)
  404790:	48 8b 4d f0          	mov    -0x10(%rbp),%rcx
  404794:	48 89 4d d8          	mov    %rcx,-0x28(%rbp)
  404798:	48 8b 75 e0          	mov    -0x20(%rbp),%rsi
  40479c:	48 8b 55 d8          	mov    -0x28(%rbp),%rdx
  4047a0:	48 89 c7             	mov    %rax,%rdi
  4047a3:	e8 c8 00 00 00       	callq  404870 <_ZN5boost21iterator_range_detail19iterator_range_baseIN9__gnu_cxx17__normal_iteratorIPKcNSt7__cxx1112basic_stringIcSt11char_traitsIcESaIcEEEEENS_9iterators27bidirectional_traversal_tagEEC2ISC_EET_SH_>
  4047a8:	48 83 c4 30          	add    $0x30,%rsp
  4047ac:	5d                   	pop    %rbp
  4047ad:	c3                   	retq   
  4047ae:	66 90                	xchg   %ax,%ax

00000000004047b0 <_ZN5boost17range_adl_barrier5beginINSt7__cxx1112basic_stringIcSt11char_traitsIcESaIcEEEEENS_14range_iteratorIKT_vE4typeERSA_>:
  4047b0:	55                   	push   %rbp
  4047b1:	48 89 e5             	mov    %rsp,%rbp
  4047b4:	48 83 ec 10          	sub    $0x10,%rsp
  4047b8:	48 89 7d f0          	mov    %rdi,-0x10(%rbp)
  4047bc:	48 8b 7d f0          	mov    -0x10(%rbp),%rdi
  4047c0:	e8 1b 00 00 00       	callq  4047e0 <_ZN5boost12range_detail11range_beginIKNSt7__cxx1112basic_stringIcSt11char_traitsIcESaIcEEEEENS_14range_iteratorIT_vE4typeERSA_>
  4047c5:	48 89 45 f8          	mov    %rax,-0x8(%rbp)
  4047c9:	48 8b 45 f8          	mov    -0x8(%rbp),%rax
  4047cd:	48 83 c4 10          	add    $0x10,%rsp
  4047d1:	5d                   	pop    %rbp
  4047d2:	c3                   	retq   
  4047d3:	66 2e 0f 1f 84 00 00 	nopw   %cs:0x0(%rax,%rax,1)
  4047da:	00 00 00 
  4047dd:	0f 1f 00             	nopl   (%rax)

00000000004047e0 <_ZN5boost12range_detail11range_beginIKNSt7__cxx1112basic_stringIcSt11char_traitsIcESaIcEEEEENS_14range_iteratorIT_vE4typeERSA_>:
  4047e0:	55                   	push   %rbp
  4047e1:	48 89 e5             	mov    %rsp,%rbp
  4047e4:	48 83 ec 10          	sub    $0x10,%rsp
  4047e8:	48 89 7d f0          	mov    %rdi,-0x10(%rbp)
  4047ec:	48 8b 7d f0          	mov    -0x10(%rbp),%rdi
  4047f0:	e8 3b ea ff ff       	callq  403230 <_ZNKSt7__cxx1112basic_stringIcSt11char_traitsIcESaIcEE5beginEv@plt>
  4047f5:	48 89 45 f8          	mov    %rax,-0x8(%rbp)
  4047f9:	48 8b 45 f8          	mov    -0x8(%rbp),%rax
  4047fd:	48 83 c4 10          	add    $0x10,%rsp
  404801:	5d                   	pop    %rbp
  404802:	c3                   	retq   
  404803:	66 2e 0f 1f 84 00 00 	nopw   %cs:0x0(%rax,%rax,1)
  40480a:	00 00 00 
  40480d:	0f 1f 00             	nopl   (%rax)

0000000000404810 <_ZN5boost17range_adl_barrier3endINSt7__cxx1112basic_stringIcSt11char_traitsIcESaIcEEEEENS_14range_iteratorIKT_vE4typeERSA_>:
  404810:	55                   	push   %rbp
  404811:	48 89 e5             	mov    %rsp,%rbp
  404814:	48 83 ec 10          	sub    $0x10,%rsp
  404818:	48 89 7d f0          	mov    %rdi,-0x10(%rbp)
  40481c:	48 8b 7d f0          	mov    -0x10(%rbp),%rdi
  404820:	e8 1b 00 00 00       	callq  404840 <_ZN5boost12range_detail9range_endIKNSt7__cxx1112basic_stringIcSt11char_traitsIcESaIcEEEEENS_14range_iteratorIT_vE4typeERSA_>
  404825:	48 89 45 f8          	mov    %rax,-0x8(%rbp)
  404829:	48 8b 45 f8          	mov    -0x8(%rbp),%rax
  40482d:	48 83 c4 10          	add    $0x10,%rsp
  404831:	5d                   	pop    %rbp
  404832:	c3                   	retq   
  404833:	66 2e 0f 1f 84 00 00 	nopw   %cs:0x0(%rax,%rax,1)
  40483a:	00 00 00 
  40483d:	0f 1f 00             	nopl   (%rax)

0000000000404840 <_ZN5boost12range_detail9range_endIKNSt7__cxx1112basic_stringIcSt11char_traitsIcESaIcEEEEENS_14range_iteratorIT_vE4typeERSA_>:
  404840:	55                   	push   %rbp
  404841:	48 89 e5             	mov    %rsp,%rbp
  404844:	48 83 ec 10          	sub    $0x10,%rsp
  404848:	48 89 7d f0          	mov    %rdi,-0x10(%rbp)
  40484c:	48 8b 7d f0          	mov    -0x10(%rbp),%rdi
  404850:	e8 bb eb ff ff       	callq  403410 <_ZNKSt7__cxx1112basic_stringIcSt11char_traitsIcESaIcEE3endEv@plt>
  404855:	48 89 45 f8          	mov    %rax,-0x8(%rbp)
  404859:	48 8b 45 f8          	mov    -0x8(%rbp),%rax
  40485d:	48 83 c4 10          	add    $0x10,%rsp
  404861:	5d                   	pop    %rbp
  404862:	c3                   	retq   
  404863:	66 2e 0f 1f 84 00 00 	nopw   %cs:0x0(%rax,%rax,1)
  40486a:	00 00 00 
  40486d:	0f 1f 00             	nopl   (%rax)

0000000000404870 <_ZN5boost21iterator_range_detail19iterator_range_baseIN9__gnu_cxx17__normal_iteratorIPKcNSt7__cxx1112basic_stringIcSt11char_traitsIcESaIcEEEEENS_9iterators27bidirectional_traversal_tagEEC2ISC_EET_SH_>:
  404870:	55                   	push   %rbp
  404871:	48 89 e5             	mov    %rsp,%rbp
  404874:	48 83 ec 30          	sub    $0x30,%rsp
  404878:	48 89 75 f8          	mov    %rsi,-0x8(%rbp)
  40487c:	48 89 55 f0          	mov    %rdx,-0x10(%rbp)
  404880:	48 89 7d e8          	mov    %rdi,-0x18(%rbp)
  404884:	48 8b 45 e8          	mov    -0x18(%rbp),%rax
  404888:	48 8b 4d f8          	mov    -0x8(%rbp),%rcx
  40488c:	48 89 4d e0          	mov    %rcx,-0x20(%rbp)
  404890:	48 8b 4d f0          	mov    -0x10(%rbp),%rcx
  404894:	48 89 4d d8          	mov    %rcx,-0x28(%rbp)
  404898:	48 8b 75 e0          	mov    -0x20(%rbp),%rsi
  40489c:	48 8b 55 d8          	mov    -0x28(%rbp),%rdx
  4048a0:	48 89 c7             	mov    %rax,%rdi
  4048a3:	e8 08 00 00 00       	callq  4048b0 <_ZN5boost21iterator_range_detail19iterator_range_baseIN9__gnu_cxx17__normal_iteratorIPKcNSt7__cxx1112basic_stringIcSt11char_traitsIcESaIcEEEEENS_9iterators27incrementable_traversal_tagEEC2ISC_EET_SH_>
  4048a8:	48 83 c4 30          	add    $0x30,%rsp
  4048ac:	5d                   	pop    %rbp
  4048ad:	c3                   	retq   
  4048ae:	66 90                	xchg   %ax,%ax

00000000004048b0 <_ZN5boost21iterator_range_detail19iterator_range_baseIN9__gnu_cxx17__normal_iteratorIPKcNSt7__cxx1112basic_stringIcSt11char_traitsIcESaIcEEEEENS_9iterators27incrementable_traversal_tagEEC2ISC_EET_SH_>:
  4048b0:	55                   	push   %rbp
  4048b1:	48 89 e5             	mov    %rsp,%rbp
  4048b4:	48 89 75 f8          	mov    %rsi,-0x8(%rbp)
  4048b8:	48 89 55 f0          	mov    %rdx,-0x10(%rbp)
  4048bc:	48 89 7d e8          	mov    %rdi,-0x18(%rbp)
  4048c0:	48 8b 45 e8          	mov    -0x18(%rbp),%rax
  4048c4:	48 8b 4d f8          	mov    -0x8(%rbp),%rcx
  4048c8:	48 89 08             	mov    %rcx,(%rax)
  4048cb:	48 8b 4d f0          	mov    -0x10(%rbp),%rcx
  4048cf:	48 89 48 08          	mov    %rcx,0x8(%rax)
  4048d3:	5d                   	pop    %rbp
  4048d4:	c3                   	retq   
  4048d5:	66 2e 0f 1f 84 00 00 	nopw   %cs:0x0(%rax,%rax,1)
  4048dc:	00 00 00 
  4048df:	90                   	nop

00000000004048e0 <_ZN5boost26range_distance_adl_barrier8distanceINS_14iterator_rangeIN9__gnu_cxx17__normal_iteratorIPKcNSt7__cxx1112basic_stringIcSt11char_traitsIcESaIcEEEEEEEEENS_16range_differenceIT_E4typeERKSG_>:
  4048e0:	55                   	push   %rbp
  4048e1:	48 89 e5             	mov    %rsp,%rbp
  4048e4:	48 83 ec 20          	sub    $0x20,%rsp
  4048e8:	48 89 7d f8          	mov    %rdi,-0x8(%rbp)
  4048ec:	48 8b 7d f8          	mov    -0x8(%rbp),%rdi
  4048f0:	e8 ab 00 00 00       	callq  4049a0 <_ZN5boost17range_adl_barrier5beginINS_14iterator_rangeIN9__gnu_cxx17__normal_iteratorIPKcNSt7__cxx1112basic_stringIcSt11char_traitsIcESaIcEEEEEEEEENS_14range_iteratorIKT_vE4typeERSH_>
  4048f5:	48 89 45 f0          	mov    %rax,-0x10(%rbp)
  4048f9:	48 8b 7d f8          	mov    -0x8(%rbp),%rdi
  4048fd:	e8 ce 00 00 00       	callq  4049d0 <_ZN5boost17range_adl_barrier3endINS_14iterator_rangeIN9__gnu_cxx17__normal_iteratorIPKcNSt7__cxx1112basic_stringIcSt11char_traitsIcESaIcEEEEEEEEENS_14range_iteratorIKT_vE4typeERSH_>
  404902:	48 89 45 e8          	mov    %rax,-0x18(%rbp)
  404906:	48 8b 7d f0          	mov    -0x10(%rbp),%rdi
  40490a:	48 8b 75 e8          	mov    -0x18(%rbp),%rsi
  40490e:	e8 2d 01 00 00       	callq  404a40 <_ZN5boost9iterators20distance_adl_barrier8distanceIN9__gnu_cxx17__normal_iteratorIPKcNSt7__cxx1112basic_stringIcSt11char_traitsIcESaIcEEEEEEENS0_19iterator_differenceIT_E4typeESF_SF_>
  404913:	48 83 c4 20          	add    $0x20,%rsp
  404917:	5d                   	pop    %rbp
  404918:	c3                   	retq   
  404919:	0f 1f 80 00 00 00 00 	nopl   0x0(%rax)

0000000000404920 <_ZN5boost9algorithm6detail10is_any_ofFIcE17use_fixed_storageEm>:
  404920:	55                   	push   %rbp
  404921:	48 89 e5             	mov    %rsp,%rbp
  404924:	48 89 7d f8          	mov    %rdi,-0x8(%rbp)
  404928:	48 83 7d f8 10       	cmpq   $0x10,-0x8(%rbp)
  40492d:	0f 96 c0             	setbe  %al
  404930:	24 01                	and    $0x1,%al
  404932:	0f b6 c0             	movzbl %al,%eax
  404935:	5d                   	pop    %rbp
  404936:	c3                   	retq   
  404937:	66 0f 1f 84 00 00 00 	nopw   0x0(%rax,%rax,1)
  40493e:	00 00 

0000000000404940 <_ZSt4copyIN9__gnu_cxx17__normal_iteratorIPKcNSt7__cxx1112basic_stringIcSt11char_traitsIcESaIcEEEEEPcET0_T_SD_SC_>:
  404940:	55                   	push   %rbp
  404941:	48 89 e5             	mov    %rsp,%rbp
  404944:	48 83 ec 40          	sub    $0x40,%rsp
  404948:	48 89 7d f8          	mov    %rdi,-0x8(%rbp)
  40494c:	48 89 75 f0          	mov    %rsi,-0x10(%rbp)
  404950:	48 89 55 e8          	mov    %rdx,-0x18(%rbp)
  404954:	48 8b 45 f8          	mov    -0x8(%rbp),%rax
  404958:	48 89 45 d8          	mov    %rax,-0x28(%rbp)
  40495c:	48 8b 7d d8          	mov    -0x28(%rbp),%rdi
  404960:	e8 0b 02 00 00       	callq  404b70 <_ZSt12__miter_baseIN9__gnu_cxx17__normal_iteratorIPKcNSt7__cxx1112basic_stringIcSt11char_traitsIcESaIcEEEEEET_SB_>
  404965:	48 89 45 e0          	mov    %rax,-0x20(%rbp)
  404969:	48 8b 45 f0          	mov    -0x10(%rbp),%rax
  40496d:	48 89 45 c8          	mov    %rax,-0x38(%rbp)
  404971:	48 8b 7d c8          	mov    -0x38(%rbp),%rdi
  404975:	e8 f6 01 00 00       	callq  404b70 <_ZSt12__miter_baseIN9__gnu_cxx17__normal_iteratorIPKcNSt7__cxx1112basic_stringIcSt11char_traitsIcESaIcEEEEEET_SB_>
  40497a:	48 89 45 d0          	mov    %rax,-0x30(%rbp)
  40497e:	48 8b 55 e8          	mov    -0x18(%rbp),%rdx
  404982:	48 8b 7d e0          	mov    -0x20(%rbp),%rdi
  404986:	48 8b 75 d0          	mov    -0x30(%rbp),%rsi
  40498a:	e8 71 01 00 00       	callq  404b00 <_ZSt14__copy_move_a2ILb0EN9__gnu_cxx17__normal_iteratorIPKcNSt7__cxx1112basic_stringIcSt11char_traitsIcESaIcEEEEEPcET1_T0_SD_SC_>
  40498f:	48 83 c4 40          	add    $0x40,%rsp
  404993:	5d                   	pop    %rbp
  404994:	c3                   	retq   
  404995:	66 2e 0f 1f 84 00 00 	nopw   %cs:0x0(%rax,%rax,1)
  40499c:	00 00 00 
  40499f:	90                   	nop

00000000004049a0 <_ZN5boost17range_adl_barrier5beginINS_14iterator_rangeIN9__gnu_cxx17__normal_iteratorIPKcNSt7__cxx1112basic_stringIcSt11char_traitsIcESaIcEEEEEEEEENS_14range_iteratorIKT_vE4typeERSH_>:
  4049a0:	55                   	push   %rbp
  4049a1:	48 89 e5             	mov    %rsp,%rbp
  4049a4:	48 83 ec 10          	sub    $0x10,%rsp
  4049a8:	48 89 7d f0          	mov    %rdi,-0x10(%rbp)
  4049ac:	48 8b 7d f0          	mov    -0x10(%rbp),%rdi
  4049b0:	e8 bb 02 00 00       	callq  404c70 <_ZN5boost12range_detail11range_beginIKNS_14iterator_rangeIN9__gnu_cxx17__normal_iteratorIPKcNSt7__cxx1112basic_stringIcSt11char_traitsIcESaIcEEEEEEEEENS_14range_iteratorIT_vE4typeERSH_>
  4049b5:	48 89 45 f8          	mov    %rax,-0x8(%rbp)
  4049b9:	48 8b 45 f8          	mov    -0x8(%rbp),%rax
  4049bd:	48 83 c4 10          	add    $0x10,%rsp
  4049c1:	5d                   	pop    %rbp
  4049c2:	c3                   	retq   
  4049c3:	66 2e 0f 1f 84 00 00 	nopw   %cs:0x0(%rax,%rax,1)
  4049ca:	00 00 00 
  4049cd:	0f 1f 00             	nopl   (%rax)

00000000004049d0 <_ZN5boost17range_adl_barrier3endINS_14iterator_rangeIN9__gnu_cxx17__normal_iteratorIPKcNSt7__cxx1112basic_stringIcSt11char_traitsIcESaIcEEEEEEEEENS_14range_iteratorIKT_vE4typeERSH_>:
  4049d0:	55                   	push   %rbp
  4049d1:	48 89 e5             	mov    %rsp,%rbp
  4049d4:	48 83 ec 10          	sub    $0x10,%rsp
  4049d8:	48 89 7d f0          	mov    %rdi,-0x10(%rbp)
  4049dc:	48 8b 7d f0          	mov    -0x10(%rbp),%rdi
  4049e0:	e8 db 02 00 00       	callq  404cc0 <_ZN5boost12range_detail9range_endIKNS_14iterator_rangeIN9__gnu_cxx17__normal_iteratorIPKcNSt7__cxx1112basic_stringIcSt11char_traitsIcESaIcEEEEEEEEENS_14range_iteratorIT_vE4typeERSH_>
  4049e5:	48 89 45 f8          	mov    %rax,-0x8(%rbp)
  4049e9:	48 8b 45 f8          	mov    -0x8(%rbp),%rax
  4049ed:	48 83 c4 10          	add    $0x10,%rsp
  4049f1:	5d                   	pop    %rbp
  4049f2:	c3                   	retq   
  4049f3:	66 2e 0f 1f 84 00 00 	nopw   %cs:0x0(%rax,%rax,1)
  4049fa:	00 00 00 
  4049fd:	0f 1f 00             	nopl   (%rax)

0000000000404a00 <_ZSt4sortIPcEvT_S1_>:
  404a00:	55                   	push   %rbp
  404a01:	48 89 e5             	mov    %rsp,%rbp
  404a04:	48 83 ec 30          	sub    $0x30,%rsp
  404a08:	48 89 7d f8          	mov    %rdi,-0x8(%rbp)
  404a0c:	48 89 75 f0          	mov    %rsi,-0x10(%rbp)
  404a10:	48 8b 7d f8          	mov    -0x8(%rbp),%rdi
  404a14:	48 8b 75 f0          	mov    -0x10(%rbp),%rsi
  404a18:	48 89 7d d8          	mov    %rdi,-0x28(%rbp)
  404a1c:	48 89 75 d0          	mov    %rsi,-0x30(%rbp)
  404a20:	e8 5b 03 00 00       	callq  404d80 <_ZN9__gnu_cxx5__ops16__iter_less_iterEv>
  404a25:	48 8b 7d d8          	mov    -0x28(%rbp),%rdi
  404a29:	48 8b 75 d0          	mov    -0x30(%rbp),%rsi
  404a2d:	e8 de 02 00 00       	callq  404d10 <_ZSt6__sortIPcN9__gnu_cxx5__ops15_Iter_less_iterEEvT_S4_T0_>
  404a32:	48 83 c4 30          	add    $0x30,%rsp
  404a36:	5d                   	pop    %rbp
  404a37:	c3                   	retq   
  404a38:	0f 1f 84 00 00 00 00 	nopl   0x0(%rax,%rax,1)
  404a3f:	00 

0000000000404a40 <_ZN5boost9iterators20distance_adl_barrier8distanceIN9__gnu_cxx17__normal_iteratorIPKcNSt7__cxx1112basic_stringIcSt11char_traitsIcESaIcEEEEEEENS0_19iterator_differenceIT_E4typeESF_SF_>:
  404a40:	55                   	push   %rbp
  404a41:	48 89 e5             	mov    %rsp,%rbp
  404a44:	48 83 ec 30          	sub    $0x30,%rsp
  404a48:	48 89 7d f8          	mov    %rdi,-0x8(%rbp)
  404a4c:	48 89 75 f0          	mov    %rsi,-0x10(%rbp)
  404a50:	48 8b 45 f8          	mov    -0x8(%rbp),%rax
  404a54:	48 89 45 e8          	mov    %rax,-0x18(%rbp)
  404a58:	48 8b 45 f0          	mov    -0x10(%rbp),%rax
  404a5c:	48 89 45 e0          	mov    %rax,-0x20(%rbp)
  404a60:	48 8b 7d e8          	mov    -0x18(%rbp),%rdi
  404a64:	48 8b 75 e0          	mov    -0x20(%rbp),%rsi
  404a68:	e8 13 00 00 00       	callq  404a80 <_ZN5boost9iterators6detail13distance_implIN9__gnu_cxx17__normal_iteratorIPKcNSt7__cxx1112basic_stringIcSt11char_traitsIcESaIcEEEEEEENS0_19iterator_differenceIT_E4typeESF_SF_NS0_27random_access_traversal_tagE>
  404a6d:	48 83 c4 30          	add    $0x30,%rsp
  404a71:	5d                   	pop    %rbp
  404a72:	c3                   	retq   
  404a73:	66 2e 0f 1f 84 00 00 	nopw   %cs:0x0(%rax,%rax,1)
  404a7a:	00 00 00 
  404a7d:	0f 1f 00             	nopl   (%rax)

0000000000404a80 <_ZN5boost9iterators6detail13distance_implIN9__gnu_cxx17__normal_iteratorIPKcNSt7__cxx1112basic_stringIcSt11char_traitsIcESaIcEEEEEEENS0_19iterator_differenceIT_E4typeESF_SF_NS0_27random_access_traversal_tagE>:
  404a80:	55                   	push   %rbp
  404a81:	48 89 e5             	mov    %rsp,%rbp
  404a84:	48 83 ec 20          	sub    $0x20,%rsp
  404a88:	48 89 7d f8          	mov    %rdi,-0x8(%rbp)
  404a8c:	48 89 75 f0          	mov    %rsi,-0x10(%rbp)
  404a90:	48 8d 7d f0          	lea    -0x10(%rbp),%rdi
  404a94:	48 8d 75 f8          	lea    -0x8(%rbp),%rsi
  404a98:	e8 13 00 00 00       	callq  404ab0 <_ZN9__gnu_cxxmiIPKcNSt7__cxx1112basic_stringIcSt11char_traitsIcESaIcEEEEENS_17__normal_iteratorIT_T0_E15difference_typeERKSC_SF_>
  404a9d:	48 83 c4 20          	add    $0x20,%rsp
  404aa1:	5d                   	pop    %rbp
  404aa2:	c3                   	retq   
  404aa3:	66 2e 0f 1f 84 00 00 	nopw   %cs:0x0(%rax,%rax,1)
  404aaa:	00 00 00 
  404aad:	0f 1f 00             	nopl   (%rax)

0000000000404ab0 <_ZN9__gnu_cxxmiIPKcNSt7__cxx1112basic_stringIcSt11char_traitsIcESaIcEEEEENS_17__normal_iteratorIT_T0_E15difference_typeERKSC_SF_>:
  404ab0:	55                   	push   %rbp
  404ab1:	48 89 e5             	mov    %rsp,%rbp
  404ab4:	48 83 ec 20          	sub    $0x20,%rsp
  404ab8:	48 89 7d f8          	mov    %rdi,-0x8(%rbp)
  404abc:	48 89 75 f0          	mov    %rsi,-0x10(%rbp)
  404ac0:	48 8b 7d f8          	mov    -0x8(%rbp),%rdi
  404ac4:	e8 27 00 00 00       	callq  404af0 <_ZNK9__gnu_cxx17__normal_iteratorIPKcNSt7__cxx1112basic_stringIcSt11char_traitsIcESaIcEEEE4baseEv>
  404ac9:	48 8b 00             	mov    (%rax),%rax
  404acc:	48 8b 7d f0          	mov    -0x10(%rbp),%rdi
  404ad0:	48 89 45 e8          	mov    %rax,-0x18(%rbp)
  404ad4:	e8 17 00 00 00       	callq  404af0 <_ZNK9__gnu_cxx17__normal_iteratorIPKcNSt7__cxx1112basic_stringIcSt11char_traitsIcESaIcEEEE4baseEv>
  404ad9:	48 8b 00             	mov    (%rax),%rax
  404adc:	48 8b 4d e8          	mov    -0x18(%rbp),%rcx
  404ae0:	48 29 c1             	sub    %rax,%rcx
  404ae3:	48 89 c8             	mov    %rcx,%rax
  404ae6:	48 83 c4 20          	add    $0x20,%rsp
  404aea:	5d                   	pop    %rbp
  404aeb:	c3                   	retq   
  404aec:	0f 1f 40 00          	nopl   0x0(%rax)

0000000000404af0 <_ZNK9__gnu_cxx17__normal_iteratorIPKcNSt7__cxx1112basic_stringIcSt11char_traitsIcESaIcEEEE4baseEv>:
  404af0:	55                   	push   %rbp
  404af1:	48 89 e5             	mov    %rsp,%rbp
  404af4:	48 89 7d f8          	mov    %rdi,-0x8(%rbp)
  404af8:	48 8b 45 f8          	mov    -0x8(%rbp),%rax
  404afc:	5d                   	pop    %rbp
  404afd:	c3                   	retq   
  404afe:	66 90                	xchg   %ax,%ax

0000000000404b00 <_ZSt14__copy_move_a2ILb0EN9__gnu_cxx17__normal_iteratorIPKcNSt7__cxx1112basic_stringIcSt11char_traitsIcESaIcEEEEEPcET1_T0_SD_SC_>:
  404b00:	55                   	push   %rbp
  404b01:	48 89 e5             	mov    %rsp,%rbp
  404b04:	48 83 ec 40          	sub    $0x40,%rsp
  404b08:	48 89 7d f8          	mov    %rdi,-0x8(%rbp)
  404b0c:	48 89 75 f0          	mov    %rsi,-0x10(%rbp)
  404b10:	48 89 55 e8          	mov    %rdx,-0x18(%rbp)
  404b14:	48 8b 45 f8          	mov    -0x8(%rbp),%rax
  404b18:	48 89 45 e0          	mov    %rax,-0x20(%rbp)
  404b1c:	48 8b 7d e0          	mov    -0x20(%rbp),%rdi
  404b20:	e8 bb 00 00 00       	callq  404be0 <_ZSt12__niter_baseIPKcNSt7__cxx1112basic_stringIcSt11char_traitsIcESaIcEEEET_N9__gnu_cxx17__normal_iteratorIS8_T0_EE>
  404b25:	48 8b 4d f0          	mov    -0x10(%rbp),%rcx
  404b29:	48 89 4d d8          	mov    %rcx,-0x28(%rbp)
  404b2d:	48 8b 7d d8          	mov    -0x28(%rbp),%rdi
  404b31:	48 89 45 d0          	mov    %rax,-0x30(%rbp)
  404b35:	e8 a6 00 00 00       	callq  404be0 <_ZSt12__niter_baseIPKcNSt7__cxx1112basic_stringIcSt11char_traitsIcESaIcEEEET_N9__gnu_cxx17__normal_iteratorIS8_T0_EE>
  404b3a:	48 8b 7d e8          	mov    -0x18(%rbp),%rdi
  404b3e:	48 89 45 c8          	mov    %rax,-0x38(%rbp)
  404b42:	e8 b9 00 00 00       	callq  404c00 <_ZSt12__niter_baseIPcET_S1_>
  404b47:	48 8b 7d d0          	mov    -0x30(%rbp),%rdi
  404b4b:	48 8b 75 c8          	mov    -0x38(%rbp),%rsi
  404b4f:	48 89 c2             	mov    %rax,%rdx
  404b52:	e8 59 00 00 00       	callq  404bb0 <_ZSt13__copy_move_aILb0EPKcPcET1_T0_S4_S3_>
  404b57:	48 8d 7d e8          	lea    -0x18(%rbp),%rdi
  404b5b:	48 89 c6             	mov    %rax,%rsi
  404b5e:	e8 2d 00 00 00       	callq  404b90 <_ZSt12__niter_wrapIPcET_RKS1_S1_>
  404b63:	48 83 c4 40          	add    $0x40,%rsp
  404b67:	5d                   	pop    %rbp
  404b68:	c3                   	retq   
  404b69:	0f 1f 80 00 00 00 00 	nopl   0x0(%rax)

0000000000404b70 <_ZSt12__miter_baseIN9__gnu_cxx17__normal_iteratorIPKcNSt7__cxx1112basic_stringIcSt11char_traitsIcESaIcEEEEEET_SB_>:
  404b70:	55                   	push   %rbp
  404b71:	48 89 e5             	mov    %rsp,%rbp
  404b74:	48 89 7d f0          	mov    %rdi,-0x10(%rbp)
  404b78:	48 8b 45 f0          	mov    -0x10(%rbp),%rax
  404b7c:	48 89 45 f8          	mov    %rax,-0x8(%rbp)
  404b80:	48 8b 45 f8          	mov    -0x8(%rbp),%rax
  404b84:	5d                   	pop    %rbp
  404b85:	c3                   	retq   
  404b86:	66 2e 0f 1f 84 00 00 	nopw   %cs:0x0(%rax,%rax,1)
  404b8d:	00 00 00 

0000000000404b90 <_ZSt12__niter_wrapIPcET_RKS1_S1_>:
  404b90:	55                   	push   %rbp
  404b91:	48 89 e5             	mov    %rsp,%rbp
  404b94:	48 89 7d f8          	mov    %rdi,-0x8(%rbp)
  404b98:	48 89 75 f0          	mov    %rsi,-0x10(%rbp)
  404b9c:	48 8b 45 f0          	mov    -0x10(%rbp),%rax
  404ba0:	5d                   	pop    %rbp
  404ba1:	c3                   	retq   
  404ba2:	66 2e 0f 1f 84 00 00 	nopw   %cs:0x0(%rax,%rax,1)
  404ba9:	00 00 00 
  404bac:	0f 1f 40 00          	nopl   0x0(%rax)

0000000000404bb0 <_ZSt13__copy_move_aILb0EPKcPcET1_T0_S4_S3_>:
  404bb0:	55                   	push   %rbp
  404bb1:	48 89 e5             	mov    %rsp,%rbp
  404bb4:	48 83 ec 20          	sub    $0x20,%rsp
  404bb8:	48 89 7d f8          	mov    %rdi,-0x8(%rbp)
  404bbc:	48 89 75 f0          	mov    %rsi,-0x10(%rbp)
  404bc0:	48 89 55 e8          	mov    %rdx,-0x18(%rbp)
  404bc4:	c6 45 e7 01          	movb   $0x1,-0x19(%rbp)
  404bc8:	48 8b 7d f8          	mov    -0x8(%rbp),%rdi
  404bcc:	48 8b 75 f0          	mov    -0x10(%rbp),%rsi
  404bd0:	48 8b 55 e8          	mov    -0x18(%rbp),%rdx
  404bd4:	e8 37 00 00 00       	callq  404c10 <_ZNSt11__copy_moveILb0ELb1ESt26random_access_iterator_tagE8__copy_mIcEEPT_PKS3_S6_S4_>
  404bd9:	48 83 c4 20          	add    $0x20,%rsp
  404bdd:	5d                   	pop    %rbp
  404bde:	c3                   	retq   
  404bdf:	90                   	nop

0000000000404be0 <_ZSt12__niter_baseIPKcNSt7__cxx1112basic_stringIcSt11char_traitsIcESaIcEEEET_N9__gnu_cxx17__normal_iteratorIS8_T0_EE>:
  404be0:	55                   	push   %rbp
  404be1:	48 89 e5             	mov    %rsp,%rbp
  404be4:	48 83 ec 10          	sub    $0x10,%rsp
  404be8:	48 89 7d f8          	mov    %rdi,-0x8(%rbp)
  404bec:	48 8d 7d f8          	lea    -0x8(%rbp),%rdi
  404bf0:	e8 fb fe ff ff       	callq  404af0 <_ZNK9__gnu_cxx17__normal_iteratorIPKcNSt7__cxx1112basic_stringIcSt11char_traitsIcESaIcEEEE4baseEv>
  404bf5:	48 8b 00             	mov    (%rax),%rax
  404bf8:	48 83 c4 10          	add    $0x10,%rsp
  404bfc:	5d                   	pop    %rbp
  404bfd:	c3                   	retq   
  404bfe:	66 90                	xchg   %ax,%ax

0000000000404c00 <_ZSt12__niter_baseIPcET_S1_>:
  404c00:	55                   	push   %rbp
  404c01:	48 89 e5             	mov    %rsp,%rbp
  404c04:	48 89 7d f8          	mov    %rdi,-0x8(%rbp)
  404c08:	48 8b 45 f8          	mov    -0x8(%rbp),%rax
  404c0c:	5d                   	pop    %rbp
  404c0d:	c3                   	retq   
  404c0e:	66 90                	xchg   %ax,%ax

0000000000404c10 <_ZNSt11__copy_moveILb0ELb1ESt26random_access_iterator_tagE8__copy_mIcEEPT_PKS3_S6_S4_>:
  404c10:	55                   	push   %rbp
  404c11:	48 89 e5             	mov    %rsp,%rbp
  404c14:	48 83 ec 20          	sub    $0x20,%rsp
  404c18:	48 89 7d f8          	mov    %rdi,-0x8(%rbp)
  404c1c:	48 89 75 f0          	mov    %rsi,-0x10(%rbp)
  404c20:	48 89 55 e8          	mov    %rdx,-0x18(%rbp)
  404c24:	48 8b 45 f0          	mov    -0x10(%rbp),%rax
  404c28:	48 8b 4d f8          	mov    -0x8(%rbp),%rcx
  404c2c:	48 29 c8             	sub    %rcx,%rax
  404c2f:	48 89 45 e0          	mov    %rax,-0x20(%rbp)
  404c33:	48 83 7d e0 00       	cmpq   $0x0,-0x20(%rbp)
  404c38:	0f 84 18 00 00 00    	je     404c56 <_ZNSt11__copy_moveILb0ELb1ESt26random_access_iterator_tagE8__copy_mIcEEPT_PKS3_S6_S4_+0x46>
  404c3e:	48 8b 7d e8          	mov    -0x18(%rbp),%rdi
  404c42:	48 8b 75 f8          	mov    -0x8(%rbp),%rsi
  404c46:	48 8b 45 e0          	mov    -0x20(%rbp),%rax
  404c4a:	48 c1 e0 00          	shl    $0x0,%rax
  404c4e:	48 89 c2             	mov    %rax,%rdx
  404c51:	e8 4a e7 ff ff       	callq  4033a0 <memmove@plt>
  404c56:	48 8b 45 e8          	mov    -0x18(%rbp),%rax
  404c5a:	48 03 45 e0          	add    -0x20(%rbp),%rax
  404c5e:	48 83 c4 20          	add    $0x20,%rsp
  404c62:	5d                   	pop    %rbp
  404c63:	c3                   	retq   
  404c64:	66 2e 0f 1f 84 00 00 	nopw   %cs:0x0(%rax,%rax,1)
  404c6b:	00 00 00 
  404c6e:	66 90                	xchg   %ax,%ax

0000000000404c70 <_ZN5boost12range_detail11range_beginIKNS_14iterator_rangeIN9__gnu_cxx17__normal_iteratorIPKcNSt7__cxx1112basic_stringIcSt11char_traitsIcESaIcEEEEEEEEENS_14range_iteratorIT_vE4typeERSH_>:
  404c70:	55                   	push   %rbp
  404c71:	48 89 e5             	mov    %rsp,%rbp
  404c74:	48 83 ec 10          	sub    $0x10,%rsp
  404c78:	48 89 7d f0          	mov    %rdi,-0x10(%rbp)
  404c7c:	48 8b 45 f0          	mov    -0x10(%rbp),%rax
  404c80:	48 89 c7             	mov    %rax,%rdi
  404c83:	e8 18 00 00 00       	callq  404ca0 <_ZNK5boost21iterator_range_detail19iterator_range_baseIN9__gnu_cxx17__normal_iteratorIPKcNSt7__cxx1112basic_stringIcSt11char_traitsIcESaIcEEEEENS_9iterators27incrementable_traversal_tagEE5beginEv>
  404c88:	48 89 45 f8          	mov    %rax,-0x8(%rbp)
  404c8c:	48 8b 45 f8          	mov    -0x8(%rbp),%rax
  404c90:	48 83 c4 10          	add    $0x10,%rsp
  404c94:	5d                   	pop    %rbp
  404c95:	c3                   	retq   
  404c96:	66 2e 0f 1f 84 00 00 	nopw   %cs:0x0(%rax,%rax,1)
  404c9d:	00 00 00 

0000000000404ca0 <_ZNK5boost21iterator_range_detail19iterator_range_baseIN9__gnu_cxx17__normal_iteratorIPKcNSt7__cxx1112basic_stringIcSt11char_traitsIcESaIcEEEEENS_9iterators27incrementable_traversal_tagEE5beginEv>:
  404ca0:	55                   	push   %rbp
  404ca1:	48 89 e5             	mov    %rsp,%rbp
  404ca4:	48 89 7d f0          	mov    %rdi,-0x10(%rbp)
  404ca8:	48 8b 45 f0          	mov    -0x10(%rbp),%rax
  404cac:	48 8b 00             	mov    (%rax),%rax
  404caf:	48 89 45 f8          	mov    %rax,-0x8(%rbp)
  404cb3:	48 8b 45 f8          	mov    -0x8(%rbp),%rax
  404cb7:	5d                   	pop    %rbp
  404cb8:	c3                   	retq   
  404cb9:	0f 1f 80 00 00 00 00 	nopl   0x0(%rax)

0000000000404cc0 <_ZN5boost12range_detail9range_endIKNS_14iterator_rangeIN9__gnu_cxx17__normal_iteratorIPKcNSt7__cxx1112basic_stringIcSt11char_traitsIcESaIcEEEEEEEEENS_14range_iteratorIT_vE4typeERSH_>:
  404cc0:	55                   	push   %rbp
  404cc1:	48 89 e5             	mov    %rsp,%rbp
  404cc4:	48 83 ec 10          	sub    $0x10,%rsp
  404cc8:	48 89 7d f0          	mov    %rdi,-0x10(%rbp)
  404ccc:	48 8b 45 f0          	mov    -0x10(%rbp),%rax
  404cd0:	48 89 c7             	mov    %rax,%rdi
  404cd3:	e8 18 00 00 00       	callq  404cf0 <_ZNK5boost21iterator_range_detail19iterator_range_baseIN9__gnu_cxx17__normal_iteratorIPKcNSt7__cxx1112basic_stringIcSt11char_traitsIcESaIcEEEEENS_9iterators27incrementable_traversal_tagEE3endEv>
  404cd8:	48 89 45 f8          	mov    %rax,-0x8(%rbp)
  404cdc:	48 8b 45 f8          	mov    -0x8(%rbp),%rax
  404ce0:	48 83 c4 10          	add    $0x10,%rsp
  404ce4:	5d                   	pop    %rbp
  404ce5:	c3                   	retq   
  404ce6:	66 2e 0f 1f 84 00 00 	nopw   %cs:0x0(%rax,%rax,1)
  404ced:	00 00 00 

0000000000404cf0 <_ZNK5boost21iterator_range_detail19iterator_range_baseIN9__gnu_cxx17__normal_iteratorIPKcNSt7__cxx1112basic_stringIcSt11char_traitsIcESaIcEEEEENS_9iterators27incrementable_traversal_tagEE3endEv>:
  404cf0:	55                   	push   %rbp
  404cf1:	48 89 e5             	mov    %rsp,%rbp
  404cf4:	48 89 7d f0          	mov    %rdi,-0x10(%rbp)
  404cf8:	48 8b 45 f0          	mov    -0x10(%rbp),%rax
  404cfc:	48 8b 40 08          	mov    0x8(%rax),%rax
  404d00:	48 89 45 f8          	mov    %rax,-0x8(%rbp)
  404d04:	48 8b 45 f8          	mov    -0x8(%rbp),%rax
  404d08:	5d                   	pop    %rbp
  404d09:	c3                   	retq   
  404d0a:	66 0f 1f 44 00 00    	nopw   0x0(%rax,%rax,1)

0000000000404d10 <_ZSt6__sortIPcN9__gnu_cxx5__ops15_Iter_less_iterEEvT_S4_T0_>:
  404d10:	55                   	push   %rbp
  404d11:	48 89 e5             	mov    %rsp,%rbp
  404d14:	48 83 ec 40          	sub    $0x40,%rsp
  404d18:	48 89 7d f0          	mov    %rdi,-0x10(%rbp)
  404d1c:	48 89 75 e8          	mov    %rsi,-0x18(%rbp)
  404d20:	48 8b 45 f0          	mov    -0x10(%rbp),%rax
  404d24:	48 3b 45 e8          	cmp    -0x18(%rbp),%rax
  404d28:	0f 84 44 00 00 00    	je     404d72 <_ZSt6__sortIPcN9__gnu_cxx5__ops15_Iter_less_iterEEvT_S4_T0_+0x62>
  404d2e:	48 8b 7d f0          	mov    -0x10(%rbp),%rdi
  404d32:	48 8b 75 e8          	mov    -0x18(%rbp),%rsi
  404d36:	48 8b 45 e8          	mov    -0x18(%rbp),%rax
  404d3a:	48 8b 4d f0          	mov    -0x10(%rbp),%rcx
  404d3e:	48 29 c8             	sub    %rcx,%rax
  404d41:	48 89 7d d0          	mov    %rdi,-0x30(%rbp)
  404d45:	48 89 c7             	mov    %rax,%rdi
  404d48:	48 89 75 c8          	mov    %rsi,-0x38(%rbp)
  404d4c:	e8 cf 00 00 00       	callq  404e20 <_ZSt4__lgl>
  404d51:	48 c1 e0 01          	shl    $0x1,%rax
  404d55:	48 8b 7d d0          	mov    -0x30(%rbp),%rdi
  404d59:	48 8b 75 c8          	mov    -0x38(%rbp),%rsi
  404d5d:	48 89 c2             	mov    %rax,%rdx
  404d60:	e8 2b 00 00 00       	callq  404d90 <_ZSt16__introsort_loopIPclN9__gnu_cxx5__ops15_Iter_less_iterEEvT_S4_T0_T1_>
  404d65:	48 8b 7d f0          	mov    -0x10(%rbp),%rdi
  404d69:	48 8b 75 e8          	mov    -0x18(%rbp),%rsi
  404d6d:	e8 ce 00 00 00       	callq  404e40 <_ZSt22__final_insertion_sortIPcN9__gnu_cxx5__ops15_Iter_less_iterEEvT_S4_T0_>
  404d72:	48 83 c4 40          	add    $0x40,%rsp
  404d76:	5d                   	pop    %rbp
  404d77:	c3                   	retq   
  404d78:	0f 1f 84 00 00 00 00 	nopl   0x0(%rax,%rax,1)
  404d7f:	00 

0000000000404d80 <_ZN9__gnu_cxx5__ops16__iter_less_iterEv>:
  404d80:	55                   	push   %rbp
  404d81:	48 89 e5             	mov    %rsp,%rbp
  404d84:	5d                   	pop    %rbp
  404d85:	c3                   	retq   
  404d86:	66 2e 0f 1f 84 00 00 	nopw   %cs:0x0(%rax,%rax,1)
  404d8d:	00 00 00 

0000000000404d90 <_ZSt16__introsort_loopIPclN9__gnu_cxx5__ops15_Iter_less_iterEEvT_S4_T0_T1_>:
  404d90:	55                   	push   %rbp
  404d91:	48 89 e5             	mov    %rsp,%rbp
  404d94:	48 83 ec 40          	sub    $0x40,%rsp
  404d98:	48 89 7d f0          	mov    %rdi,-0x10(%rbp)
  404d9c:	48 89 75 e8          	mov    %rsi,-0x18(%rbp)
  404da0:	48 89 55 e0          	mov    %rdx,-0x20(%rbp)
  404da4:	48 8b 45 e8          	mov    -0x18(%rbp),%rax
  404da8:	48 8b 4d f0          	mov    -0x10(%rbp),%rcx
  404dac:	48 29 c8             	sub    %rcx,%rax
  404daf:	48 83 f8 10          	cmp    $0x10,%rax
  404db3:	0f 8e 5e 00 00 00    	jle    404e17 <_ZSt16__introsort_loopIPclN9__gnu_cxx5__ops15_Iter_less_iterEEvT_S4_T0_T1_+0x87>
  404db9:	48 83 7d e0 00       	cmpq   $0x0,-0x20(%rbp)
  404dbe:	0f 85 16 00 00 00    	jne    404dda <_ZSt16__introsort_loopIPclN9__gnu_cxx5__ops15_Iter_less_iterEEvT_S4_T0_T1_+0x4a>
  404dc4:	48 8b 7d f0          	mov    -0x10(%rbp),%rdi
  404dc8:	48 8b 75 e8          	mov    -0x18(%rbp),%rsi
  404dcc:	48 8b 55 e8          	mov    -0x18(%rbp),%rdx
  404dd0:	e8 db 00 00 00       	callq  404eb0 <_ZSt14__partial_sortIPcN9__gnu_cxx5__ops15_Iter_less_iterEEvT_S4_S4_T0_>
  404dd5:	e9 3d 00 00 00       	jmpq   404e17 <_ZSt16__introsort_loopIPclN9__gnu_cxx5__ops15_Iter_less_iterEEvT_S4_T0_T1_+0x87>
  404dda:	48 8b 45 e0          	mov    -0x20(%rbp),%rax
  404dde:	48 05 ff ff ff ff    	add    $0xffffffffffffffff,%rax
  404de4:	48 89 45 e0          	mov    %rax,-0x20(%rbp)
  404de8:	48 8b 7d f0          	mov    -0x10(%rbp),%rdi
  404dec:	48 8b 75 e8          	mov    -0x18(%rbp),%rsi
  404df0:	e8 fb 00 00 00       	callq  404ef0 <_ZSt27__unguarded_partition_pivotIPcN9__gnu_cxx5__ops15_Iter_less_iterEET_S4_S4_T0_>
  404df5:	48 89 45 d0          	mov    %rax,-0x30(%rbp)
  404df9:	48 8b 7d d0          	mov    -0x30(%rbp),%rdi
  404dfd:	48 8b 75 e8          	mov    -0x18(%rbp),%rsi
  404e01:	48 8b 55 e0          	mov    -0x20(%rbp),%rdx
  404e05:	e8 86 ff ff ff       	callq  404d90 <_ZSt16__introsort_loopIPclN9__gnu_cxx5__ops15_Iter_less_iterEEvT_S4_T0_T1_>
  404e0a:	48 8b 45 d0          	mov    -0x30(%rbp),%rax
  404e0e:	48 89 45 e8          	mov    %rax,-0x18(%rbp)
  404e12:	e9 8d ff ff ff       	jmpq   404da4 <_ZSt16__introsort_loopIPclN9__gnu_cxx5__ops15_Iter_less_iterEEvT_S4_T0_T1_+0x14>
  404e17:	48 83 c4 40          	add    $0x40,%rsp
  404e1b:	5d                   	pop    %rbp
  404e1c:	c3                   	retq   
  404e1d:	0f 1f 00             	nopl   (%rax)

0000000000404e20 <_ZSt4__lgl>:
  404e20:	55                   	push   %rbp
  404e21:	48 89 e5             	mov    %rsp,%rbp
  404e24:	48 89 7d f8          	mov    %rdi,-0x8(%rbp)
  404e28:	48 8b 45 f8          	mov    -0x8(%rbp),%rax
  404e2c:	48 0f bd c0          	bsr    %rax,%rax
  404e30:	48 83 f0 3f          	xor    $0x3f,%rax
  404e34:	b9 3f 00 00 00       	mov    $0x3f,%ecx
  404e39:	29 c1                	sub    %eax,%ecx
  404e3b:	48 63 c1             	movslq %ecx,%rax
  404e3e:	5d                   	pop    %rbp
  404e3f:	c3                   	retq   

0000000000404e40 <_ZSt22__final_insertion_sortIPcN9__gnu_cxx5__ops15_Iter_less_iterEEvT_S4_T0_>:
  404e40:	55                   	push   %rbp
  404e41:	48 89 e5             	mov    %rsp,%rbp
  404e44:	48 83 ec 30          	sub    $0x30,%rsp
  404e48:	48 89 7d f0          	mov    %rdi,-0x10(%rbp)
  404e4c:	48 89 75 e8          	mov    %rsi,-0x18(%rbp)
  404e50:	48 8b 45 e8          	mov    -0x18(%rbp),%rax
  404e54:	48 8b 4d f0          	mov    -0x10(%rbp),%rcx
  404e58:	48 29 c8             	sub    %rcx,%rax
  404e5b:	48 83 f8 10          	cmp    $0x10,%rax
  404e5f:	0f 8e 31 00 00 00    	jle    404e96 <_ZSt22__final_insertion_sortIPcN9__gnu_cxx5__ops15_Iter_less_iterEEvT_S4_T0_+0x56>
  404e65:	48 8b 7d f0          	mov    -0x10(%rbp),%rdi
  404e69:	48 8b 45 f0          	mov    -0x10(%rbp),%rax
  404e6d:	48 05 10 00 00 00    	add    $0x10,%rax
  404e73:	48 89 c6             	mov    %rax,%rsi
  404e76:	e8 e5 08 00 00       	callq  405760 <_ZSt16__insertion_sortIPcN9__gnu_cxx5__ops15_Iter_less_iterEEvT_S4_T0_>
  404e7b:	48 8b 45 f0          	mov    -0x10(%rbp),%rax
  404e7f:	48 05 10 00 00 00    	add    $0x10,%rax
  404e85:	48 8b 75 e8          	mov    -0x18(%rbp),%rsi
  404e89:	48 89 c7             	mov    %rax,%rdi
  404e8c:	e8 af 09 00 00       	callq  405840 <_ZSt26__unguarded_insertion_sortIPcN9__gnu_cxx5__ops15_Iter_less_iterEEvT_S4_T0_>
  404e91:	e9 0d 00 00 00       	jmpq   404ea3 <_ZSt22__final_insertion_sortIPcN9__gnu_cxx5__ops15_Iter_less_iterEEvT_S4_T0_+0x63>
  404e96:	48 8b 7d f0          	mov    -0x10(%rbp),%rdi
  404e9a:	48 8b 75 e8          	mov    -0x18(%rbp),%rsi
  404e9e:	e8 bd 08 00 00       	callq  405760 <_ZSt16__insertion_sortIPcN9__gnu_cxx5__ops15_Iter_less_iterEEvT_S4_T0_>
  404ea3:	48 83 c4 30          	add    $0x30,%rsp
  404ea7:	5d                   	pop    %rbp
  404ea8:	c3                   	retq   
  404ea9:	0f 1f 80 00 00 00 00 	nopl   0x0(%rax)

0000000000404eb0 <_ZSt14__partial_sortIPcN9__gnu_cxx5__ops15_Iter_less_iterEEvT_S4_S4_T0_>:
  404eb0:	55                   	push   %rbp
  404eb1:	48 89 e5             	mov    %rsp,%rbp
  404eb4:	48 83 ec 30          	sub    $0x30,%rsp
  404eb8:	48 89 7d f0          	mov    %rdi,-0x10(%rbp)
  404ebc:	48 89 75 e8          	mov    %rsi,-0x18(%rbp)
  404ec0:	48 89 55 e0          	mov    %rdx,-0x20(%rbp)
  404ec4:	48 8b 7d f0          	mov    -0x10(%rbp),%rdi
  404ec8:	48 8b 75 e8          	mov    -0x18(%rbp),%rsi
  404ecc:	48 8b 55 e0          	mov    -0x20(%rbp),%rdx
  404ed0:	e8 ab 00 00 00       	callq  404f80 <_ZSt13__heap_selectIPcN9__gnu_cxx5__ops15_Iter_less_iterEEvT_S4_S4_T0_>
  404ed5:	48 8b 7d f0          	mov    -0x10(%rbp),%rdi
  404ed9:	48 8b 75 e8          	mov    -0x18(%rbp),%rsi
  404edd:	48 8d 55 f8          	lea    -0x8(%rbp),%rdx
  404ee1:	e8 2a 01 00 00       	callq  405010 <_ZSt11__sort_heapIPcN9__gnu_cxx5__ops15_Iter_less_iterEEvT_S4_RT0_>
  404ee6:	48 83 c4 30          	add    $0x30,%rsp
  404eea:	5d                   	pop    %rbp
  404eeb:	c3                   	retq   
  404eec:	0f 1f 40 00          	nopl   0x0(%rax)

0000000000404ef0 <_ZSt27__unguarded_partition_pivotIPcN9__gnu_cxx5__ops15_Iter_less_iterEET_S4_S4_T0_>:
  404ef0:	55                   	push   %rbp
  404ef1:	48 89 e5             	mov    %rsp,%rbp
  404ef4:	48 83 ec 40          	sub    $0x40,%rsp
  404ef8:	48 89 7d f0          	mov    %rdi,-0x10(%rbp)
  404efc:	48 89 75 e8          	mov    %rsi,-0x18(%rbp)
  404f00:	48 8b 45 f0          	mov    -0x10(%rbp),%rax
  404f04:	48 8b 4d e8          	mov    -0x18(%rbp),%rcx
  404f08:	48 8b 55 f0          	mov    -0x10(%rbp),%rdx
  404f0c:	48 29 d1             	sub    %rdx,%rcx
  404f0f:	48 89 45 c8          	mov    %rax,-0x38(%rbp)
  404f13:	48 89 c8             	mov    %rcx,%rax
  404f16:	48 99                	cqto   
  404f18:	b9 02 00 00 00       	mov    $0x2,%ecx
  404f1d:	48 f7 f9             	idiv   %rcx
  404f20:	48 8b 4d c8          	mov    -0x38(%rbp),%rcx
  404f24:	48 01 c1             	add    %rax,%rcx
  404f27:	48 89 4d e0          	mov    %rcx,-0x20(%rbp)
  404f2b:	48 8b 7d f0          	mov    -0x10(%rbp),%rdi
  404f2f:	48 8b 45 f0          	mov    -0x10(%rbp),%rax
  404f33:	48 05 01 00 00 00    	add    $0x1,%rax
  404f39:	48 8b 4d e0          	mov    -0x20(%rbp),%rcx
  404f3d:	48 8b 75 e8          	mov    -0x18(%rbp),%rsi
  404f41:	48 81 c6 ff ff ff ff 	add    $0xffffffffffffffff,%rsi
  404f48:	48 89 75 c0          	mov    %rsi,-0x40(%rbp)
  404f4c:	48 89 c6             	mov    %rax,%rsi
  404f4f:	48 89 ca             	mov    %rcx,%rdx
  404f52:	48 8b 4d c0          	mov    -0x40(%rbp),%rcx
  404f56:	e8 85 05 00 00       	callq  4054e0 <_ZSt22__move_median_to_firstIPcN9__gnu_cxx5__ops15_Iter_less_iterEEvT_S4_S4_S4_T0_>
  404f5b:	48 8b 45 f0          	mov    -0x10(%rbp),%rax
  404f5f:	48 05 01 00 00 00    	add    $0x1,%rax
  404f65:	48 8b 75 e8          	mov    -0x18(%rbp),%rsi
  404f69:	48 8b 55 f0          	mov    -0x10(%rbp),%rdx
  404f6d:	48 89 c7             	mov    %rax,%rdi
  404f70:	e8 9b 06 00 00       	callq  405610 <_ZSt21__unguarded_partitionIPcN9__gnu_cxx5__ops15_Iter_less_iterEET_S4_S4_S4_T0_>
  404f75:	48 83 c4 40          	add    $0x40,%rsp
  404f79:	5d                   	pop    %rbp
  404f7a:	c3                   	retq   
  404f7b:	0f 1f 44 00 00       	nopl   0x0(%rax,%rax,1)

0000000000404f80 <_ZSt13__heap_selectIPcN9__gnu_cxx5__ops15_Iter_less_iterEEvT_S4_S4_T0_>:
  404f80:	55                   	push   %rbp
  404f81:	48 89 e5             	mov    %rsp,%rbp
  404f84:	48 83 ec 30          	sub    $0x30,%rsp
  404f88:	48 89 7d f0          	mov    %rdi,-0x10(%rbp)
  404f8c:	48 89 75 e8          	mov    %rsi,-0x18(%rbp)
  404f90:	48 89 55 e0          	mov    %rdx,-0x20(%rbp)
  404f94:	48 8b 7d f0          	mov    -0x10(%rbp),%rdi
  404f98:	48 8b 75 e8          	mov    -0x18(%rbp),%rsi
  404f9c:	48 8d 55 f8          	lea    -0x8(%rbp),%rdx
  404fa0:	e8 cb 00 00 00       	callq  405070 <_ZSt11__make_heapIPcN9__gnu_cxx5__ops15_Iter_less_iterEEvT_S4_RT0_>
  404fa5:	48 8b 45 e8          	mov    -0x18(%rbp),%rax
  404fa9:	48 89 45 d8          	mov    %rax,-0x28(%rbp)
  404fad:	48 8b 45 d8          	mov    -0x28(%rbp),%rax
  404fb1:	48 3b 45 e0          	cmp    -0x20(%rbp),%rax
  404fb5:	0f 83 4b 00 00 00    	jae    405006 <_ZSt13__heap_selectIPcN9__gnu_cxx5__ops15_Iter_less_iterEEvT_S4_S4_T0_+0x86>
  404fbb:	48 8b 75 d8          	mov    -0x28(%rbp),%rsi
  404fbf:	48 8b 55 f0          	mov    -0x10(%rbp),%rdx
  404fc3:	48 8d 7d f8          	lea    -0x8(%rbp),%rdi
  404fc7:	e8 74 01 00 00       	callq  405140 <_ZNK9__gnu_cxx5__ops15_Iter_less_iterclIPcS3_EEbT_T0_>
  404fcc:	a8 01                	test   $0x1,%al
  404fce:	0f 85 05 00 00 00    	jne    404fd9 <_ZSt13__heap_selectIPcN9__gnu_cxx5__ops15_Iter_less_iterEEvT_S4_S4_T0_+0x59>
  404fd4:	e9 15 00 00 00       	jmpq   404fee <_ZSt13__heap_selectIPcN9__gnu_cxx5__ops15_Iter_less_iterEEvT_S4_S4_T0_+0x6e>
  404fd9:	48 8b 7d f0          	mov    -0x10(%rbp),%rdi
  404fdd:	48 8b 75 e8          	mov    -0x18(%rbp),%rsi
  404fe1:	48 8b 55 d8          	mov    -0x28(%rbp),%rdx
  404fe5:	48 8d 4d f8          	lea    -0x8(%rbp),%rcx
  404fe9:	e8 82 01 00 00       	callq  405170 <_ZSt10__pop_heapIPcN9__gnu_cxx5__ops15_Iter_less_iterEEvT_S4_S4_RT0_>
  404fee:	e9 00 00 00 00       	jmpq   404ff3 <_ZSt13__heap_selectIPcN9__gnu_cxx5__ops15_Iter_less_iterEEvT_S4_S4_T0_+0x73>
  404ff3:	48 8b 45 d8          	mov    -0x28(%rbp),%rax
  404ff7:	48 05 01 00 00 00    	add    $0x1,%rax
  404ffd:	48 89 45 d8          	mov    %rax,-0x28(%rbp)
  405001:	e9 a7 ff ff ff       	jmpq   404fad <_ZSt13__heap_selectIPcN9__gnu_cxx5__ops15_Iter_less_iterEEvT_S4_S4_T0_+0x2d>
  405006:	48 83 c4 30          	add    $0x30,%rsp
  40500a:	5d                   	pop    %rbp
  40500b:	c3                   	retq   
  40500c:	0f 1f 40 00          	nopl   0x0(%rax)

0000000000405010 <_ZSt11__sort_heapIPcN9__gnu_cxx5__ops15_Iter_less_iterEEvT_S4_RT0_>:
  405010:	55                   	push   %rbp
  405011:	48 89 e5             	mov    %rsp,%rbp
  405014:	48 83 ec 20          	sub    $0x20,%rsp
  405018:	48 89 7d f8          	mov    %rdi,-0x8(%rbp)
  40501c:	48 89 75 f0          	mov    %rsi,-0x10(%rbp)
  405020:	48 89 55 e8          	mov    %rdx,-0x18(%rbp)
  405024:	48 8b 45 f0          	mov    -0x10(%rbp),%rax
  405028:	48 8b 4d f8          	mov    -0x8(%rbp),%rcx
  40502c:	48 29 c8             	sub    %rcx,%rax
  40502f:	48 83 f8 01          	cmp    $0x1,%rax
  405033:	0f 8e 28 00 00 00    	jle    405061 <_ZSt11__sort_heapIPcN9__gnu_cxx5__ops15_Iter_less_iterEEvT_S4_RT0_+0x51>
  405039:	48 8b 45 f0          	mov    -0x10(%rbp),%rax
  40503d:	48 05 ff ff ff ff    	add    $0xffffffffffffffff,%rax
  405043:	48 89 45 f0          	mov    %rax,-0x10(%rbp)
  405047:	48 8b 7d f8          	mov    -0x8(%rbp),%rdi
  40504b:	48 8b 75 f0          	mov    -0x10(%rbp),%rsi
  40504f:	48 8b 55 f0          	mov    -0x10(%rbp),%rdx
  405053:	48 8b 4d e8          	mov    -0x18(%rbp),%rcx
  405057:	e8 14 01 00 00       	callq  405170 <_ZSt10__pop_heapIPcN9__gnu_cxx5__ops15_Iter_less_iterEEvT_S4_S4_RT0_>
  40505c:	e9 c3 ff ff ff       	jmpq   405024 <_ZSt11__sort_heapIPcN9__gnu_cxx5__ops15_Iter_less_iterEEvT_S4_RT0_+0x14>
  405061:	48 83 c4 20          	add    $0x20,%rsp
  405065:	5d                   	pop    %rbp
  405066:	c3                   	retq   
  405067:	66 0f 1f 84 00 00 00 	nopw   0x0(%rax,%rax,1)
  40506e:	00 00 

0000000000405070 <_ZSt11__make_heapIPcN9__gnu_cxx5__ops15_Iter_less_iterEEvT_S4_RT0_>:
  405070:	55                   	push   %rbp
  405071:	48 89 e5             	mov    %rsp,%rbp
  405074:	48 83 ec 50          	sub    $0x50,%rsp
  405078:	48 89 7d f8          	mov    %rdi,-0x8(%rbp)
  40507c:	48 89 75 f0          	mov    %rsi,-0x10(%rbp)
  405080:	48 89 55 e8          	mov    %rdx,-0x18(%rbp)
  405084:	48 8b 45 f0          	mov    -0x10(%rbp),%rax
  405088:	48 8b 4d f8          	mov    -0x8(%rbp),%rcx
  40508c:	48 29 c8             	sub    %rcx,%rax
  40508f:	48 83 f8 02          	cmp    $0x2,%rax
  405093:	0f 8d 05 00 00 00    	jge    40509e <_ZSt11__make_heapIPcN9__gnu_cxx5__ops15_Iter_less_iterEEvT_S4_RT0_+0x2e>
  405099:	e9 97 00 00 00       	jmpq   405135 <_ZSt11__make_heapIPcN9__gnu_cxx5__ops15_Iter_less_iterEEvT_S4_RT0_+0xc5>
  40509e:	48 8b 45 f0          	mov    -0x10(%rbp),%rax
  4050a2:	48 8b 4d f8          	mov    -0x8(%rbp),%rcx
  4050a6:	48 29 c8             	sub    %rcx,%rax
  4050a9:	48 89 45 e0          	mov    %rax,-0x20(%rbp)
  4050ad:	48 8b 45 e0          	mov    -0x20(%rbp),%rax
  4050b1:	48 2d 02 00 00 00    	sub    $0x2,%rax
  4050b7:	48 99                	cqto   
  4050b9:	b9 02 00 00 00       	mov    $0x2,%ecx
  4050be:	48 f7 f9             	idiv   %rcx
  4050c1:	48 89 45 d8          	mov    %rax,-0x28(%rbp)
  4050c5:	48 8b 45 f8          	mov    -0x8(%rbp),%rax
  4050c9:	48 03 45 d8          	add    -0x28(%rbp),%rax
  4050cd:	48 89 c7             	mov    %rax,%rdi
  4050d0:	e8 1b 01 00 00       	callq  4051f0 <_ZSt4moveIRcEONSt16remove_referenceIT_E4typeEOS2_>
  4050d5:	8a 08                	mov    (%rax),%cl
  4050d7:	88 4d d7             	mov    %cl,-0x29(%rbp)
  4050da:	48 8b 7d f8          	mov    -0x8(%rbp),%rdi
  4050de:	48 8b 75 d8          	mov    -0x28(%rbp),%rsi
  4050e2:	48 8b 55 e0          	mov    -0x20(%rbp),%rdx
  4050e6:	48 8d 45 d7          	lea    -0x29(%rbp),%rax
  4050ea:	48 89 7d c8          	mov    %rdi,-0x38(%rbp)
  4050ee:	48 89 c7             	mov    %rax,%rdi
  4050f1:	48 89 75 c0          	mov    %rsi,-0x40(%rbp)
  4050f5:	48 89 55 b8          	mov    %rdx,-0x48(%rbp)
  4050f9:	e8 f2 00 00 00       	callq  4051f0 <_ZSt4moveIRcEONSt16remove_referenceIT_E4typeEOS2_>
  4050fe:	48 8b 7d c8          	mov    -0x38(%rbp),%rdi
  405102:	48 8b 75 c0          	mov    -0x40(%rbp),%rsi
  405106:	48 8b 55 b8          	mov    -0x48(%rbp),%rdx
  40510a:	0f be 08             	movsbl (%rax),%ecx
  40510d:	e8 ee 00 00 00       	callq  405200 <_ZSt13__adjust_heapIPclcN9__gnu_cxx5__ops15_Iter_less_iterEEvT_T0_S5_T1_T2_>
  405112:	48 83 7d d8 00       	cmpq   $0x0,-0x28(%rbp)
  405117:	0f 85 05 00 00 00    	jne    405122 <_ZSt11__make_heapIPcN9__gnu_cxx5__ops15_Iter_less_iterEEvT_S4_RT0_+0xb2>
  40511d:	e9 13 00 00 00       	jmpq   405135 <_ZSt11__make_heapIPcN9__gnu_cxx5__ops15_Iter_less_iterEEvT_S4_RT0_+0xc5>
  405122:	48 8b 45 d8          	mov    -0x28(%rbp),%rax
  405126:	48 05 ff ff ff ff    	add    $0xffffffffffffffff,%rax
  40512c:	48 89 45 d8          	mov    %rax,-0x28(%rbp)
  405130:	e9 90 ff ff ff       	jmpq   4050c5 <_ZSt11__make_heapIPcN9__gnu_cxx5__ops15_Iter_less_iterEEvT_S4_RT0_+0x55>
  405135:	48 83 c4 50          	add    $0x50,%rsp
  405139:	5d                   	pop    %rbp
  40513a:	c3                   	retq   
  40513b:	0f 1f 44 00 00       	nopl   0x0(%rax,%rax,1)

0000000000405140 <_ZNK9__gnu_cxx5__ops15_Iter_less_iterclIPcS3_EEbT_T0_>:
  405140:	55                   	push   %rbp
  405141:	48 89 e5             	mov    %rsp,%rbp
  405144:	48 89 7d f8          	mov    %rdi,-0x8(%rbp)
  405148:	48 89 75 f0          	mov    %rsi,-0x10(%rbp)
  40514c:	48 89 55 e8          	mov    %rdx,-0x18(%rbp)
  405150:	48 8b 45 f0          	mov    -0x10(%rbp),%rax
  405154:	0f be 08             	movsbl (%rax),%ecx
  405157:	48 8b 45 e8          	mov    -0x18(%rbp),%rax
  40515b:	44 0f be 00          	movsbl (%rax),%r8d
  40515f:	44 39 c1             	cmp    %r8d,%ecx
  405162:	41 0f 9c c1          	setl   %r9b
  405166:	41 80 e1 01          	and    $0x1,%r9b
  40516a:	41 0f b6 c1          	movzbl %r9b,%eax
  40516e:	5d                   	pop    %rbp
  40516f:	c3                   	retq   

0000000000405170 <_ZSt10__pop_heapIPcN9__gnu_cxx5__ops15_Iter_less_iterEEvT_S4_S4_RT0_>:
  405170:	55                   	push   %rbp
  405171:	48 89 e5             	mov    %rsp,%rbp
  405174:	48 83 ec 40          	sub    $0x40,%rsp
  405178:	48 89 7d f8          	mov    %rdi,-0x8(%rbp)
  40517c:	48 89 75 f0          	mov    %rsi,-0x10(%rbp)
  405180:	48 89 55 e8          	mov    %rdx,-0x18(%rbp)
  405184:	48 89 4d e0          	mov    %rcx,-0x20(%rbp)
  405188:	48 8b 7d e8          	mov    -0x18(%rbp),%rdi
  40518c:	e8 5f 00 00 00       	callq  4051f0 <_ZSt4moveIRcEONSt16remove_referenceIT_E4typeEOS2_>
  405191:	44 8a 00             	mov    (%rax),%r8b
  405194:	44 88 45 df          	mov    %r8b,-0x21(%rbp)
  405198:	48 8b 7d f8          	mov    -0x8(%rbp),%rdi
  40519c:	e8 4f 00 00 00       	callq  4051f0 <_ZSt4moveIRcEONSt16remove_referenceIT_E4typeEOS2_>
  4051a1:	44 8a 00             	mov    (%rax),%r8b
  4051a4:	48 8b 45 e8          	mov    -0x18(%rbp),%rax
  4051a8:	44 88 00             	mov    %r8b,(%rax)
  4051ab:	48 8b 7d f8          	mov    -0x8(%rbp),%rdi
  4051af:	48 8b 45 f0          	mov    -0x10(%rbp),%rax
  4051b3:	48 8b 4d f8          	mov    -0x8(%rbp),%rcx
  4051b7:	48 29 c8             	sub    %rcx,%rax
  4051ba:	48 8d 4d df          	lea    -0x21(%rbp),%rcx
  4051be:	48 89 7d d0          	mov    %rdi,-0x30(%rbp)
  4051c2:	48 89 cf             	mov    %rcx,%rdi
  4051c5:	48 89 45 c8          	mov    %rax,-0x38(%rbp)
  4051c9:	e8 22 00 00 00       	callq  4051f0 <_ZSt4moveIRcEONSt16remove_referenceIT_E4typeEOS2_>
  4051ce:	45 31 c9             	xor    %r9d,%r9d
  4051d1:	44 89 ce             	mov    %r9d,%esi
  4051d4:	48 8b 7d d0          	mov    -0x30(%rbp),%rdi
  4051d8:	48 8b 55 c8          	mov    -0x38(%rbp),%rdx
  4051dc:	0f be 08             	movsbl (%rax),%ecx
  4051df:	e8 1c 00 00 00       	callq  405200 <_ZSt13__adjust_heapIPclcN9__gnu_cxx5__ops15_Iter_less_iterEEvT_T0_S5_T1_T2_>
  4051e4:	48 83 c4 40          	add    $0x40,%rsp
  4051e8:	5d                   	pop    %rbp
  4051e9:	c3                   	retq   
  4051ea:	66 0f 1f 44 00 00    	nopw   0x0(%rax,%rax,1)

00000000004051f0 <_ZSt4moveIRcEONSt16remove_referenceIT_E4typeEOS2_>:
  4051f0:	55                   	push   %rbp
  4051f1:	48 89 e5             	mov    %rsp,%rbp
  4051f4:	48 89 7d f8          	mov    %rdi,-0x8(%rbp)
  4051f8:	48 8b 45 f8          	mov    -0x8(%rbp),%rax
  4051fc:	5d                   	pop    %rbp
  4051fd:	c3                   	retq   
  4051fe:	66 90                	xchg   %ax,%ax

0000000000405200 <_ZSt13__adjust_heapIPclcN9__gnu_cxx5__ops15_Iter_less_iterEEvT_T0_S5_T1_T2_>:
  405200:	55                   	push   %rbp
  405201:	48 89 e5             	mov    %rsp,%rbp
  405204:	48 81 ec 80 00 00 00 	sub    $0x80,%rsp
  40520b:	48 89 7d f0          	mov    %rdi,-0x10(%rbp)
  40520f:	48 89 75 e8          	mov    %rsi,-0x18(%rbp)
  405213:	48 89 55 e0          	mov    %rdx,-0x20(%rbp)
  405217:	88 4d df             	mov    %cl,-0x21(%rbp)
  40521a:	48 8b 45 e8          	mov    -0x18(%rbp),%rax
  40521e:	48 89 45 d0          	mov    %rax,-0x30(%rbp)
  405222:	48 8b 45 e8          	mov    -0x18(%rbp),%rax
  405226:	48 89 45 c8          	mov    %rax,-0x38(%rbp)
  40522a:	48 8b 45 c8          	mov    -0x38(%rbp),%rax
  40522e:	48 8b 4d e0          	mov    -0x20(%rbp),%rcx
  405232:	48 81 e9 01 00 00 00 	sub    $0x1,%rcx
  405239:	48 89 45 b0          	mov    %rax,-0x50(%rbp)
  40523d:	48 89 c8             	mov    %rcx,%rax
  405240:	48 99                	cqto   
  405242:	b9 02 00 00 00       	mov    $0x2,%ecx
  405247:	48 f7 f9             	idiv   %rcx
  40524a:	48 8b 4d b0          	mov    -0x50(%rbp),%rcx
  40524e:	48 39 c1             	cmp    %rax,%rcx
  405251:	0f 8d 80 00 00 00    	jge    4052d7 <_ZSt13__adjust_heapIPclcN9__gnu_cxx5__ops15_Iter_less_iterEEvT_T0_S5_T1_T2_+0xd7>
  405257:	48 8b 45 c8          	mov    -0x38(%rbp),%rax
  40525b:	48 05 01 00 00 00    	add    $0x1,%rax
  405261:	48 c1 e0 01          	shl    $0x1,%rax
  405265:	48 89 45 c8          	mov    %rax,-0x38(%rbp)
  405269:	48 8b 45 f0          	mov    -0x10(%rbp),%rax
  40526d:	48 03 45 c8          	add    -0x38(%rbp),%rax
  405271:	48 8b 4d f0          	mov    -0x10(%rbp),%rcx
  405275:	48 8b 55 c8          	mov    -0x38(%rbp),%rdx
  405279:	48 81 ea 01 00 00 00 	sub    $0x1,%rdx
  405280:	48 01 d1             	add    %rdx,%rcx
  405283:	48 8d 7d f8          	lea    -0x8(%rbp),%rdi
  405287:	48 89 c6             	mov    %rax,%rsi
  40528a:	48 89 ca             	mov    %rcx,%rdx
  40528d:	e8 ae fe ff ff       	callq  405140 <_ZNK9__gnu_cxx5__ops15_Iter_less_iterclIPcS3_EEbT_T0_>
  405292:	a8 01                	test   $0x1,%al
  405294:	0f 85 05 00 00 00    	jne    40529f <_ZSt13__adjust_heapIPclcN9__gnu_cxx5__ops15_Iter_less_iterEEvT_T0_S5_T1_T2_+0x9f>
  40529a:	e9 0e 00 00 00       	jmpq   4052ad <_ZSt13__adjust_heapIPclcN9__gnu_cxx5__ops15_Iter_less_iterEEvT_T0_S5_T1_T2_+0xad>
  40529f:	48 8b 45 c8          	mov    -0x38(%rbp),%rax
  4052a3:	48 05 ff ff ff ff    	add    $0xffffffffffffffff,%rax
  4052a9:	48 89 45 c8          	mov    %rax,-0x38(%rbp)
  4052ad:	48 8b 45 f0          	mov    -0x10(%rbp),%rax
  4052b1:	48 03 45 c8          	add    -0x38(%rbp),%rax
  4052b5:	48 89 c7             	mov    %rax,%rdi
  4052b8:	e8 33 ff ff ff       	callq  4051f0 <_ZSt4moveIRcEONSt16remove_referenceIT_E4typeEOS2_>
  4052bd:	8a 08                	mov    (%rax),%cl
  4052bf:	48 8b 45 f0          	mov    -0x10(%rbp),%rax
  4052c3:	48 8b 55 e8          	mov    -0x18(%rbp),%rdx
  4052c7:	88 0c 10             	mov    %cl,(%rax,%rdx,1)
  4052ca:	48 8b 45 c8          	mov    -0x38(%rbp),%rax
  4052ce:	48 89 45 e8          	mov    %rax,-0x18(%rbp)
  4052d2:	e9 53 ff ff ff       	jmpq   40522a <_ZSt13__adjust_heapIPclcN9__gnu_cxx5__ops15_Iter_less_iterEEvT_T0_S5_T1_T2_+0x2a>
  4052d7:	48 8b 45 e0          	mov    -0x20(%rbp),%rax
  4052db:	48 25 01 00 00 00    	and    $0x1,%rax
  4052e1:	48 83 f8 00          	cmp    $0x0,%rax
  4052e5:	0f 85 74 00 00 00    	jne    40535f <_ZSt13__adjust_heapIPclcN9__gnu_cxx5__ops15_Iter_less_iterEEvT_T0_S5_T1_T2_+0x15f>
  4052eb:	48 8b 45 c8          	mov    -0x38(%rbp),%rax
  4052ef:	48 8b 4d e0          	mov    -0x20(%rbp),%rcx
  4052f3:	48 81 e9 02 00 00 00 	sub    $0x2,%rcx
  4052fa:	48 89 45 a8          	mov    %rax,-0x58(%rbp)
  4052fe:	48 89 c8             	mov    %rcx,%rax
  405301:	48 99                	cqto   
  405303:	b9 02 00 00 00       	mov    $0x2,%ecx
  405308:	48 f7 f9             	idiv   %rcx
  40530b:	48 8b 4d a8          	mov    -0x58(%rbp),%rcx
  40530f:	48 39 c1             	cmp    %rax,%rcx
  405312:	0f 85 47 00 00 00    	jne    40535f <_ZSt13__adjust_heapIPclcN9__gnu_cxx5__ops15_Iter_less_iterEEvT_T0_S5_T1_T2_+0x15f>
  405318:	48 8b 45 c8          	mov    -0x38(%rbp),%rax
  40531c:	48 05 01 00 00 00    	add    $0x1,%rax
  405322:	48 c1 e0 01          	shl    $0x1,%rax
  405326:	48 89 45 c8          	mov    %rax,-0x38(%rbp)
  40532a:	48 8b 45 f0          	mov    -0x10(%rbp),%rax
  40532e:	48 8b 4d c8          	mov    -0x38(%rbp),%rcx
  405332:	48 81 e9 01 00 00 00 	sub    $0x1,%rcx
  405339:	48 01 c8             	add    %rcx,%rax
  40533c:	48 89 c7             	mov    %rax,%rdi
  40533f:	e8 ac fe ff ff       	callq  4051f0 <_ZSt4moveIRcEONSt16remove_referenceIT_E4typeEOS2_>
  405344:	8a 10                	mov    (%rax),%dl
  405346:	48 8b 45 f0          	mov    -0x10(%rbp),%rax
  40534a:	48 8b 4d e8          	mov    -0x18(%rbp),%rcx
  40534e:	88 14 08             	mov    %dl,(%rax,%rcx,1)
  405351:	48 8b 45 c8          	mov    -0x38(%rbp),%rax
  405355:	48 2d 01 00 00 00    	sub    $0x1,%rax
  40535b:	48 89 45 e8          	mov    %rax,-0x18(%rbp)
  40535f:	48 8d 7d f8          	lea    -0x8(%rbp),%rdi
  405363:	e8 58 00 00 00       	callq  4053c0 <_ZSt4moveIRN9__gnu_cxx5__ops15_Iter_less_iterEEONSt16remove_referenceIT_E4typeEOS5_>
  405368:	48 8d 7d c0          	lea    -0x40(%rbp),%rdi
  40536c:	48 89 45 a0          	mov    %rax,-0x60(%rbp)
  405370:	e8 5b 00 00 00       	callq  4053d0 <_ZN9__gnu_cxx5__ops14_Iter_less_valC2ENS0_15_Iter_less_iterE>
  405375:	48 8b 7d f0          	mov    -0x10(%rbp),%rdi
  405379:	48 8b 75 e8          	mov    -0x18(%rbp),%rsi
  40537d:	48 8b 55 d0          	mov    -0x30(%rbp),%rdx
  405381:	48 8d 45 df          	lea    -0x21(%rbp),%rax
  405385:	48 89 7d 98          	mov    %rdi,-0x68(%rbp)
  405389:	48 89 c7             	mov    %rax,%rdi
  40538c:	48 89 75 90          	mov    %rsi,-0x70(%rbp)
  405390:	48 89 55 88          	mov    %rdx,-0x78(%rbp)
  405394:	e8 57 fe ff ff       	callq  4051f0 <_ZSt4moveIRcEONSt16remove_referenceIT_E4typeEOS2_>
  405399:	48 8b 7d 98          	mov    -0x68(%rbp),%rdi
  40539d:	48 8b 75 90          	mov    -0x70(%rbp),%rsi
  4053a1:	48 8b 55 88          	mov    -0x78(%rbp),%rdx
  4053a5:	0f be 08             	movsbl (%rax),%ecx
  4053a8:	4c 8d 45 c0          	lea    -0x40(%rbp),%r8
  4053ac:	e8 2f 00 00 00       	callq  4053e0 <_ZSt11__push_heapIPclcN9__gnu_cxx5__ops14_Iter_less_valEEvT_T0_S5_T1_RT2_>
  4053b1:	48 81 c4 80 00 00 00 	add    $0x80,%rsp
  4053b8:	5d                   	pop    %rbp
  4053b9:	c3                   	retq   
  4053ba:	66 0f 1f 44 00 00    	nopw   0x0(%rax,%rax,1)

00000000004053c0 <_ZSt4moveIRN9__gnu_cxx5__ops15_Iter_less_iterEEONSt16remove_referenceIT_E4typeEOS5_>:
  4053c0:	55                   	push   %rbp
  4053c1:	48 89 e5             	mov    %rsp,%rbp
  4053c4:	48 89 7d f8          	mov    %rdi,-0x8(%rbp)
  4053c8:	48 8b 45 f8          	mov    -0x8(%rbp),%rax
  4053cc:	5d                   	pop    %rbp
  4053cd:	c3                   	retq   
  4053ce:	66 90                	xchg   %ax,%ax

00000000004053d0 <_ZN9__gnu_cxx5__ops14_Iter_less_valC2ENS0_15_Iter_less_iterE>:
  4053d0:	55                   	push   %rbp
  4053d1:	48 89 e5             	mov    %rsp,%rbp
  4053d4:	48 89 7d f0          	mov    %rdi,-0x10(%rbp)
  4053d8:	5d                   	pop    %rbp
  4053d9:	c3                   	retq   
  4053da:	66 0f 1f 44 00 00    	nopw   0x0(%rax,%rax,1)

00000000004053e0 <_ZSt11__push_heapIPclcN9__gnu_cxx5__ops14_Iter_less_valEEvT_T0_S5_T1_RT2_>:
  4053e0:	55                   	push   %rbp
  4053e1:	48 89 e5             	mov    %rsp,%rbp
  4053e4:	48 83 ec 40          	sub    $0x40,%rsp
  4053e8:	48 89 7d f8          	mov    %rdi,-0x8(%rbp)
  4053ec:	48 89 75 f0          	mov    %rsi,-0x10(%rbp)
  4053f0:	48 89 55 e8          	mov    %rdx,-0x18(%rbp)
  4053f4:	88 4d e7             	mov    %cl,-0x19(%rbp)
  4053f7:	4c 89 45 d8          	mov    %r8,-0x28(%rbp)
  4053fb:	48 8b 45 f0          	mov    -0x10(%rbp),%rax
  4053ff:	48 2d 01 00 00 00    	sub    $0x1,%rax
  405405:	48 99                	cqto   
  405407:	be 02 00 00 00       	mov    $0x2,%esi
  40540c:	48 f7 fe             	idiv   %rsi
  40540f:	48 89 45 d0          	mov    %rax,-0x30(%rbp)
  405413:	31 c0                	xor    %eax,%eax
  405415:	48 8b 4d f0          	mov    -0x10(%rbp),%rcx
  405419:	48 3b 4d e8          	cmp    -0x18(%rbp),%rcx
  40541d:	88 45 cf             	mov    %al,-0x31(%rbp)
  405420:	0f 8e 1b 00 00 00    	jle    405441 <_ZSt11__push_heapIPclcN9__gnu_cxx5__ops14_Iter_less_valEEvT_T0_S5_T1_RT2_+0x61>
  405426:	48 8b 7d d8          	mov    -0x28(%rbp),%rdi
  40542a:	48 8b 45 f8          	mov    -0x8(%rbp),%rax
  40542e:	48 03 45 d0          	add    -0x30(%rbp),%rax
  405432:	48 89 c6             	mov    %rax,%rsi
  405435:	48 8d 55 e7          	lea    -0x19(%rbp),%rdx
  405439:	e8 72 00 00 00       	callq  4054b0 <_ZNK9__gnu_cxx5__ops14_Iter_less_valclIPccEEbT_RT0_>
  40543e:	88 45 cf             	mov    %al,-0x31(%rbp)
  405441:	8a 45 cf             	mov    -0x31(%rbp),%al
  405444:	a8 01                	test   $0x1,%al
  405446:	0f 85 05 00 00 00    	jne    405451 <_ZSt11__push_heapIPclcN9__gnu_cxx5__ops14_Iter_less_valEEvT_T0_S5_T1_RT2_+0x71>
  40544c:	e9 42 00 00 00       	jmpq   405493 <_ZSt11__push_heapIPclcN9__gnu_cxx5__ops14_Iter_less_valEEvT_T0_S5_T1_RT2_+0xb3>
  405451:	48 8b 45 f8          	mov    -0x8(%rbp),%rax
  405455:	48 03 45 d0          	add    -0x30(%rbp),%rax
  405459:	48 89 c7             	mov    %rax,%rdi
  40545c:	e8 8f fd ff ff       	callq  4051f0 <_ZSt4moveIRcEONSt16remove_referenceIT_E4typeEOS2_>
  405461:	8a 08                	mov    (%rax),%cl
  405463:	48 8b 45 f8          	mov    -0x8(%rbp),%rax
  405467:	48 8b 55 f0          	mov    -0x10(%rbp),%rdx
  40546b:	88 0c 10             	mov    %cl,(%rax,%rdx,1)
  40546e:	48 8b 45 d0          	mov    -0x30(%rbp),%rax
  405472:	48 89 45 f0          	mov    %rax,-0x10(%rbp)
  405476:	48 8b 45 f0          	mov    -0x10(%rbp),%rax
  40547a:	48 2d 01 00 00 00    	sub    $0x1,%rax
  405480:	48 99                	cqto   
  405482:	be 02 00 00 00       	mov    $0x2,%esi
  405487:	48 f7 fe             	idiv   %rsi
  40548a:	48 89 45 d0          	mov    %rax,-0x30(%rbp)
  40548e:	e9 80 ff ff ff       	jmpq   405413 <_ZSt11__push_heapIPclcN9__gnu_cxx5__ops14_Iter_less_valEEvT_T0_S5_T1_RT2_+0x33>
  405493:	48 8d 7d e7          	lea    -0x19(%rbp),%rdi
  405497:	e8 54 fd ff ff       	callq  4051f0 <_ZSt4moveIRcEONSt16remove_referenceIT_E4typeEOS2_>
  40549c:	8a 08                	mov    (%rax),%cl
  40549e:	48 8b 45 f8          	mov    -0x8(%rbp),%rax
  4054a2:	48 8b 55 f0          	mov    -0x10(%rbp),%rdx
  4054a6:	88 0c 10             	mov    %cl,(%rax,%rdx,1)
  4054a9:	48 83 c4 40          	add    $0x40,%rsp
  4054ad:	5d                   	pop    %rbp
  4054ae:	c3                   	retq   
  4054af:	90                   	nop

00000000004054b0 <_ZNK9__gnu_cxx5__ops14_Iter_less_valclIPccEEbT_RT0_>:
  4054b0:	55                   	push   %rbp
  4054b1:	48 89 e5             	mov    %rsp,%rbp
  4054b4:	48 89 7d f8          	mov    %rdi,-0x8(%rbp)
  4054b8:	48 89 75 f0          	mov    %rsi,-0x10(%rbp)
  4054bc:	48 89 55 e8          	mov    %rdx,-0x18(%rbp)
  4054c0:	48 8b 45 f0          	mov    -0x10(%rbp),%rax
  4054c4:	0f be 08             	movsbl (%rax),%ecx
  4054c7:	48 8b 45 e8          	mov    -0x18(%rbp),%rax
  4054cb:	44 0f be 00          	movsbl (%rax),%r8d
  4054cf:	44 39 c1             	cmp    %r8d,%ecx
  4054d2:	41 0f 9c c1          	setl   %r9b
  4054d6:	41 80 e1 01          	and    $0x1,%r9b
  4054da:	41 0f b6 c1          	movzbl %r9b,%eax
  4054de:	5d                   	pop    %rbp
  4054df:	c3                   	retq   

00000000004054e0 <_ZSt22__move_median_to_firstIPcN9__gnu_cxx5__ops15_Iter_less_iterEEvT_S4_S4_S4_T0_>:
  4054e0:	55                   	push   %rbp
  4054e1:	48 89 e5             	mov    %rsp,%rbp
  4054e4:	48 83 ec 30          	sub    $0x30,%rsp
  4054e8:	48 89 7d f0          	mov    %rdi,-0x10(%rbp)
  4054ec:	48 89 75 e8          	mov    %rsi,-0x18(%rbp)
  4054f0:	48 89 55 e0          	mov    %rdx,-0x20(%rbp)
  4054f4:	48 89 4d d8          	mov    %rcx,-0x28(%rbp)
  4054f8:	48 8b 75 e8          	mov    -0x18(%rbp),%rsi
  4054fc:	48 8b 55 e0          	mov    -0x20(%rbp),%rdx
  405500:	48 8d 7d f8          	lea    -0x8(%rbp),%rdi
  405504:	e8 37 fc ff ff       	callq  405140 <_ZNK9__gnu_cxx5__ops15_Iter_less_iterclIPcS3_EEbT_T0_>
  405509:	a8 01                	test   $0x1,%al
  40550b:	0f 85 05 00 00 00    	jne    405516 <_ZSt22__move_median_to_firstIPcN9__gnu_cxx5__ops15_Iter_less_iterEEvT_S4_S4_S4_T0_+0x36>
  405511:	e9 77 00 00 00       	jmpq   40558d <_ZSt22__move_median_to_firstIPcN9__gnu_cxx5__ops15_Iter_less_iterEEvT_S4_S4_S4_T0_+0xad>
  405516:	48 8b 75 e0          	mov    -0x20(%rbp),%rsi
  40551a:	48 8b 55 d8          	mov    -0x28(%rbp),%rdx
  40551e:	48 8d 7d f8          	lea    -0x8(%rbp),%rdi
  405522:	e8 19 fc ff ff       	callq  405140 <_ZNK9__gnu_cxx5__ops15_Iter_less_iterclIPcS3_EEbT_T0_>
  405527:	a8 01                	test   $0x1,%al
  405529:	0f 85 05 00 00 00    	jne    405534 <_ZSt22__move_median_to_firstIPcN9__gnu_cxx5__ops15_Iter_less_iterEEvT_S4_S4_S4_T0_+0x54>
  40552f:	e9 12 00 00 00       	jmpq   405546 <_ZSt22__move_median_to_firstIPcN9__gnu_cxx5__ops15_Iter_less_iterEEvT_S4_S4_S4_T0_+0x66>
  405534:	48 8b 7d f0          	mov    -0x10(%rbp),%rdi
  405538:	48 8b 75 e0          	mov    -0x20(%rbp),%rsi
  40553c:	e8 9f 01 00 00       	callq  4056e0 <_ZSt9iter_swapIPcS0_EvT_T0_>
  405541:	e9 42 00 00 00       	jmpq   405588 <_ZSt22__move_median_to_firstIPcN9__gnu_cxx5__ops15_Iter_less_iterEEvT_S4_S4_S4_T0_+0xa8>
  405546:	48 8b 75 e8          	mov    -0x18(%rbp),%rsi
  40554a:	48 8b 55 d8          	mov    -0x28(%rbp),%rdx
  40554e:	48 8d 7d f8          	lea    -0x8(%rbp),%rdi
  405552:	e8 e9 fb ff ff       	callq  405140 <_ZNK9__gnu_cxx5__ops15_Iter_less_iterclIPcS3_EEbT_T0_>
  405557:	a8 01                	test   $0x1,%al
  405559:	0f 85 05 00 00 00    	jne    405564 <_ZSt22__move_median_to_firstIPcN9__gnu_cxx5__ops15_Iter_less_iterEEvT_S4_S4_S4_T0_+0x84>
  40555f:	e9 12 00 00 00       	jmpq   405576 <_ZSt22__move_median_to_firstIPcN9__gnu_cxx5__ops15_Iter_less_iterEEvT_S4_S4_S4_T0_+0x96>
  405564:	48 8b 7d f0          	mov    -0x10(%rbp),%rdi
  405568:	48 8b 75 d8          	mov    -0x28(%rbp),%rsi
  40556c:	e8 6f 01 00 00       	callq  4056e0 <_ZSt9iter_swapIPcS0_EvT_T0_>
  405571:	e9 0d 00 00 00       	jmpq   405583 <_ZSt22__move_median_to_firstIPcN9__gnu_cxx5__ops15_Iter_less_iterEEvT_S4_S4_S4_T0_+0xa3>
  405576:	48 8b 7d f0          	mov    -0x10(%rbp),%rdi
  40557a:	48 8b 75 e8          	mov    -0x18(%rbp),%rsi
  40557e:	e8 5d 01 00 00       	callq  4056e0 <_ZSt9iter_swapIPcS0_EvT_T0_>
  405583:	e9 00 00 00 00       	jmpq   405588 <_ZSt22__move_median_to_firstIPcN9__gnu_cxx5__ops15_Iter_less_iterEEvT_S4_S4_S4_T0_+0xa8>
  405588:	e9 77 00 00 00       	jmpq   405604 <_ZSt22__move_median_to_firstIPcN9__gnu_cxx5__ops15_Iter_less_iterEEvT_S4_S4_S4_T0_+0x124>
  40558d:	48 8b 75 e8          	mov    -0x18(%rbp),%rsi
  405591:	48 8b 55 d8          	mov    -0x28(%rbp),%rdx
  405595:	48 8d 7d f8          	lea    -0x8(%rbp),%rdi
  405599:	e8 a2 fb ff ff       	callq  405140 <_ZNK9__gnu_cxx5__ops15_Iter_less_iterclIPcS3_EEbT_T0_>
  40559e:	a8 01                	test   $0x1,%al
  4055a0:	0f 85 05 00 00 00    	jne    4055ab <_ZSt22__move_median_to_firstIPcN9__gnu_cxx5__ops15_Iter_less_iterEEvT_S4_S4_S4_T0_+0xcb>
  4055a6:	e9 12 00 00 00       	jmpq   4055bd <_ZSt22__move_median_to_firstIPcN9__gnu_cxx5__ops15_Iter_less_iterEEvT_S4_S4_S4_T0_+0xdd>
  4055ab:	48 8b 7d f0          	mov    -0x10(%rbp),%rdi
  4055af:	48 8b 75 e8          	mov    -0x18(%rbp),%rsi
  4055b3:	e8 28 01 00 00       	callq  4056e0 <_ZSt9iter_swapIPcS0_EvT_T0_>
  4055b8:	e9 42 00 00 00       	jmpq   4055ff <_ZSt22__move_median_to_firstIPcN9__gnu_cxx5__ops15_Iter_less_iterEEvT_S4_S4_S4_T0_+0x11f>
  4055bd:	48 8b 75 e0          	mov    -0x20(%rbp),%rsi
  4055c1:	48 8b 55 d8          	mov    -0x28(%rbp),%rdx
  4055c5:	48 8d 7d f8          	lea    -0x8(%rbp),%rdi
  4055c9:	e8 72 fb ff ff       	callq  405140 <_ZNK9__gnu_cxx5__ops15_Iter_less_iterclIPcS3_EEbT_T0_>
  4055ce:	a8 01                	test   $0x1,%al
  4055d0:	0f 85 05 00 00 00    	jne    4055db <_ZSt22__move_median_to_firstIPcN9__gnu_cxx5__ops15_Iter_less_iterEEvT_S4_S4_S4_T0_+0xfb>
  4055d6:	e9 12 00 00 00       	jmpq   4055ed <_ZSt22__move_median_to_firstIPcN9__gnu_cxx5__ops15_Iter_less_iterEEvT_S4_S4_S4_T0_+0x10d>
  4055db:	48 8b 7d f0          	mov    -0x10(%rbp),%rdi
  4055df:	48 8b 75 d8          	mov    -0x28(%rbp),%rsi
  4055e3:	e8 f8 00 00 00       	callq  4056e0 <_ZSt9iter_swapIPcS0_EvT_T0_>
  4055e8:	e9 0d 00 00 00       	jmpq   4055fa <_ZSt22__move_median_to_firstIPcN9__gnu_cxx5__ops15_Iter_less_iterEEvT_S4_S4_S4_T0_+0x11a>
  4055ed:	48 8b 7d f0          	mov    -0x10(%rbp),%rdi
  4055f1:	48 8b 75 e0          	mov    -0x20(%rbp),%rsi
  4055f5:	e8 e6 00 00 00       	callq  4056e0 <_ZSt9iter_swapIPcS0_EvT_T0_>
  4055fa:	e9 00 00 00 00       	jmpq   4055ff <_ZSt22__move_median_to_firstIPcN9__gnu_cxx5__ops15_Iter_less_iterEEvT_S4_S4_S4_T0_+0x11f>
  4055ff:	e9 00 00 00 00       	jmpq   405604 <_ZSt22__move_median_to_firstIPcN9__gnu_cxx5__ops15_Iter_less_iterEEvT_S4_S4_S4_T0_+0x124>
  405604:	48 83 c4 30          	add    $0x30,%rsp
  405608:	5d                   	pop    %rbp
  405609:	c3                   	retq   
  40560a:	66 0f 1f 44 00 00    	nopw   0x0(%rax,%rax,1)

0000000000405610 <_ZSt21__unguarded_partitionIPcN9__gnu_cxx5__ops15_Iter_less_iterEET_S4_S4_S4_T0_>:
  405610:	55                   	push   %rbp
  405611:	48 89 e5             	mov    %rsp,%rbp
  405614:	48 83 ec 20          	sub    $0x20,%rsp
  405618:	48 89 7d f0          	mov    %rdi,-0x10(%rbp)
  40561c:	48 89 75 e8          	mov    %rsi,-0x18(%rbp)
  405620:	48 89 55 e0          	mov    %rdx,-0x20(%rbp)
  405624:	e9 00 00 00 00       	jmpq   405629 <_ZSt21__unguarded_partitionIPcN9__gnu_cxx5__ops15_Iter_less_iterEET_S4_S4_S4_T0_+0x19>
  405629:	48 8b 75 f0          	mov    -0x10(%rbp),%rsi
  40562d:	48 8b 55 e0          	mov    -0x20(%rbp),%rdx
  405631:	48 8d 7d f8          	lea    -0x8(%rbp),%rdi
  405635:	e8 06 fb ff ff       	callq  405140 <_ZNK9__gnu_cxx5__ops15_Iter_less_iterclIPcS3_EEbT_T0_>
  40563a:	a8 01                	test   $0x1,%al
  40563c:	0f 85 05 00 00 00    	jne    405647 <_ZSt21__unguarded_partitionIPcN9__gnu_cxx5__ops15_Iter_less_iterEET_S4_S4_S4_T0_+0x37>
  405642:	e9 13 00 00 00       	jmpq   40565a <_ZSt21__unguarded_partitionIPcN9__gnu_cxx5__ops15_Iter_less_iterEET_S4_S4_S4_T0_+0x4a>
  405647:	48 8b 45 f0          	mov    -0x10(%rbp),%rax
  40564b:	48 05 01 00 00 00    	add    $0x1,%rax
  405651:	48 89 45 f0          	mov    %rax,-0x10(%rbp)
  405655:	e9 cf ff ff ff       	jmpq   405629 <_ZSt21__unguarded_partitionIPcN9__gnu_cxx5__ops15_Iter_less_iterEET_S4_S4_S4_T0_+0x19>
  40565a:	48 8b 45 e8          	mov    -0x18(%rbp),%rax
  40565e:	48 05 ff ff ff ff    	add    $0xffffffffffffffff,%rax
  405664:	48 89 45 e8          	mov    %rax,-0x18(%rbp)
  405668:	48 8b 75 e0          	mov    -0x20(%rbp),%rsi
  40566c:	48 8b 55 e8          	mov    -0x18(%rbp),%rdx
  405670:	48 8d 7d f8          	lea    -0x8(%rbp),%rdi
  405674:	e8 c7 fa ff ff       	callq  405140 <_ZNK9__gnu_cxx5__ops15_Iter_less_iterclIPcS3_EEbT_T0_>
  405679:	a8 01                	test   $0x1,%al
  40567b:	0f 85 05 00 00 00    	jne    405686 <_ZSt21__unguarded_partitionIPcN9__gnu_cxx5__ops15_Iter_less_iterEET_S4_S4_S4_T0_+0x76>
  405681:	e9 13 00 00 00       	jmpq   405699 <_ZSt21__unguarded_partitionIPcN9__gnu_cxx5__ops15_Iter_less_iterEET_S4_S4_S4_T0_+0x89>
  405686:	48 8b 45 e8          	mov    -0x18(%rbp),%rax
  40568a:	48 05 ff ff ff ff    	add    $0xffffffffffffffff,%rax
  405690:	48 89 45 e8          	mov    %rax,-0x18(%rbp)
  405694:	e9 cf ff ff ff       	jmpq   405668 <_ZSt21__unguarded_partitionIPcN9__gnu_cxx5__ops15_Iter_less_iterEET_S4_S4_S4_T0_+0x58>
  405699:	48 8b 45 f0          	mov    -0x10(%rbp),%rax
  40569d:	48 3b 45 e8          	cmp    -0x18(%rbp),%rax
  4056a1:	0f 82 0a 00 00 00    	jb     4056b1 <_ZSt21__unguarded_partitionIPcN9__gnu_cxx5__ops15_Iter_less_iterEET_S4_S4_S4_T0_+0xa1>
  4056a7:	48 8b 45 f0          	mov    -0x10(%rbp),%rax
  4056ab:	48 83 c4 20          	add    $0x20,%rsp
  4056af:	5d                   	pop    %rbp
  4056b0:	c3                   	retq   
  4056b1:	48 8b 7d f0          	mov    -0x10(%rbp),%rdi
  4056b5:	48 8b 75 e8          	mov    -0x18(%rbp),%rsi
  4056b9:	e8 22 00 00 00       	callq  4056e0 <_ZSt9iter_swapIPcS0_EvT_T0_>
  4056be:	48 8b 45 f0          	mov    -0x10(%rbp),%rax
  4056c2:	48 05 01 00 00 00    	add    $0x1,%rax
  4056c8:	48 89 45 f0          	mov    %rax,-0x10(%rbp)
  4056cc:	e9 53 ff ff ff       	jmpq   405624 <_ZSt21__unguarded_partitionIPcN9__gnu_cxx5__ops15_Iter_less_iterEET_S4_S4_S4_T0_+0x14>
  4056d1:	66 2e 0f 1f 84 00 00 	nopw   %cs:0x0(%rax,%rax,1)
  4056d8:	00 00 00 
  4056db:	0f 1f 44 00 00       	nopl   0x0(%rax,%rax,1)

00000000004056e0 <_ZSt9iter_swapIPcS0_EvT_T0_>:
  4056e0:	55                   	push   %rbp
  4056e1:	48 89 e5             	mov    %rsp,%rbp
  4056e4:	48 83 ec 10          	sub    $0x10,%rsp
  4056e8:	48 89 7d f8          	mov    %rdi,-0x8(%rbp)
  4056ec:	48 89 75 f0          	mov    %rsi,-0x10(%rbp)
  4056f0:	48 8b 7d f8          	mov    -0x8(%rbp),%rdi
  4056f4:	48 8b 75 f0          	mov    -0x10(%rbp),%rsi
  4056f8:	e8 13 00 00 00       	callq  405710 <_ZSt4swapIcENSt9enable_ifIXsr6__and_ISt6__not_ISt15__is_tuple_likeIT_EESt21is_move_constructibleIS3_ESt18is_move_assignableIS3_EEE5valueEvE4typeERS3_SC_>
  4056fd:	48 83 c4 10          	add    $0x10,%rsp
  405701:	5d                   	pop    %rbp
  405702:	c3                   	retq   
  405703:	66 2e 0f 1f 84 00 00 	nopw   %cs:0x0(%rax,%rax,1)
  40570a:	00 00 00 
  40570d:	0f 1f 00             	nopl   (%rax)

0000000000405710 <_ZSt4swapIcENSt9enable_ifIXsr6__and_ISt6__not_ISt15__is_tuple_likeIT_EESt21is_move_constructibleIS3_ESt18is_move_assignableIS3_EEE5valueEvE4typeERS3_SC_>:
  405710:	55                   	push   %rbp
  405711:	48 89 e5             	mov    %rsp,%rbp
  405714:	48 83 ec 20          	sub    $0x20,%rsp
  405718:	48 89 7d f8          	mov    %rdi,-0x8(%rbp)
  40571c:	48 89 75 f0          	mov    %rsi,-0x10(%rbp)
  405720:	48 8b 7d f8          	mov    -0x8(%rbp),%rdi
  405724:	e8 c7 fa ff ff       	callq  4051f0 <_ZSt4moveIRcEONSt16remove_referenceIT_E4typeEOS2_>
  405729:	8a 08                	mov    (%rax),%cl
  40572b:	88 4d ef             	mov    %cl,-0x11(%rbp)
  40572e:	48 8b 7d f0          	mov    -0x10(%rbp),%rdi
  405732:	e8 b9 fa ff ff       	callq  4051f0 <_ZSt4moveIRcEONSt16remove_referenceIT_E4typeEOS2_>
  405737:	8a 08                	mov    (%rax),%cl
  405739:	48 8b 45 f8          	mov    -0x8(%rbp),%rax
  40573d:	88 08                	mov    %cl,(%rax)
  40573f:	48 8d 7d ef          	lea    -0x11(%rbp),%rdi
  405743:	e8 a8 fa ff ff       	callq  4051f0 <_ZSt4moveIRcEONSt16remove_referenceIT_E4typeEOS2_>
  405748:	8a 08                	mov    (%rax),%cl
  40574a:	48 8b 45 f0          	mov    -0x10(%rbp),%rax
  40574e:	88 08                	mov    %cl,(%rax)
  405750:	48 83 c4 20          	add    $0x20,%rsp
  405754:	5d                   	pop    %rbp
  405755:	c3                   	retq   
  405756:	66 2e 0f 1f 84 00 00 	nopw   %cs:0x0(%rax,%rax,1)
  40575d:	00 00 00 

0000000000405760 <_ZSt16__insertion_sortIPcN9__gnu_cxx5__ops15_Iter_less_iterEEvT_S4_T0_>:
  405760:	55                   	push   %rbp
  405761:	48 89 e5             	mov    %rsp,%rbp
  405764:	48 83 ec 50          	sub    $0x50,%rsp
  405768:	48 89 7d f0          	mov    %rdi,-0x10(%rbp)
  40576c:	48 89 75 e8          	mov    %rsi,-0x18(%rbp)
  405770:	48 8b 45 f0          	mov    -0x10(%rbp),%rax
  405774:	48 3b 45 e8          	cmp    -0x18(%rbp),%rax
  405778:	0f 85 05 00 00 00    	jne    405783 <_ZSt16__insertion_sortIPcN9__gnu_cxx5__ops15_Iter_less_iterEEvT_S4_T0_+0x23>
  40577e:	e9 aa 00 00 00       	jmpq   40582d <_ZSt16__insertion_sortIPcN9__gnu_cxx5__ops15_Iter_less_iterEEvT_S4_T0_+0xcd>
  405783:	48 8b 45 f0          	mov    -0x10(%rbp),%rax
  405787:	48 05 01 00 00 00    	add    $0x1,%rax
  40578d:	48 89 45 e0          	mov    %rax,-0x20(%rbp)
  405791:	48 8b 45 e0          	mov    -0x20(%rbp),%rax
  405795:	48 3b 45 e8          	cmp    -0x18(%rbp),%rax
  405799:	0f 84 8e 00 00 00    	je     40582d <_ZSt16__insertion_sortIPcN9__gnu_cxx5__ops15_Iter_less_iterEEvT_S4_T0_+0xcd>
  40579f:	48 8b 75 e0          	mov    -0x20(%rbp),%rsi
  4057a3:	48 8b 55 f0          	mov    -0x10(%rbp),%rdx
  4057a7:	48 8d 7d f8          	lea    -0x8(%rbp),%rdi
  4057ab:	e8 90 f9 ff ff       	callq  405140 <_ZNK9__gnu_cxx5__ops15_Iter_less_iterclIPcS3_EEbT_T0_>
  4057b0:	a8 01                	test   $0x1,%al
  4057b2:	0f 85 05 00 00 00    	jne    4057bd <_ZSt16__insertion_sortIPcN9__gnu_cxx5__ops15_Iter_less_iterEEvT_S4_T0_+0x5d>
  4057b8:	e9 42 00 00 00       	jmpq   4057ff <_ZSt16__insertion_sortIPcN9__gnu_cxx5__ops15_Iter_less_iterEEvT_S4_T0_+0x9f>
  4057bd:	48 8b 7d e0          	mov    -0x20(%rbp),%rdi
  4057c1:	e8 2a fa ff ff       	callq  4051f0 <_ZSt4moveIRcEONSt16remove_referenceIT_E4typeEOS2_>
  4057c6:	8a 08                	mov    (%rax),%cl
  4057c8:	88 4d df             	mov    %cl,-0x21(%rbp)
  4057cb:	48 8b 7d f0          	mov    -0x10(%rbp),%rdi
  4057cf:	48 8b 75 e0          	mov    -0x20(%rbp),%rsi
  4057d3:	48 8b 45 e0          	mov    -0x20(%rbp),%rax
  4057d7:	48 05 01 00 00 00    	add    $0x1,%rax
  4057dd:	48 89 c2             	mov    %rax,%rdx
  4057e0:	e8 bb 00 00 00       	callq  4058a0 <_ZSt13move_backwardIPcS0_ET0_T_S2_S1_>
  4057e5:	48 8d 7d df          	lea    -0x21(%rbp),%rdi
  4057e9:	48 89 45 c0          	mov    %rax,-0x40(%rbp)
  4057ed:	e8 fe f9 ff ff       	callq  4051f0 <_ZSt4moveIRcEONSt16remove_referenceIT_E4typeEOS2_>
  4057f2:	8a 08                	mov    (%rax),%cl
  4057f4:	48 8b 45 f0          	mov    -0x10(%rbp),%rax
  4057f8:	88 08                	mov    %cl,(%rax)
  4057fa:	e9 16 00 00 00       	jmpq   405815 <_ZSt16__insertion_sortIPcN9__gnu_cxx5__ops15_Iter_less_iterEEvT_S4_T0_+0xb5>
  4057ff:	48 8b 7d e0          	mov    -0x20(%rbp),%rdi
  405803:	48 89 7d b8          	mov    %rdi,-0x48(%rbp)
  405807:	e8 74 01 00 00       	callq  405980 <_ZN9__gnu_cxx5__ops15__val_comp_iterENS0_15_Iter_less_iterE>
  40580c:	48 8b 7d b8          	mov    -0x48(%rbp),%rdi
  405810:	e8 cb 00 00 00       	callq  4058e0 <_ZSt25__unguarded_linear_insertIPcN9__gnu_cxx5__ops14_Val_less_iterEEvT_T0_>
  405815:	e9 00 00 00 00       	jmpq   40581a <_ZSt16__insertion_sortIPcN9__gnu_cxx5__ops15_Iter_less_iterEEvT_S4_T0_+0xba>
  40581a:	48 8b 45 e0          	mov    -0x20(%rbp),%rax
  40581e:	48 05 01 00 00 00    	add    $0x1,%rax
  405824:	48 89 45 e0          	mov    %rax,-0x20(%rbp)
  405828:	e9 64 ff ff ff       	jmpq   405791 <_ZSt16__insertion_sortIPcN9__gnu_cxx5__ops15_Iter_less_iterEEvT_S4_T0_+0x31>
  40582d:	48 83 c4 50          	add    $0x50,%rsp
  405831:	5d                   	pop    %rbp
  405832:	c3                   	retq   
  405833:	66 2e 0f 1f 84 00 00 	nopw   %cs:0x0(%rax,%rax,1)
  40583a:	00 00 00 
  40583d:	0f 1f 00             	nopl   (%rax)

0000000000405840 <_ZSt26__unguarded_insertion_sortIPcN9__gnu_cxx5__ops15_Iter_less_iterEEvT_S4_T0_>:
  405840:	55                   	push   %rbp
  405841:	48 89 e5             	mov    %rsp,%rbp
  405844:	48 83 ec 40          	sub    $0x40,%rsp
  405848:	48 89 7d f0          	mov    %rdi,-0x10(%rbp)
  40584c:	48 89 75 e8          	mov    %rsi,-0x18(%rbp)
  405850:	48 8b 45 f0          	mov    -0x10(%rbp),%rax
  405854:	48 89 45 e0          	mov    %rax,-0x20(%rbp)
  405858:	48 8b 45 e0          	mov    -0x20(%rbp),%rax
  40585c:	48 3b 45 e8          	cmp    -0x18(%rbp),%rax
  405860:	0f 84 29 00 00 00    	je     40588f <_ZSt26__unguarded_insertion_sortIPcN9__gnu_cxx5__ops15_Iter_less_iterEEvT_S4_T0_+0x4f>
  405866:	48 8b 7d e0          	mov    -0x20(%rbp),%rdi
  40586a:	48 89 7d c0          	mov    %rdi,-0x40(%rbp)
  40586e:	e8 0d 01 00 00       	callq  405980 <_ZN9__gnu_cxx5__ops15__val_comp_iterENS0_15_Iter_less_iterE>
  405873:	48 8b 7d c0          	mov    -0x40(%rbp),%rdi
  405877:	e8 64 00 00 00       	callq  4058e0 <_ZSt25__unguarded_linear_insertIPcN9__gnu_cxx5__ops14_Val_less_iterEEvT_T0_>
  40587c:	48 8b 45 e0          	mov    -0x20(%rbp),%rax
  405880:	48 05 01 00 00 00    	add    $0x1,%rax
  405886:	48 89 45 e0          	mov    %rax,-0x20(%rbp)
  40588a:	e9 c9 ff ff ff       	jmpq   405858 <_ZSt26__unguarded_insertion_sortIPcN9__gnu_cxx5__ops15_Iter_less_iterEEvT_S4_T0_+0x18>
  40588f:	48 83 c4 40          	add    $0x40,%rsp
  405893:	5d                   	pop    %rbp
  405894:	c3                   	retq   
  405895:	66 2e 0f 1f 84 00 00 	nopw   %cs:0x0(%rax,%rax,1)
  40589c:	00 00 00 
  40589f:	90                   	nop

00000000004058a0 <_ZSt13move_backwardIPcS0_ET0_T_S2_S1_>:
  4058a0:	55                   	push   %rbp
  4058a1:	48 89 e5             	mov    %rsp,%rbp
  4058a4:	48 83 ec 20          	sub    $0x20,%rsp
  4058a8:	48 89 7d f8          	mov    %rdi,-0x8(%rbp)
  4058ac:	48 89 75 f0          	mov    %rsi,-0x10(%rbp)
  4058b0:	48 89 55 e8          	mov    %rdx,-0x18(%rbp)
  4058b4:	48 8b 7d f8          	mov    -0x8(%rbp),%rdi
  4058b8:	e8 33 01 00 00       	callq  4059f0 <_ZSt12__miter_baseIPcET_S1_>
  4058bd:	48 8b 7d f0          	mov    -0x10(%rbp),%rdi
  4058c1:	48 89 45 e0          	mov    %rax,-0x20(%rbp)
  4058c5:	e8 26 01 00 00       	callq  4059f0 <_ZSt12__miter_baseIPcET_S1_>
  4058ca:	48 8b 55 e8          	mov    -0x18(%rbp),%rdx
  4058ce:	48 8b 7d e0          	mov    -0x20(%rbp),%rdi
  4058d2:	48 89 c6             	mov    %rax,%rsi
  4058d5:	e8 b6 00 00 00       	callq  405990 <_ZSt23__copy_move_backward_a2ILb1EPcS0_ET1_T0_S2_S1_>
  4058da:	48 83 c4 20          	add    $0x20,%rsp
  4058de:	5d                   	pop    %rbp
  4058df:	c3                   	retq   

00000000004058e0 <_ZSt25__unguarded_linear_insertIPcN9__gnu_cxx5__ops14_Val_less_iterEEvT_T0_>:
  4058e0:	55                   	push   %rbp
  4058e1:	48 89 e5             	mov    %rsp,%rbp
  4058e4:	48 83 ec 20          	sub    $0x20,%rsp
  4058e8:	48 89 7d f0          	mov    %rdi,-0x10(%rbp)
  4058ec:	48 8b 7d f0          	mov    -0x10(%rbp),%rdi
  4058f0:	e8 fb f8 ff ff       	callq  4051f0 <_ZSt4moveIRcEONSt16remove_referenceIT_E4typeEOS2_>
  4058f5:	8a 08                	mov    (%rax),%cl
  4058f7:	88 4d ef             	mov    %cl,-0x11(%rbp)
  4058fa:	48 8b 45 f0          	mov    -0x10(%rbp),%rax
  4058fe:	48 89 45 e0          	mov    %rax,-0x20(%rbp)
  405902:	48 8b 45 e0          	mov    -0x20(%rbp),%rax
  405906:	48 05 ff ff ff ff    	add    $0xffffffffffffffff,%rax
  40590c:	48 89 45 e0          	mov    %rax,-0x20(%rbp)
  405910:	48 8b 55 e0          	mov    -0x20(%rbp),%rdx
  405914:	48 8d 7d f8          	lea    -0x8(%rbp),%rdi
  405918:	48 8d 75 ef          	lea    -0x11(%rbp),%rsi
  40591c:	e8 7f 01 00 00       	callq  405aa0 <_ZNK9__gnu_cxx5__ops14_Val_less_iterclIcPcEEbRT_T0_>
  405921:	a8 01                	test   $0x1,%al
  405923:	0f 85 05 00 00 00    	jne    40592e <_ZSt25__unguarded_linear_insertIPcN9__gnu_cxx5__ops14_Val_less_iterEEvT_T0_+0x4e>
  405929:	e9 2c 00 00 00       	jmpq   40595a <_ZSt25__unguarded_linear_insertIPcN9__gnu_cxx5__ops14_Val_less_iterEEvT_T0_+0x7a>
  40592e:	48 8b 7d e0          	mov    -0x20(%rbp),%rdi
  405932:	e8 b9 f8 ff ff       	callq  4051f0 <_ZSt4moveIRcEONSt16remove_referenceIT_E4typeEOS2_>
  405937:	8a 08                	mov    (%rax),%cl
  405939:	48 8b 45 f0          	mov    -0x10(%rbp),%rax
  40593d:	88 08                	mov    %cl,(%rax)
  40593f:	48 8b 45 e0          	mov    -0x20(%rbp),%rax
  405943:	48 89 45 f0          	mov    %rax,-0x10(%rbp)
  405947:	48 8b 45 e0          	mov    -0x20(%rbp),%rax
  40594b:	48 05 ff ff ff ff    	add    $0xffffffffffffffff,%rax
  405951:	48 89 45 e0          	mov    %rax,-0x20(%rbp)
  405955:	e9 b6 ff ff ff       	jmpq   405910 <_ZSt25__unguarded_linear_insertIPcN9__gnu_cxx5__ops14_Val_less_iterEEvT_T0_+0x30>
  40595a:	48 8d 7d ef          	lea    -0x11(%rbp),%rdi
  40595e:	e8 8d f8 ff ff       	callq  4051f0 <_ZSt4moveIRcEONSt16remove_referenceIT_E4typeEOS2_>
  405963:	8a 08                	mov    (%rax),%cl
  405965:	48 8b 45 f0          	mov    -0x10(%rbp),%rax
  405969:	88 08                	mov    %cl,(%rax)
  40596b:	48 83 c4 20          	add    $0x20,%rsp
  40596f:	5d                   	pop    %rbp
  405970:	c3                   	retq   
  405971:	66 2e 0f 1f 84 00 00 	nopw   %cs:0x0(%rax,%rax,1)
  405978:	00 00 00 
  40597b:	0f 1f 44 00 00       	nopl   0x0(%rax,%rax,1)

0000000000405980 <_ZN9__gnu_cxx5__ops15__val_comp_iterENS0_15_Iter_less_iterE>:
  405980:	55                   	push   %rbp
  405981:	48 89 e5             	mov    %rsp,%rbp
  405984:	5d                   	pop    %rbp
  405985:	c3                   	retq   
  405986:	66 2e 0f 1f 84 00 00 	nopw   %cs:0x0(%rax,%rax,1)
  40598d:	00 00 00 

0000000000405990 <_ZSt23__copy_move_backward_a2ILb1EPcS0_ET1_T0_S2_S1_>:
  405990:	55                   	push   %rbp
  405991:	48 89 e5             	mov    %rsp,%rbp
  405994:	48 83 ec 30          	sub    $0x30,%rsp
  405998:	48 89 7d f8          	mov    %rdi,-0x8(%rbp)
  40599c:	48 89 75 f0          	mov    %rsi,-0x10(%rbp)
  4059a0:	48 89 55 e8          	mov    %rdx,-0x18(%rbp)
  4059a4:	48 8b 7d f8          	mov    -0x8(%rbp),%rdi
  4059a8:	e8 53 f2 ff ff       	callq  404c00 <_ZSt12__niter_baseIPcET_S1_>
  4059ad:	48 8b 7d f0          	mov    -0x10(%rbp),%rdi
  4059b1:	48 89 45 e0          	mov    %rax,-0x20(%rbp)
  4059b5:	e8 46 f2 ff ff       	callq  404c00 <_ZSt12__niter_baseIPcET_S1_>
  4059ba:	48 8b 7d e8          	mov    -0x18(%rbp),%rdi
  4059be:	48 89 45 d8          	mov    %rax,-0x28(%rbp)
  4059c2:	e8 39 f2 ff ff       	callq  404c00 <_ZSt12__niter_baseIPcET_S1_>
  4059c7:	48 8b 7d e0          	mov    -0x20(%rbp),%rdi
  4059cb:	48 8b 75 d8          	mov    -0x28(%rbp),%rsi
  4059cf:	48 89 c2             	mov    %rax,%rdx
  4059d2:	e8 29 00 00 00       	callq  405a00 <_ZSt22__copy_move_backward_aILb1EPcS0_ET1_T0_S2_S1_>
  4059d7:	48 8d 7d e8          	lea    -0x18(%rbp),%rdi
  4059db:	48 89 c6             	mov    %rax,%rsi
  4059de:	e8 ad f1 ff ff       	callq  404b90 <_ZSt12__niter_wrapIPcET_RKS1_S1_>
  4059e3:	48 83 c4 30          	add    $0x30,%rsp
  4059e7:	5d                   	pop    %rbp
  4059e8:	c3                   	retq   
  4059e9:	0f 1f 80 00 00 00 00 	nopl   0x0(%rax)

00000000004059f0 <_ZSt12__miter_baseIPcET_S1_>:
  4059f0:	55                   	push   %rbp
  4059f1:	48 89 e5             	mov    %rsp,%rbp
  4059f4:	48 89 7d f8          	mov    %rdi,-0x8(%rbp)
  4059f8:	48 8b 45 f8          	mov    -0x8(%rbp),%rax
  4059fc:	5d                   	pop    %rbp
  4059fd:	c3                   	retq   
  4059fe:	66 90                	xchg   %ax,%ax

0000000000405a00 <_ZSt22__copy_move_backward_aILb1EPcS0_ET1_T0_S2_S1_>:
  405a00:	55                   	push   %rbp
  405a01:	48 89 e5             	mov    %rsp,%rbp
  405a04:	48 83 ec 20          	sub    $0x20,%rsp
  405a08:	48 89 7d f8          	mov    %rdi,-0x8(%rbp)
  405a0c:	48 89 75 f0          	mov    %rsi,-0x10(%rbp)
  405a10:	48 89 55 e8          	mov    %rdx,-0x18(%rbp)
  405a14:	c6 45 e7 01          	movb   $0x1,-0x19(%rbp)
  405a18:	48 8b 7d f8          	mov    -0x8(%rbp),%rdi
  405a1c:	48 8b 75 f0          	mov    -0x10(%rbp),%rsi
  405a20:	48 8b 55 e8          	mov    -0x18(%rbp),%rdx
  405a24:	e8 07 00 00 00       	callq  405a30 <_ZNSt20__copy_move_backwardILb1ELb1ESt26random_access_iterator_tagE13__copy_move_bIcEEPT_PKS3_S6_S4_>
  405a29:	48 83 c4 20          	add    $0x20,%rsp
  405a2d:	5d                   	pop    %rbp
  405a2e:	c3                   	retq   
  405a2f:	90                   	nop

0000000000405a30 <_ZNSt20__copy_move_backwardILb1ELb1ESt26random_access_iterator_tagE13__copy_move_bIcEEPT_PKS3_S6_S4_>:
  405a30:	55                   	push   %rbp
  405a31:	48 89 e5             	mov    %rsp,%rbp
  405a34:	48 83 ec 20          	sub    $0x20,%rsp
  405a38:	48 89 7d f8          	mov    %rdi,-0x8(%rbp)
  405a3c:	48 89 75 f0          	mov    %rsi,-0x10(%rbp)
  405a40:	48 89 55 e8          	mov    %rdx,-0x18(%rbp)
  405a44:	48 8b 45 f0          	mov    -0x10(%rbp),%rax
  405a48:	48 8b 4d f8          	mov    -0x8(%rbp),%rcx
  405a4c:	48 29 c8             	sub    %rcx,%rax
  405a4f:	48 89 45 e0          	mov    %rax,-0x20(%rbp)
  405a53:	48 83 7d e0 00       	cmpq   $0x0,-0x20(%rbp)
  405a58:	0f 84 26 00 00 00    	je     405a84 <_ZNSt20__copy_move_backwardILb1ELb1ESt26random_access_iterator_tagE13__copy_move_bIcEEPT_PKS3_S6_S4_+0x54>
  405a5e:	31 c0                	xor    %eax,%eax
  405a60:	89 c1                	mov    %eax,%ecx
  405a62:	48 8b 55 e8          	mov    -0x18(%rbp),%rdx
  405a66:	48 2b 4d e0          	sub    -0x20(%rbp),%rcx
  405a6a:	48 01 ca             	add    %rcx,%rdx
  405a6d:	48 8b 75 f8          	mov    -0x8(%rbp),%rsi
  405a71:	48 8b 4d e0          	mov    -0x20(%rbp),%rcx
  405a75:	48 c1 e1 00          	shl    $0x0,%rcx
  405a79:	48 89 d7             	mov    %rdx,%rdi
  405a7c:	48 89 ca             	mov    %rcx,%rdx
  405a7f:	e8 1c d9 ff ff       	callq  4033a0 <memmove@plt>
  405a84:	31 c0                	xor    %eax,%eax
  405a86:	89 c1                	mov    %eax,%ecx
  405a88:	48 8b 55 e8          	mov    -0x18(%rbp),%rdx
  405a8c:	48 2b 4d e0          	sub    -0x20(%rbp),%rcx
  405a90:	48 01 ca             	add    %rcx,%rdx
  405a93:	48 89 d0             	mov    %rdx,%rax
  405a96:	48 83 c4 20          	add    $0x20,%rsp
  405a9a:	5d                   	pop    %rbp
  405a9b:	c3                   	retq   
  405a9c:	0f 1f 40 00          	nopl   0x0(%rax)

0000000000405aa0 <_ZNK9__gnu_cxx5__ops14_Val_less_iterclIcPcEEbRT_T0_>:
  405aa0:	55                   	push   %rbp
  405aa1:	48 89 e5             	mov    %rsp,%rbp
  405aa4:	48 89 7d f8          	mov    %rdi,-0x8(%rbp)
  405aa8:	48 89 75 f0          	mov    %rsi,-0x10(%rbp)
  405aac:	48 89 55 e8          	mov    %rdx,-0x18(%rbp)
  405ab0:	48 8b 45 f0          	mov    -0x10(%rbp),%rax
  405ab4:	0f be 08             	movsbl (%rax),%ecx
  405ab7:	48 8b 45 e8          	mov    -0x18(%rbp),%rax
  405abb:	44 0f be 00          	movsbl (%rax),%r8d
  405abf:	44 39 c1             	cmp    %r8d,%ecx
  405ac2:	41 0f 9c c1          	setl   %r9b
  405ac6:	41 80 e1 01          	and    $0x1,%r9b
  405aca:	41 0f b6 c1          	movzbl %r9b,%eax
  405ace:	5d                   	pop    %rbp
  405acf:	c3                   	retq   

0000000000405ad0 <_ZN5boost9algorithm10iter_splitISt6vectorINSt7__cxx1112basic_stringIcSt11char_traitsIcESaIcEEESaIS8_EERS8_NS0_6detail13token_finderFINSC_10is_any_ofFIcEEEEEERT_SI_OT0_T1_>:
  405ad0:	55                   	push   %rbp
  405ad1:	48 89 e5             	mov    %rsp,%rbp
  405ad4:	48 81 ec 90 02 00 00 	sub    $0x290,%rsp
  405adb:	48 89 7d f8          	mov    %rdi,-0x8(%rbp)
  405adf:	48 89 75 f0          	mov    %rsi,-0x10(%rbp)
  405ae3:	48 8b 7d f0          	mov    -0x10(%rbp),%rdi
  405ae7:	48 89 95 98 fd ff ff 	mov    %rdx,-0x268(%rbp)
  405aee:	e8 dd 03 00 00       	callq  405ed0 <_ZN5boost10as_literalINSt7__cxx1112basic_stringIcSt11char_traitsIcESaIcEEEEENS_14iterator_rangeINS_14range_iteratorIT_vE4typeEEERS9_>
  405af3:	48 89 45 e0          	mov    %rax,-0x20(%rbp)
  405af7:	48 89 55 e8          	mov    %rdx,-0x18(%rbp)
  405afb:	48 8d 45 e0          	lea    -0x20(%rbp),%rax
  405aff:	48 89 c7             	mov    %rax,%rdi
  405b02:	48 89 85 90 fd ff ff 	mov    %rax,-0x270(%rbp)
  405b09:	e8 02 04 00 00       	callq  405f10 <_ZN5boost17range_adl_barrier3endINS_14iterator_rangeIN9__gnu_cxx17__normal_iteratorIPcNSt7__cxx1112basic_stringIcSt11char_traitsIcESaIcEEEEEEEEENS_14range_iteratorIT_vE4typeERSF_>
  405b0e:	48 89 45 d8          	mov    %rax,-0x28(%rbp)
  405b12:	48 8b bd 90 fd ff ff 	mov    -0x270(%rbp),%rdi
  405b19:	e8 52 04 00 00       	callq  405f70 <_ZN5boost17range_adl_barrier5beginINS_14iterator_rangeIN9__gnu_cxx17__normal_iteratorIPcNSt7__cxx1112basic_stringIcSt11char_traitsIcESaIcEEEEEEEEENS_14range_iteratorIT_vE4typeERSF_>
  405b1e:	48 89 85 38 ff ff ff 	mov    %rax,-0xc8(%rbp)
  405b25:	48 8b 45 d8          	mov    -0x28(%rbp),%rax
  405b29:	48 89 85 30 ff ff ff 	mov    %rax,-0xd0(%rbp)
  405b30:	48 8d 85 10 ff ff ff 	lea    -0xf0(%rbp),%rax
  405b37:	48 89 c7             	mov    %rax,%rdi
  405b3a:	48 8b b5 98 fd ff ff 	mov    -0x268(%rbp),%rsi
  405b41:	48 89 85 88 fd ff ff 	mov    %rax,-0x278(%rbp)
  405b48:	e8 53 04 00 00       	callq  405fa0 <_ZN5boost9algorithm6detail13token_finderFINS1_10is_any_ofFIcEEEC2ERKS5_>
  405b4d:	48 8b b5 38 ff ff ff 	mov    -0xc8(%rbp),%rsi
  405b54:	48 8b 95 30 ff ff ff 	mov    -0xd0(%rbp),%rdx
  405b5b:	48 8d bd 40 ff ff ff 	lea    -0xc0(%rbp),%rdi
  405b62:	48 8b 8d 88 fd ff ff 	mov    -0x278(%rbp),%rcx
  405b69:	e8 72 04 00 00       	callq  405fe0 <_ZN5boost9algorithm14split_iteratorIN9__gnu_cxx17__normal_iteratorIPcNSt7__cxx1112basic_stringIcSt11char_traitsIcESaIcEEEEEEC2INS0_6detail13token_finderFINSE_10is_any_ofFIcEEEEEESB_SB_T_>
  405b6e:	e9 00 00 00 00       	jmpq   405b73 <_ZN5boost9algorithm10iter_splitISt6vectorINSt7__cxx1112basic_stringIcSt11char_traitsIcESaIcEEESaIS8_EERS8_NS0_6detail13token_finderFINSC_10is_any_ofFIcEEEEEERT_SI_OT0_T1_+0xa3>
  405b73:	48 8d 7d 88          	lea    -0x78(%rbp),%rdi
  405b77:	48 8d b5 40 ff ff ff 	lea    -0xc0(%rbp),%rsi
  405b7e:	e8 bd 03 00 00       	callq  405f40 <_ZN5boost9iterators23make_transform_iteratorINS_9algorithm6detail20copy_iterator_rangeFINSt7__cxx1112basic_stringIcSt11char_traitsIcESaIcEEEN9__gnu_cxx17__normal_iteratorIPcSA_EEEENS2_14split_iteratorISE_EEEENS0_18transform_iteratorIT_T0_NS_11use_defaultESL_EESK_SJ_>
  405b83:	e9 00 00 00 00       	jmpq   405b88 <_ZN5boost9algorithm10iter_splitISt6vectorINSt7__cxx1112basic_stringIcSt11char_traitsIcESaIcEEESaIS8_EERS8_NS0_6detail13token_finderFINSC_10is_any_ofFIcEEEEEERT_SI_OT0_T1_+0xb8>
  405b88:	48 8d bd 40 ff ff ff 	lea    -0xc0(%rbp),%rdi
  405b8f:	e8 4c 05 00 00       	callq  4060e0 <_ZN5boost9algorithm14split_iteratorIN9__gnu_cxx17__normal_iteratorIPcNSt7__cxx1112basic_stringIcSt11char_traitsIcESaIcEEEEEED2Ev>
  405b94:	48 8d bd 10 ff ff ff 	lea    -0xf0(%rbp),%rdi
  405b9b:	e8 10 03 00 00       	callq  405eb0 <_ZN5boost9algorithm6detail13token_finderFINS1_10is_any_ofFIcEEED2Ev>
  405ba0:	48 8d bd 68 fe ff ff 	lea    -0x198(%rbp),%rdi
  405ba7:	e8 54 05 00 00       	callq  406100 <_ZN5boost9algorithm14split_iteratorIN9__gnu_cxx17__normal_iteratorIPcNSt7__cxx1112basic_stringIcSt11char_traitsIcESaIcEEEEEEC2Ev>
  405bac:	e9 00 00 00 00       	jmpq   405bb1 <_ZN5boost9algorithm10iter_splitISt6vectorINSt7__cxx1112basic_stringIcSt11char_traitsIcESaIcEEESaIS8_EERS8_NS0_6detail13token_finderFINSC_10is_any_ofFIcEEEEEERT_SI_OT0_T1_+0xe1>
  405bb1:	48 8d bd b0 fe ff ff 	lea    -0x150(%rbp),%rdi
  405bb8:	48 8d b5 68 fe ff ff 	lea    -0x198(%rbp),%rsi
  405bbf:	e8 7c 03 00 00       	callq  405f40 <_ZN5boost9iterators23make_transform_iteratorINS_9algorithm6detail20copy_iterator_rangeFINSt7__cxx1112basic_stringIcSt11char_traitsIcESaIcEEEN9__gnu_cxx17__normal_iteratorIPcSA_EEEENS2_14split_iteratorISE_EEEENS0_18transform_iteratorIT_T0_NS_11use_defaultESL_EESK_SJ_>
  405bc4:	e9 00 00 00 00       	jmpq   405bc9 <_ZN5boost9algorithm10iter_splitISt6vectorINSt7__cxx1112basic_stringIcSt11char_traitsIcESaIcEEESaIS8_EERS8_NS0_6detail13token_finderFINSC_10is_any_ofFIcEEEEEERT_SI_OT0_T1_+0xf9>
  405bc9:	48 8d bd 68 fe ff ff 	lea    -0x198(%rbp),%rdi
  405bd0:	e8 0b 05 00 00       	callq  4060e0 <_ZN5boost9algorithm14split_iteratorIN9__gnu_cxx17__normal_iteratorIPcNSt7__cxx1112basic_stringIcSt11char_traitsIcESaIcEEEEEED2Ev>
  405bd5:	48 8d bd f8 fd ff ff 	lea    -0x208(%rbp),%rdi
  405bdc:	48 8d 75 88          	lea    -0x78(%rbp),%rsi
  405be0:	e8 9b 05 00 00       	callq  406180 <_ZN5boost9iterators18transform_iteratorINS_9algorithm6detail20copy_iterator_rangeFINSt7__cxx1112basic_stringIcSt11char_traitsIcESaIcEEEN9__gnu_cxx17__normal_iteratorIPcSA_EEEENS2_14split_iteratorISE_EENS_11use_defaultESI_EC2ERKSJ_>
  405be5:	e9 00 00 00 00       	jmpq   405bea <_ZN5boost9algorithm10iter_splitISt6vectorINSt7__cxx1112basic_stringIcSt11char_traitsIcESaIcEEESaIS8_EERS8_NS0_6detail13token_finderFINSC_10is_any_ofFIcEEEEEERT_SI_OT0_T1_+0x11a>
  405bea:	48 8d bd a8 fd ff ff 	lea    -0x258(%rbp),%rdi
  405bf1:	48 8d b5 b0 fe ff ff 	lea    -0x150(%rbp),%rsi
  405bf8:	e8 83 05 00 00       	callq  406180 <_ZN5boost9iterators18transform_iteratorINS_9algorithm6detail20copy_iterator_rangeFINSt7__cxx1112basic_stringIcSt11char_traitsIcESaIcEEEN9__gnu_cxx17__normal_iteratorIPcSA_EEEENS2_14split_iteratorISE_EENS_11use_defaultESI_EC2ERKSJ_>
  405bfd:	e9 00 00 00 00       	jmpq   405c02 <_ZN5boost9algorithm10iter_splitISt6vectorINSt7__cxx1112basic_stringIcSt11char_traitsIcESaIcEEESaIS8_EERS8_NS0_6detail13token_finderFINSC_10is_any_ofFIcEEEEEERT_SI_OT0_T1_+0x132>
  405c02:	48 8d 85 a0 fd ff ff 	lea    -0x260(%rbp),%rax
  405c09:	48 89 c7             	mov    %rax,%rdi
  405c0c:	48 89 85 80 fd ff ff 	mov    %rax,-0x280(%rbp)
  405c13:	e8 98 05 00 00       	callq  4061b0 <_ZNSaINSt7__cxx1112basic_stringIcSt11char_traitsIcESaIcEEEEC2Ev>
  405c18:	48 8d bd 48 fe ff ff 	lea    -0x1b8(%rbp),%rdi
  405c1f:	48 8d b5 f8 fd ff ff 	lea    -0x208(%rbp),%rsi
  405c26:	48 8d 95 a8 fd ff ff 	lea    -0x258(%rbp),%rdx
  405c2d:	48 8b 8d 80 fd ff ff 	mov    -0x280(%rbp),%rcx
  405c34:	e8 97 05 00 00       	callq  4061d0 <_ZNSt6vectorINSt7__cxx1112basic_stringIcSt11char_traitsIcESaIcEEESaIS5_EEC2IN5boost9iterators18transform_iteratorINS9_9algorithm6detail20copy_iterator_rangeFIS5_N9__gnu_cxx17__normal_iteratorIPcS5_EEEENSC_14split_iteratorISI_EENS9_11use_defaultESM_EEvEET_SO_RKS6_>
  405c39:	e9 00 00 00 00       	jmpq   405c3e <_ZN5boost9algorithm10iter_splitISt6vectorINSt7__cxx1112basic_stringIcSt11char_traitsIcESaIcEEESaIS8_EERS8_NS0_6detail13token_finderFINSC_10is_any_ofFIcEEEEEERT_SI_OT0_T1_+0x16e>
  405c3e:	48 8d bd a0 fd ff ff 	lea    -0x260(%rbp),%rdi
  405c45:	e8 86 06 00 00       	callq  4062d0 <_ZNSaINSt7__cxx1112basic_stringIcSt11char_traitsIcESaIcEEEED2Ev>
  405c4a:	48 8d bd a8 fd ff ff 	lea    -0x258(%rbp),%rdi
  405c51:	e8 9a 06 00 00       	callq  4062f0 <_ZN5boost9iterators18transform_iteratorINS_9algorithm6detail20copy_iterator_rangeFINSt7__cxx1112basic_stringIcSt11char_traitsIcESaIcEEEN9__gnu_cxx17__normal_iteratorIPcSA_EEEENS2_14split_iteratorISE_EENS_11use_defaultESI_ED2Ev>
  405c56:	48 8d bd f8 fd ff ff 	lea    -0x208(%rbp),%rdi
  405c5d:	e8 8e 06 00 00       	callq  4062f0 <_ZN5boost9iterators18transform_iteratorINS_9algorithm6detail20copy_iterator_rangeFINSt7__cxx1112basic_stringIcSt11char_traitsIcESaIcEEEN9__gnu_cxx17__normal_iteratorIPcSA_EEEENS2_14split_iteratorISE_EENS_11use_defaultESI_ED2Ev>
  405c62:	48 8b 7d f8          	mov    -0x8(%rbp),%rdi
  405c66:	48 8d b5 48 fe ff ff 	lea    -0x1b8(%rbp),%rsi
  405c6d:	e8 9e 06 00 00       	callq  406310 <_ZNSt6vectorINSt7__cxx1112basic_stringIcSt11char_traitsIcESaIcEEESaIS5_EE4swapERS7_>
  405c72:	48 8b 45 f8          	mov    -0x8(%rbp),%rax
  405c76:	48 8d bd 48 fe ff ff 	lea    -0x1b8(%rbp),%rdi
  405c7d:	48 89 85 78 fd ff ff 	mov    %rax,-0x288(%rbp)
  405c84:	e8 b7 df ff ff       	callq  403c40 <_ZNSt6vectorINSt7__cxx1112basic_stringIcSt11char_traitsIcESaIcEEESaIS5_EED2Ev>
  405c89:	48 8d bd b0 fe ff ff 	lea    -0x150(%rbp),%rdi
  405c90:	e8 5b 06 00 00       	callq  4062f0 <_ZN5boost9iterators18transform_iteratorINS_9algorithm6detail20copy_iterator_rangeFINSt7__cxx1112basic_stringIcSt11char_traitsIcESaIcEEEN9__gnu_cxx17__normal_iteratorIPcSA_EEEENS2_14split_iteratorISE_EENS_11use_defaultESI_ED2Ev>
  405c95:	48 8d 7d 88          	lea    -0x78(%rbp),%rdi
  405c99:	e8 52 06 00 00       	callq  4062f0 <_ZN5boost9iterators18transform_iteratorINS_9algorithm6detail20copy_iterator_rangeFINSt7__cxx1112basic_stringIcSt11char_traitsIcESaIcEEEN9__gnu_cxx17__normal_iteratorIPcSA_EEEENS2_14split_iteratorISE_EENS_11use_defaultESI_ED2Ev>
  405c9e:	48 8b 85 78 fd ff ff 	mov    -0x288(%rbp),%rax
  405ca5:	48 81 c4 90 02 00 00 	add    $0x290,%rsp
  405cac:	5d                   	pop    %rbp
  405cad:	c3                   	retq   
  405cae:	48 89 85 08 ff ff ff 	mov    %rax,-0xf8(%rbp)
  405cb5:	89 95 04 ff ff ff    	mov    %edx,-0xfc(%rbp)
  405cbb:	e9 19 00 00 00       	jmpq   405cd9 <_ZN5boost9algorithm10iter_splitISt6vectorINSt7__cxx1112basic_stringIcSt11char_traitsIcESaIcEEESaIS8_EERS8_NS0_6detail13token_finderFINSC_10is_any_ofFIcEEEEEERT_SI_OT0_T1_+0x209>
  405cc0:	48 89 85 08 ff ff ff 	mov    %rax,-0xf8(%rbp)
  405cc7:	89 95 04 ff ff ff    	mov    %edx,-0xfc(%rbp)
  405ccd:	48 8d bd 40 ff ff ff 	lea    -0xc0(%rbp),%rdi
  405cd4:	e8 07 04 00 00       	callq  4060e0 <_ZN5boost9algorithm14split_iteratorIN9__gnu_cxx17__normal_iteratorIPcNSt7__cxx1112basic_stringIcSt11char_traitsIcESaIcEEEEEED2Ev>
  405cd9:	48 8d bd 10 ff ff ff 	lea    -0xf0(%rbp),%rdi
  405ce0:	e8 cb 01 00 00       	callq  405eb0 <_ZN5boost9algorithm6detail13token_finderFINS1_10is_any_ofFIcEEED2Ev>
  405ce5:	e9 9a 00 00 00       	jmpq   405d84 <_ZN5boost9algorithm10iter_splitISt6vectorINSt7__cxx1112basic_stringIcSt11char_traitsIcESaIcEEESaIS8_EERS8_NS0_6detail13token_finderFINSC_10is_any_ofFIcEEEEEERT_SI_OT0_T1_+0x2b4>
  405cea:	48 89 85 08 ff ff ff 	mov    %rax,-0xf8(%rbp)
  405cf1:	89 95 04 ff ff ff    	mov    %edx,-0xfc(%rbp)
  405cf7:	e9 7f 00 00 00       	jmpq   405d7b <_ZN5boost9algorithm10iter_splitISt6vectorINSt7__cxx1112basic_stringIcSt11char_traitsIcESaIcEEESaIS8_EERS8_NS0_6detail13token_finderFINSC_10is_any_ofFIcEEEEEERT_SI_OT0_T1_+0x2ab>
  405cfc:	48 89 85 08 ff ff ff 	mov    %rax,-0xf8(%rbp)
  405d03:	89 95 04 ff ff ff    	mov    %edx,-0xfc(%rbp)
  405d09:	48 8d bd 68 fe ff ff 	lea    -0x198(%rbp),%rdi
  405d10:	e8 cb 03 00 00       	callq  4060e0 <_ZN5boost9algorithm14split_iteratorIN9__gnu_cxx17__normal_iteratorIPcNSt7__cxx1112basic_stringIcSt11char_traitsIcESaIcEEEEEED2Ev>
  405d15:	e9 61 00 00 00       	jmpq   405d7b <_ZN5boost9algorithm10iter_splitISt6vectorINSt7__cxx1112basic_stringIcSt11char_traitsIcESaIcEEESaIS8_EERS8_NS0_6detail13token_finderFINSC_10is_any_ofFIcEEEEEERT_SI_OT0_T1_+0x2ab>
  405d1a:	48 89 85 08 ff ff ff 	mov    %rax,-0xf8(%rbp)
  405d21:	89 95 04 ff ff ff    	mov    %edx,-0xfc(%rbp)
  405d27:	e9 43 00 00 00       	jmpq   405d6f <_ZN5boost9algorithm10iter_splitISt6vectorINSt7__cxx1112basic_stringIcSt11char_traitsIcESaIcEEESaIS8_EERS8_NS0_6detail13token_finderFINSC_10is_any_ofFIcEEEEEERT_SI_OT0_T1_+0x29f>
  405d2c:	48 89 85 08 ff ff ff 	mov    %rax,-0xf8(%rbp)
  405d33:	89 95 04 ff ff ff    	mov    %edx,-0xfc(%rbp)
  405d39:	e9 25 00 00 00       	jmpq   405d63 <_ZN5boost9algorithm10iter_splitISt6vectorINSt7__cxx1112basic_stringIcSt11char_traitsIcESaIcEEESaIS8_EERS8_NS0_6detail13token_finderFINSC_10is_any_ofFIcEEEEEERT_SI_OT0_T1_+0x293>
  405d3e:	48 89 85 08 ff ff ff 	mov    %rax,-0xf8(%rbp)
  405d45:	89 95 04 ff ff ff    	mov    %edx,-0xfc(%rbp)
  405d4b:	48 8d bd a0 fd ff ff 	lea    -0x260(%rbp),%rdi
  405d52:	e8 79 05 00 00       	callq  4062d0 <_ZNSaINSt7__cxx1112basic_stringIcSt11char_traitsIcESaIcEEEED2Ev>
  405d57:	48 8d bd a8 fd ff ff 	lea    -0x258(%rbp),%rdi
  405d5e:	e8 8d 05 00 00       	callq  4062f0 <_ZN5boost9iterators18transform_iteratorINS_9algorithm6detail20copy_iterator_rangeFINSt7__cxx1112basic_stringIcSt11char_traitsIcESaIcEEEN9__gnu_cxx17__normal_iteratorIPcSA_EEEENS2_14split_iteratorISE_EENS_11use_defaultESI_ED2Ev>
  405d63:	48 8d bd f8 fd ff ff 	lea    -0x208(%rbp),%rdi
  405d6a:	e8 81 05 00 00       	callq  4062f0 <_ZN5boost9iterators18transform_iteratorINS_9algorithm6detail20copy_iterator_rangeFINSt7__cxx1112basic_stringIcSt11char_traitsIcESaIcEEEN9__gnu_cxx17__normal_iteratorIPcSA_EEEENS2_14split_iteratorISE_EENS_11use_defaultESI_ED2Ev>
  405d6f:	48 8d bd b0 fe ff ff 	lea    -0x150(%rbp),%rdi
  405d76:	e8 75 05 00 00       	callq  4062f0 <_ZN5boost9iterators18transform_iteratorINS_9algorithm6detail20copy_iterator_rangeFINSt7__cxx1112basic_stringIcSt11char_traitsIcESaIcEEEN9__gnu_cxx17__normal_iteratorIPcSA_EEEENS2_14split_iteratorISE_EENS_11use_defaultESI_ED2Ev>
  405d7b:	48 8d 7d 88          	lea    -0x78(%rbp),%rdi
  405d7f:	e8 6c 05 00 00       	callq  4062f0 <_ZN5boost9iterators18transform_iteratorINS_9algorithm6detail20copy_iterator_rangeFINSt7__cxx1112basic_stringIcSt11char_traitsIcESaIcEEEN9__gnu_cxx17__normal_iteratorIPcSA_EEEENS2_14split_iteratorISE_EENS_11use_defaultESI_ED2Ev>
  405d84:	48 8b bd 08 ff ff ff 	mov    -0xf8(%rbp),%rdi
  405d8b:	e8 50 d6 ff ff       	callq  4033e0 <_Unwind_Resume@plt>

0000000000405d90 <_ZN5boost9algorithm12token_finderINS0_6detail10is_any_ofFIcEEEENS2_13token_finderFIT_EES6_NS0_24token_compress_mode_typeE>:
  405d90:	55                   	push   %rbp
  405d91:	48 89 e5             	mov    %rsp,%rbp
  405d94:	48 83 ec 50          	sub    $0x50,%rsp
  405d98:	48 89 f8             	mov    %rdi,%rax
  405d9b:	48 89 7d f8          	mov    %rdi,-0x8(%rbp)
  405d9f:	89 55 f4             	mov    %edx,-0xc(%rbp)
  405da2:	48 8d 4d d8          	lea    -0x28(%rbp),%rcx
  405da6:	48 89 7d c0          	mov    %rdi,-0x40(%rbp)
  405daa:	48 89 cf             	mov    %rcx,%rdi
  405dad:	48 89 45 b8          	mov    %rax,-0x48(%rbp)
  405db1:	48 89 4d b0          	mov    %rcx,-0x50(%rbp)
  405db5:	e8 46 00 00 00       	callq  405e00 <_ZN5boost9algorithm6detail10is_any_ofFIcEC2ERKS3_>
  405dba:	8b 55 f4             	mov    -0xc(%rbp),%edx
  405dbd:	48 8b 7d c0          	mov    -0x40(%rbp),%rdi
  405dc1:	48 8b 75 b0          	mov    -0x50(%rbp),%rsi
  405dc5:	e8 d6 46 00 00       	callq  40a4a0 <_ZN5boost9algorithm6detail13token_finderFINS1_10is_any_ofFIcEEEC2ES4_NS0_24token_compress_mode_typeE>
  405dca:	e9 00 00 00 00       	jmpq   405dcf <_ZN5boost9algorithm12token_finderINS0_6detail10is_any_ofFIcEEEENS2_13token_finderFIT_EES6_NS0_24token_compress_mode_typeE+0x3f>
  405dcf:	48 8d 7d d8          	lea    -0x28(%rbp),%rdi
  405dd3:	e8 68 dd ff ff       	callq  403b40 <_ZN5boost9algorithm6detail10is_any_ofFIcED2Ev>
  405dd8:	48 8b 45 b8          	mov    -0x48(%rbp),%rax
  405ddc:	48 83 c4 50          	add    $0x50,%rsp
  405de0:	5d                   	pop    %rbp
  405de1:	c3                   	retq   
  405de2:	48 89 45 d0          	mov    %rax,-0x30(%rbp)
  405de6:	89 55 cc             	mov    %edx,-0x34(%rbp)
  405de9:	48 8d 7d d8          	lea    -0x28(%rbp),%rdi
  405ded:	e8 4e dd ff ff       	callq  403b40 <_ZN5boost9algorithm6detail10is_any_ofFIcED2Ev>
  405df2:	48 8b 7d d0          	mov    -0x30(%rbp),%rdi
  405df6:	e8 e5 d5 ff ff       	callq  4033e0 <_Unwind_Resume@plt>
  405dfb:	0f 1f 44 00 00       	nopl   0x0(%rax,%rax,1)

0000000000405e00 <_ZN5boost9algorithm6detail10is_any_ofFIcEC2ERKS3_>:
  405e00:	55                   	push   %rbp
  405e01:	48 89 e5             	mov    %rsp,%rbp
  405e04:	48 83 ec 30          	sub    $0x30,%rsp
  405e08:	48 89 7d f8          	mov    %rdi,-0x8(%rbp)
  405e0c:	48 89 75 f0          	mov    %rsi,-0x10(%rbp)
  405e10:	48 8b 45 f8          	mov    -0x8(%rbp),%rax
  405e14:	48 8b 4d f0          	mov    -0x10(%rbp),%rcx
  405e18:	48 8b 49 10          	mov    0x10(%rcx),%rcx
  405e1c:	48 89 48 10          	mov    %rcx,0x10(%rax)
  405e20:	48 c7 00 00 00 00 00 	movq   $0x0,(%rax)
  405e27:	48 c7 45 e8 00 00 00 	movq   $0x0,-0x18(%rbp)
  405e2e:	00 
  405e2f:	48 c7 45 e0 00 00 00 	movq   $0x0,-0x20(%rbp)
  405e36:	00 
  405e37:	48 8b 78 10          	mov    0x10(%rax),%rdi
  405e3b:	48 89 45 d8          	mov    %rax,-0x28(%rbp)
  405e3f:	e8 dc ea ff ff       	callq  404920 <_ZN5boost9algorithm6detail10is_any_ofFIcE17use_fixed_storageEm>
  405e44:	a8 01                	test   $0x1,%al
  405e46:	0f 85 05 00 00 00    	jne    405e51 <_ZN5boost9algorithm6detail10is_any_ofFIcEC2ERKS3_+0x51>
  405e4c:	e9 15 00 00 00       	jmpq   405e66 <_ZN5boost9algorithm6detail10is_any_ofFIcEC2ERKS3_+0x66>
  405e51:	48 8b 45 d8          	mov    -0x28(%rbp),%rax
  405e55:	48 89 45 e0          	mov    %rax,-0x20(%rbp)
  405e59:	48 8b 45 f0          	mov    -0x10(%rbp),%rax
  405e5d:	48 89 45 e8          	mov    %rax,-0x18(%rbp)
  405e61:	e9 26 00 00 00       	jmpq   405e8c <_ZN5boost9algorithm6detail10is_any_ofFIcEC2ERKS3_+0x8c>
  405e66:	48 8b 45 d8          	mov    -0x28(%rbp),%rax
  405e6a:	48 8b 78 10          	mov    0x10(%rax),%rdi
  405e6e:	e8 bd d1 ff ff       	callq  403030 <_Znam@plt>
  405e73:	48 8b 4d d8          	mov    -0x28(%rbp),%rcx
  405e77:	48 89 01             	mov    %rax,(%rcx)
  405e7a:	48 8b 01             	mov    (%rcx),%rax
  405e7d:	48 89 45 e0          	mov    %rax,-0x20(%rbp)
  405e81:	48 8b 45 f0          	mov    -0x10(%rbp),%rax
  405e85:	48 8b 00             	mov    (%rax),%rax
  405e88:	48 89 45 e8          	mov    %rax,-0x18(%rbp)
  405e8c:	48 8b 7d e0          	mov    -0x20(%rbp),%rdi
  405e90:	48 8b 75 e8          	mov    -0x18(%rbp),%rsi
  405e94:	48 8b 45 d8          	mov    -0x28(%rbp),%rax
  405e98:	48 8b 48 10          	mov    0x10(%rax),%rcx
  405e9c:	48 c1 e1 00          	shl    $0x0,%rcx
  405ea0:	48 89 ca             	mov    %rcx,%rdx
  405ea3:	e8 28 d3 ff ff       	callq  4031d0 <memcpy@plt>
  405ea8:	48 83 c4 30          	add    $0x30,%rsp
  405eac:	5d                   	pop    %rbp
  405ead:	c3                   	retq   
  405eae:	66 90                	xchg   %ax,%ax

0000000000405eb0 <_ZN5boost9algorithm6detail13token_finderFINS1_10is_any_ofFIcEEED2Ev>:
  405eb0:	55                   	push   %rbp
  405eb1:	48 89 e5             	mov    %rsp,%rbp
  405eb4:	48 83 ec 10          	sub    $0x10,%rsp
  405eb8:	48 89 7d f8          	mov    %rdi,-0x8(%rbp)
  405ebc:	48 8b 7d f8          	mov    -0x8(%rbp),%rdi
  405ec0:	e8 7b dc ff ff       	callq  403b40 <_ZN5boost9algorithm6detail10is_any_ofFIcED2Ev>
  405ec5:	48 83 c4 10          	add    $0x10,%rsp
  405ec9:	5d                   	pop    %rbp
  405eca:	c3                   	retq   
  405ecb:	0f 1f 44 00 00       	nopl   0x0(%rax,%rax,1)

0000000000405ed0 <_ZN5boost10as_literalINSt7__cxx1112basic_stringIcSt11char_traitsIcESaIcEEEEENS_14iterator_rangeINS_14range_iteratorIT_vE4typeEEERS9_>:
  405ed0:	55                   	push   %rbp
  405ed1:	48 89 e5             	mov    %rsp,%rbp
  405ed4:	48 83 ec 20          	sub    $0x20,%rsp
  405ed8:	48 89 7d e8          	mov    %rdi,-0x18(%rbp)
  405edc:	48 8b 45 e8          	mov    -0x18(%rbp),%rax
  405ee0:	48 89 c7             	mov    %rax,%rdi
  405ee3:	48 89 45 e0          	mov    %rax,-0x20(%rbp)
  405ee7:	e8 94 e7 ff ff       	callq  404680 <_ZN5boost12range_detail11is_char_ptrINSt7__cxx1112basic_stringIcSt11char_traitsIcESaIcEEEEElRKT_>
  405eec:	48 8b 7d e0          	mov    -0x20(%rbp),%rdi
  405ef0:	48 89 c6             	mov    %rax,%rsi
  405ef3:	e8 78 04 00 00       	callq  406370 <_ZN5boost12range_detail10make_rangeINSt7__cxx1112basic_stringIcSt11char_traitsIcESaIcEEEEENS_14iterator_rangeINS_14range_iteratorIT_vE4typeEEERSA_l>
  405ef8:	48 89 45 f0          	mov    %rax,-0x10(%rbp)
  405efc:	48 89 55 f8          	mov    %rdx,-0x8(%rbp)
  405f00:	48 8b 45 f0          	mov    -0x10(%rbp),%rax
  405f04:	48 8b 55 f8          	mov    -0x8(%rbp),%rdx
  405f08:	48 83 c4 20          	add    $0x20,%rsp
  405f0c:	5d                   	pop    %rbp
  405f0d:	c3                   	retq   
  405f0e:	66 90                	xchg   %ax,%ax

0000000000405f10 <_ZN5boost17range_adl_barrier3endINS_14iterator_rangeIN9__gnu_cxx17__normal_iteratorIPcNSt7__cxx1112basic_stringIcSt11char_traitsIcESaIcEEEEEEEEENS_14range_iteratorIT_vE4typeERSF_>:
  405f10:	55                   	push   %rbp
  405f11:	48 89 e5             	mov    %rsp,%rbp
  405f14:	48 83 ec 10          	sub    $0x10,%rsp
  405f18:	48 89 7d f0          	mov    %rdi,-0x10(%rbp)
  405f1c:	48 8b 7d f0          	mov    -0x10(%rbp),%rdi
  405f20:	e8 cb 06 00 00       	callq  4065f0 <_ZN5boost12range_detail9range_endINS_14iterator_rangeIN9__gnu_cxx17__normal_iteratorIPcNSt7__cxx1112basic_stringIcSt11char_traitsIcESaIcEEEEEEEEENS_14range_iteratorIT_vE4typeERSF_>
  405f25:	48 89 45 f8          	mov    %rax,-0x8(%rbp)
  405f29:	48 8b 45 f8          	mov    -0x8(%rbp),%rax
  405f2d:	48 83 c4 10          	add    $0x10,%rsp
  405f31:	5d                   	pop    %rbp
  405f32:	c3                   	retq   
  405f33:	66 2e 0f 1f 84 00 00 	nopw   %cs:0x0(%rax,%rax,1)
  405f3a:	00 00 00 
  405f3d:	0f 1f 00             	nopl   (%rax)

0000000000405f40 <_ZN5boost9iterators23make_transform_iteratorINS_9algorithm6detail20copy_iterator_rangeFINSt7__cxx1112basic_stringIcSt11char_traitsIcESaIcEEEN9__gnu_cxx17__normal_iteratorIPcSA_EEEENS2_14split_iteratorISE_EEEENS0_18transform_iteratorIT_T0_NS_11use_defaultESL_EESK_SJ_>:
  405f40:	55                   	push   %rbp
  405f41:	48 89 e5             	mov    %rsp,%rbp
  405f44:	48 83 ec 20          	sub    $0x20,%rsp
  405f48:	48 89 f8             	mov    %rdi,%rax
  405f4b:	48 89 f9             	mov    %rdi,%rcx
  405f4e:	48 89 4d f8          	mov    %rcx,-0x8(%rbp)
  405f52:	48 89 45 e0          	mov    %rax,-0x20(%rbp)
  405f56:	e8 e5 06 00 00       	callq  406640 <_ZN5boost9iterators18transform_iteratorINS_9algorithm6detail20copy_iterator_rangeFINSt7__cxx1112basic_stringIcSt11char_traitsIcESaIcEEEN9__gnu_cxx17__normal_iteratorIPcSA_EEEENS2_14split_iteratorISE_EENS_11use_defaultESI_EC2ERKSH_SF_>
  405f5b:	48 8b 45 e0          	mov    -0x20(%rbp),%rax
  405f5f:	48 83 c4 20          	add    $0x20,%rsp
  405f63:	5d                   	pop    %rbp
  405f64:	c3                   	retq   
  405f65:	66 2e 0f 1f 84 00 00 	nopw   %cs:0x0(%rax,%rax,1)
  405f6c:	00 00 00 
  405f6f:	90                   	nop

0000000000405f70 <_ZN5boost17range_adl_barrier5beginINS_14iterator_rangeIN9__gnu_cxx17__normal_iteratorIPcNSt7__cxx1112basic_stringIcSt11char_traitsIcESaIcEEEEEEEEENS_14range_iteratorIT_vE4typeERSF_>:
  405f70:	55                   	push   %rbp
  405f71:	48 89 e5             	mov    %rsp,%rbp
  405f74:	48 83 ec 10          	sub    $0x10,%rsp
  405f78:	48 89 7d f0          	mov    %rdi,-0x10(%rbp)
  405f7c:	48 8b 7d f0          	mov    -0x10(%rbp),%rdi
  405f80:	e8 3b 09 00 00       	callq  4068c0 <_ZN5boost12range_detail11range_beginINS_14iterator_rangeIN9__gnu_cxx17__normal_iteratorIPcNSt7__cxx1112basic_stringIcSt11char_traitsIcESaIcEEEEEEEEENS_14range_iteratorIT_vE4typeERSF_>
  405f85:	48 89 45 f8          	mov    %rax,-0x8(%rbp)
  405f89:	48 8b 45 f8          	mov    -0x8(%rbp),%rax
  405f8d:	48 83 c4 10          	add    $0x10,%rsp
  405f91:	5d                   	pop    %rbp
  405f92:	c3                   	retq   
  405f93:	66 2e 0f 1f 84 00 00 	nopw   %cs:0x0(%rax,%rax,1)
  405f9a:	00 00 00 
  405f9d:	0f 1f 00             	nopl   (%rax)

0000000000405fa0 <_ZN5boost9algorithm6detail13token_finderFINS1_10is_any_ofFIcEEEC2ERKS5_>:
  405fa0:	55                   	push   %rbp
  405fa1:	48 89 e5             	mov    %rsp,%rbp
  405fa4:	48 83 ec 20          	sub    $0x20,%rsp
  405fa8:	48 89 7d f8          	mov    %rdi,-0x8(%rbp)
  405fac:	48 89 75 f0          	mov    %rsi,-0x10(%rbp)
  405fb0:	48 8b 45 f8          	mov    -0x8(%rbp),%rax
  405fb4:	48 8b 75 f0          	mov    -0x10(%rbp),%rsi
  405fb8:	48 89 c7             	mov    %rax,%rdi
  405fbb:	48 89 45 e8          	mov    %rax,-0x18(%rbp)
  405fbf:	e8 3c fe ff ff       	callq  405e00 <_ZN5boost9algorithm6detail10is_any_ofFIcEC2ERKS3_>
  405fc4:	48 8b 45 f0          	mov    -0x10(%rbp),%rax
  405fc8:	8b 48 18             	mov    0x18(%rax),%ecx
  405fcb:	48 8b 45 e8          	mov    -0x18(%rbp),%rax
  405fcf:	89 48 18             	mov    %ecx,0x18(%rax)
  405fd2:	48 83 c4 20          	add    $0x20,%rsp
  405fd6:	5d                   	pop    %rbp
  405fd7:	c3                   	retq   
  405fd8:	0f 1f 84 00 00 00 00 	nopl   0x0(%rax,%rax,1)
  405fdf:	00 

0000000000405fe0 <_ZN5boost9algorithm14split_iteratorIN9__gnu_cxx17__normal_iteratorIPcNSt7__cxx1112basic_stringIcSt11char_traitsIcESaIcEEEEEEC2INS0_6detail13token_finderFINSE_10is_any_ofFIcEEEEEESB_SB_T_>:
  405fe0:	55                   	push   %rbp
  405fe1:	48 89 e5             	mov    %rsp,%rbp
  405fe4:	48 83 ec 70          	sub    $0x70,%rsp
  405fe8:	48 89 75 f8          	mov    %rsi,-0x8(%rbp)
  405fec:	48 89 55 f0          	mov    %rdx,-0x10(%rbp)
  405ff0:	48 89 7d e8          	mov    %rdi,-0x18(%rbp)
  405ff4:	48 8b 45 e8          	mov    -0x18(%rbp),%rax
  405ff8:	48 8d 55 c8          	lea    -0x38(%rbp),%rdx
  405ffc:	48 89 d7             	mov    %rdx,%rdi
  405fff:	48 89 ce             	mov    %rcx,%rsi
  406002:	48 89 45 a0          	mov    %rax,-0x60(%rbp)
  406006:	48 89 55 98          	mov    %rdx,-0x68(%rbp)
  40600a:	e8 91 ff ff ff       	callq  405fa0 <_ZN5boost9algorithm6detail13token_finderFINS1_10is_any_ofFIcEEEC2ERKS5_>
  40600f:	31 d2                	xor    %edx,%edx
  406011:	48 8b 7d a0          	mov    -0x60(%rbp),%rdi
  406015:	48 8b 75 98          	mov    -0x68(%rbp),%rsi
  406019:	e8 f2 08 00 00       	callq  406910 <_ZN5boost9algorithm6detail18find_iterator_baseIN9__gnu_cxx17__normal_iteratorIPcNSt7__cxx1112basic_stringIcSt11char_traitsIcESaIcEEEEEEC2INS1_13token_finderFINS1_10is_any_ofFIcEEEEEET_i>
  40601e:	e9 00 00 00 00       	jmpq   406023 <_ZN5boost9algorithm14split_iteratorIN9__gnu_cxx17__normal_iteratorIPcNSt7__cxx1112basic_stringIcSt11char_traitsIcESaIcEEEEEEC2INS0_6detail13token_finderFINSE_10is_any_ofFIcEEEEEESB_SB_T_+0x43>
  406023:	48 8d 7d c8          	lea    -0x38(%rbp),%rdi
  406027:	e8 84 fe ff ff       	callq  405eb0 <_ZN5boost9algorithm6detail13token_finderFINS1_10is_any_ofFIcEEED2Ev>
  40602c:	48 8b 45 a0          	mov    -0x60(%rbp),%rax
  406030:	48 83 c0 20          	add    $0x20,%rax
  406034:	48 8b 4d f8          	mov    -0x8(%rbp),%rcx
  406038:	48 89 4d b0          	mov    %rcx,-0x50(%rbp)
  40603c:	48 8b 4d f8          	mov    -0x8(%rbp),%rcx
  406040:	48 89 4d a8          	mov    %rcx,-0x58(%rbp)
  406044:	48 8b 75 b0          	mov    -0x50(%rbp),%rsi
  406048:	48 8b 55 a8          	mov    -0x58(%rbp),%rdx
  40604c:	48 89 c7             	mov    %rax,%rdi
  40604f:	e8 2c 09 00 00       	callq  406980 <_ZN5boost14iterator_rangeIN9__gnu_cxx17__normal_iteratorIPcNSt7__cxx1112basic_stringIcSt11char_traitsIcESaIcEEEEEEC2ISA_EET_SD_>
  406054:	e9 00 00 00 00       	jmpq   406059 <_ZN5boost9algorithm14split_iteratorIN9__gnu_cxx17__normal_iteratorIPcNSt7__cxx1112basic_stringIcSt11char_traitsIcESaIcEEEEEEC2INS0_6detail13token_finderFINSE_10is_any_ofFIcEEEEEESB_SB_T_+0x79>
  406059:	48 8b 45 f8          	mov    -0x8(%rbp),%rax
  40605d:	48 8b 4d a0          	mov    -0x60(%rbp),%rcx
  406061:	48 89 41 30          	mov    %rax,0x30(%rcx)
  406065:	48 8b 45 f0          	mov    -0x10(%rbp),%rax
  406069:	48 89 41 38          	mov    %rax,0x38(%rcx)
  40606d:	c6 41 40 00          	movb   $0x0,0x40(%rcx)
  406071:	48 8d 7d f8          	lea    -0x8(%rbp),%rdi
  406075:	48 8d 75 f0          	lea    -0x10(%rbp),%rsi
  406079:	e8 42 09 00 00       	callq  4069c0 <_ZN9__gnu_cxxneIPcNSt7__cxx1112basic_stringIcSt11char_traitsIcESaIcEEEEEbRKNS_17__normal_iteratorIT_T0_EESD_>
  40607e:	a8 01                	test   $0x1,%al
  406080:	0f 85 05 00 00 00    	jne    40608b <_ZN5boost9algorithm14split_iteratorIN9__gnu_cxx17__normal_iteratorIPcNSt7__cxx1112basic_stringIcSt11char_traitsIcESaIcEEEEEEC2INS0_6detail13token_finderFINSE_10is_any_ofFIcEEEEEESB_SB_T_+0xab>
  406086:	e9 40 00 00 00       	jmpq   4060cb <_ZN5boost9algorithm14split_iteratorIN9__gnu_cxx17__normal_iteratorIPcNSt7__cxx1112basic_stringIcSt11char_traitsIcESaIcEEEEEEC2INS0_6detail13token_finderFINSE_10is_any_ofFIcEEEEEESB_SB_T_+0xeb>
  40608b:	48 8b 7d a0          	mov    -0x60(%rbp),%rdi
  40608f:	e8 6c 09 00 00       	callq  406a00 <_ZN5boost9algorithm14split_iteratorIN9__gnu_cxx17__normal_iteratorIPcNSt7__cxx1112basic_stringIcSt11char_traitsIcESaIcEEEEEE9incrementEv>
  406094:	e9 00 00 00 00       	jmpq   406099 <_ZN5boost9algorithm14split_iteratorIN9__gnu_cxx17__normal_iteratorIPcNSt7__cxx1112basic_stringIcSt11char_traitsIcESaIcEEEEEEC2INS0_6detail13token_finderFINSE_10is_any_ofFIcEEEEEESB_SB_T_+0xb9>
  406099:	e9 2d 00 00 00       	jmpq   4060cb <_ZN5boost9algorithm14split_iteratorIN9__gnu_cxx17__normal_iteratorIPcNSt7__cxx1112basic_stringIcSt11char_traitsIcESaIcEEEEEEC2INS0_6detail13token_finderFINSE_10is_any_ofFIcEEEEEESB_SB_T_+0xeb>
  40609e:	48 89 45 c0          	mov    %rax,-0x40(%rbp)
  4060a2:	89 55 bc             	mov    %edx,-0x44(%rbp)
  4060a5:	48 8d 7d c8          	lea    -0x38(%rbp),%rdi
  4060a9:	e8 02 fe ff ff       	callq  405eb0 <_ZN5boost9algorithm6detail13token_finderFINS1_10is_any_ofFIcEEED2Ev>
  4060ae:	e9 1e 00 00 00       	jmpq   4060d1 <_ZN5boost9algorithm14split_iteratorIN9__gnu_cxx17__normal_iteratorIPcNSt7__cxx1112basic_stringIcSt11char_traitsIcESaIcEEEEEEC2INS0_6detail13token_finderFINSE_10is_any_ofFIcEEEEEESB_SB_T_+0xf1>
  4060b3:	48 89 45 c0          	mov    %rax,-0x40(%rbp)
  4060b7:	89 55 bc             	mov    %edx,-0x44(%rbp)
  4060ba:	48 8b 45 a0          	mov    -0x60(%rbp),%rax
  4060be:	48 89 c7             	mov    %rax,%rdi
  4060c1:	e8 aa 0a 00 00       	callq  406b70 <_ZN5boost9algorithm6detail18find_iterator_baseIN9__gnu_cxx17__normal_iteratorIPcNSt7__cxx1112basic_stringIcSt11char_traitsIcESaIcEEEEEED2Ev>
  4060c6:	e9 06 00 00 00       	jmpq   4060d1 <_ZN5boost9algorithm14split_iteratorIN9__gnu_cxx17__normal_iteratorIPcNSt7__cxx1112basic_stringIcSt11char_traitsIcESaIcEEEEEEC2INS0_6detail13token_finderFINSE_10is_any_ofFIcEEEEEESB_SB_T_+0xf1>
  4060cb:	48 83 c4 70          	add    $0x70,%rsp
  4060cf:	5d                   	pop    %rbp
  4060d0:	c3                   	retq   
  4060d1:	48 8b 7d c0          	mov    -0x40(%rbp),%rdi
  4060d5:	e8 06 d3 ff ff       	callq  4033e0 <_Unwind_Resume@plt>
  4060da:	66 0f 1f 44 00 00    	nopw   0x0(%rax,%rax,1)

00000000004060e0 <_ZN5boost9algorithm14split_iteratorIN9__gnu_cxx17__normal_iteratorIPcNSt7__cxx1112basic_stringIcSt11char_traitsIcESaIcEEEEEED2Ev>:
  4060e0:	55                   	push   %rbp
  4060e1:	48 89 e5             	mov    %rsp,%rbp
  4060e4:	48 83 ec 10          	sub    $0x10,%rsp
  4060e8:	48 89 7d f8          	mov    %rdi,-0x8(%rbp)
  4060ec:	48 8b 45 f8          	mov    -0x8(%rbp),%rax
  4060f0:	48 89 c7             	mov    %rax,%rdi
  4060f3:	e8 78 0a 00 00       	callq  406b70 <_ZN5boost9algorithm6detail18find_iterator_baseIN9__gnu_cxx17__normal_iteratorIPcNSt7__cxx1112basic_stringIcSt11char_traitsIcESaIcEEEEEED2Ev>
  4060f8:	48 83 c4 10          	add    $0x10,%rsp
  4060fc:	5d                   	pop    %rbp
  4060fd:	c3                   	retq   
  4060fe:	66 90                	xchg   %ax,%ax

0000000000406100 <_ZN5boost9algorithm14split_iteratorIN9__gnu_cxx17__normal_iteratorIPcNSt7__cxx1112basic_stringIcSt11char_traitsIcESaIcEEEEEEC2Ev>:
  406100:	55                   	push   %rbp
  406101:	48 89 e5             	mov    %rsp,%rbp
  406104:	48 83 ec 20          	sub    $0x20,%rsp
  406108:	48 89 7d f8          	mov    %rdi,-0x8(%rbp)
  40610c:	48 8b 45 f8          	mov    -0x8(%rbp),%rax
  406110:	48 89 c7             	mov    %rax,%rdi
  406113:	48 89 45 e0          	mov    %rax,-0x20(%rbp)
  406117:	e8 a4 28 00 00       	callq  4089c0 <_ZN5boost9algorithm6detail18find_iterator_baseIN9__gnu_cxx17__normal_iteratorIPcNSt7__cxx1112basic_stringIcSt11char_traitsIcESaIcEEEEEEC2Ev>
  40611c:	48 8b 45 e0          	mov    -0x20(%rbp),%rax
  406120:	48 83 c0 20          	add    $0x20,%rax
  406124:	48 89 c7             	mov    %rax,%rdi
  406127:	e8 b4 28 00 00       	callq  4089e0 <_ZN5boost14iterator_rangeIN9__gnu_cxx17__normal_iteratorIPcNSt7__cxx1112basic_stringIcSt11char_traitsIcESaIcEEEEEEC2Ev>
  40612c:	e9 00 00 00 00       	jmpq   406131 <_ZN5boost9algorithm14split_iteratorIN9__gnu_cxx17__normal_iteratorIPcNSt7__cxx1112basic_stringIcSt11char_traitsIcESaIcEEEEEEC2Ev+0x31>
  406131:	48 8b 45 e0          	mov    -0x20(%rbp),%rax
  406135:	48 05 30 00 00 00    	add    $0x30,%rax
  40613b:	48 89 c7             	mov    %rax,%rdi
  40613e:	e8 bd 28 00 00       	callq  408a00 <_ZN9__gnu_cxx17__normal_iteratorIPcNSt7__cxx1112basic_stringIcSt11char_traitsIcESaIcEEEEC2Ev>
  406143:	48 8b 45 e0          	mov    -0x20(%rbp),%rax
  406147:	48 05 38 00 00 00    	add    $0x38,%rax
  40614d:	48 89 c7             	mov    %rax,%rdi
  406150:	e8 ab 28 00 00       	callq  408a00 <_ZN9__gnu_cxx17__normal_iteratorIPcNSt7__cxx1112basic_stringIcSt11char_traitsIcESaIcEEEEC2Ev>
  406155:	48 8b 45 e0          	mov    -0x20(%rbp),%rax
  406159:	c6 40 40 01          	movb   $0x1,0x40(%rax)
  40615d:	48 83 c4 20          	add    $0x20,%rsp
  406161:	5d                   	pop    %rbp
  406162:	c3                   	retq   
  406163:	48 89 45 f0          	mov    %rax,-0x10(%rbp)
  406167:	89 55 ec             	mov    %edx,-0x14(%rbp)
  40616a:	48 8b 45 e0          	mov    -0x20(%rbp),%rax
  40616e:	48 89 c7             	mov    %rax,%rdi
  406171:	e8 fa 09 00 00       	callq  406b70 <_ZN5boost9algorithm6detail18find_iterator_baseIN9__gnu_cxx17__normal_iteratorIPcNSt7__cxx1112basic_stringIcSt11char_traitsIcESaIcEEEEEED2Ev>
  406176:	48 8b 7d f0          	mov    -0x10(%rbp),%rdi
  40617a:	e8 61 d2 ff ff       	callq  4033e0 <_Unwind_Resume@plt>
  40617f:	90                   	nop

0000000000406180 <_ZN5boost9iterators18transform_iteratorINS_9algorithm6detail20copy_iterator_rangeFINSt7__cxx1112basic_stringIcSt11char_traitsIcESaIcEEEN9__gnu_cxx17__normal_iteratorIPcSA_EEEENS2_14split_iteratorISE_EENS_11use_defaultESI_EC2ERKSJ_>:
  406180:	55                   	push   %rbp
  406181:	48 89 e5             	mov    %rsp,%rbp
  406184:	48 83 ec 10          	sub    $0x10,%rsp
  406188:	48 89 7d f8          	mov    %rdi,-0x8(%rbp)
  40618c:	48 89 75 f0          	mov    %rsi,-0x10(%rbp)
  406190:	48 8b 45 f8          	mov    -0x8(%rbp),%rax
  406194:	48 8b 4d f0          	mov    -0x10(%rbp),%rcx
  406198:	48 89 c7             	mov    %rax,%rdi
  40619b:	48 89 ce             	mov    %rcx,%rsi
  40619e:	e8 1d 29 00 00       	callq  408ac0 <_ZN5boost9iterators16iterator_adaptorINS0_18transform_iteratorINS_9algorithm6detail20copy_iterator_rangeFINSt7__cxx1112basic_stringIcSt11char_traitsIcESaIcEEEN9__gnu_cxx17__normal_iteratorIPcSB_EEEENS3_14split_iteratorISF_EENS_11use_defaultESJ_EESI_SB_SJ_SB_SJ_EC2ERKSL_>
  4061a3:	48 83 c4 10          	add    $0x10,%rsp
  4061a7:	5d                   	pop    %rbp
  4061a8:	c3                   	retq   
  4061a9:	0f 1f 80 00 00 00 00 	nopl   0x0(%rax)

00000000004061b0 <_ZNSaINSt7__cxx1112basic_stringIcSt11char_traitsIcESaIcEEEEC2Ev>:
  4061b0:	55                   	push   %rbp
  4061b1:	48 89 e5             	mov    %rsp,%rbp
  4061b4:	48 83 ec 10          	sub    $0x10,%rsp
  4061b8:	48 89 7d f8          	mov    %rdi,-0x8(%rbp)
  4061bc:	48 8b 45 f8          	mov    -0x8(%rbp),%rax
  4061c0:	48 89 c7             	mov    %rax,%rdi
  4061c3:	e8 e8 dd ff ff       	callq  403fb0 <_ZN9__gnu_cxx13new_allocatorINSt7__cxx1112basic_stringIcSt11char_traitsIcESaIcEEEEC2Ev>
  4061c8:	48 83 c4 10          	add    $0x10,%rsp
  4061cc:	5d                   	pop    %rbp
  4061cd:	c3                   	retq   
  4061ce:	66 90                	xchg   %ax,%ax

00000000004061d0 <_ZNSt6vectorINSt7__cxx1112basic_stringIcSt11char_traitsIcESaIcEEESaIS5_EEC2IN5boost9iterators18transform_iteratorINS9_9algorithm6detail20copy_iterator_rangeFIS5_N9__gnu_cxx17__normal_iteratorIPcS5_EEEENSC_14split_iteratorISI_EENS9_11use_defaultESM_EEvEET_SO_RKS6_>:
  4061d0:	55                   	push   %rbp
  4061d1:	48 89 e5             	mov    %rsp,%rbp
  4061d4:	48 81 ec f0 00 00 00 	sub    $0xf0,%rsp
  4061db:	48 89 7d f8          	mov    %rdi,-0x8(%rbp)
  4061df:	48 89 4d f0          	mov    %rcx,-0x10(%rbp)
  4061e3:	48 8b 45 f8          	mov    -0x8(%rbp),%rax
  4061e7:	48 8b 4d f0          	mov    -0x10(%rbp),%rcx
  4061eb:	48 89 c7             	mov    %rax,%rdi
  4061ee:	48 89 b5 20 ff ff ff 	mov    %rsi,-0xe0(%rbp)
  4061f5:	48 89 ce             	mov    %rcx,%rsi
  4061f8:	48 89 95 18 ff ff ff 	mov    %rdx,-0xe8(%rbp)
  4061ff:	48 89 85 10 ff ff ff 	mov    %rax,-0xf0(%rbp)
  406206:	e8 e5 28 00 00       	callq  408af0 <_ZNSt12_Vector_baseINSt7__cxx1112basic_stringIcSt11char_traitsIcESaIcEEESaIS5_EEC2ERKS6_>
  40620b:	48 8d 7d a0          	lea    -0x60(%rbp),%rdi
  40620f:	48 8b b5 20 ff ff ff 	mov    -0xe0(%rbp),%rsi
  406216:	e8 65 ff ff ff       	callq  406180 <_ZN5boost9iterators18transform_iteratorINS_9algorithm6detail20copy_iterator_rangeFINSt7__cxx1112basic_stringIcSt11char_traitsIcESaIcEEEN9__gnu_cxx17__normal_iteratorIPcSA_EEEENS2_14split_iteratorISE_EENS_11use_defaultESI_EC2ERKSJ_>
  40621b:	e9 00 00 00 00       	jmpq   406220 <_ZNSt6vectorINSt7__cxx1112basic_stringIcSt11char_traitsIcESaIcEEESaIS5_EEC2IN5boost9iterators18transform_iteratorINS9_9algorithm6detail20copy_iterator_rangeFIS5_N9__gnu_cxx17__normal_iteratorIPcS5_EEEENSC_14split_iteratorISI_EENS9_11use_defaultESM_EEvEET_SO_RKS6_+0x50>
  406220:	48 8d bd 40 ff ff ff 	lea    -0xc0(%rbp),%rdi
  406227:	48 8b b5 18 ff ff ff 	mov    -0xe8(%rbp),%rsi
  40622e:	e8 4d ff ff ff       	callq  406180 <_ZN5boost9iterators18transform_iteratorINS_9algorithm6detail20copy_iterator_rangeFINSt7__cxx1112basic_stringIcSt11char_traitsIcESaIcEEEN9__gnu_cxx17__normal_iteratorIPcSA_EEEENS2_14split_iteratorISE_EENS_11use_defaultESI_EC2ERKSJ_>
  406233:	e9 00 00 00 00       	jmpq   406238 <_ZNSt6vectorINSt7__cxx1112basic_stringIcSt11char_traitsIcESaIcEEESaIS5_EEC2IN5boost9iterators18transform_iteratorINS9_9algorithm6detail20copy_iterator_rangeFIS5_N9__gnu_cxx17__normal_iteratorIPcS5_EEEENSC_14split_iteratorISI_EENS9_11use_defaultESM_EEvEET_SO_RKS6_+0x68>
  406238:	48 8b bd 20 ff ff ff 	mov    -0xe0(%rbp),%rdi
  40623f:	e8 dc 29 00 00       	callq  408c20 <_ZSt19__iterator_categoryIN5boost9iterators18transform_iteratorINS0_9algorithm6detail20copy_iterator_rangeFINSt7__cxx1112basic_stringIcSt11char_traitsIcESaIcEEEN9__gnu_cxx17__normal_iteratorIPcSB_EEEENS3_14split_iteratorISF_EENS0_11use_defaultESJ_EEENSt15iterator_traitsIT_E17iterator_categoryERKSM_>
  406244:	e9 00 00 00 00       	jmpq   406249 <_ZNSt6vectorINSt7__cxx1112basic_stringIcSt11char_traitsIcESaIcEEESaIS5_EEC2IN5boost9iterators18transform_iteratorINS9_9algorithm6detail20copy_iterator_rangeFIS5_N9__gnu_cxx17__normal_iteratorIPcS5_EEEENSC_14split_iteratorISI_EENS9_11use_defaultESM_EEvEET_SO_RKS6_+0x79>
  406249:	48 8d 75 a0          	lea    -0x60(%rbp),%rsi
  40624d:	48 8d 95 40 ff ff ff 	lea    -0xc0(%rbp),%rdx
  406254:	48 8b bd 10 ff ff ff 	mov    -0xf0(%rbp),%rdi
  40625b:	e8 c0 28 00 00       	callq  408b20 <_ZNSt6vectorINSt7__cxx1112basic_stringIcSt11char_traitsIcESaIcEEESaIS5_EE19_M_range_initializeIN5boost9iterators18transform_iteratorINS9_9algorithm6detail20copy_iterator_rangeFIS5_N9__gnu_cxx17__normal_iteratorIPcS5_EEEENSC_14split_iteratorISI_EENS9_11use_defaultESM_EEEEvT_SO_St18input_iterator_tag>
  406260:	e9 00 00 00 00       	jmpq   406265 <_ZNSt6vectorINSt7__cxx1112basic_stringIcSt11char_traitsIcESaIcEEESaIS5_EEC2IN5boost9iterators18transform_iteratorINS9_9algorithm6detail20copy_iterator_rangeFIS5_N9__gnu_cxx17__normal_iteratorIPcS5_EEEENSC_14split_iteratorISI_EENS9_11use_defaultESM_EEvEET_SO_RKS6_+0x95>
  406265:	48 8d bd 40 ff ff ff 	lea    -0xc0(%rbp),%rdi
  40626c:	e8 7f 00 00 00       	callq  4062f0 <_ZN5boost9iterators18transform_iteratorINS_9algorithm6detail20copy_iterator_rangeFINSt7__cxx1112basic_stringIcSt11char_traitsIcESaIcEEEN9__gnu_cxx17__normal_iteratorIPcSA_EEEENS2_14split_iteratorISE_EENS_11use_defaultESI_ED2Ev>
  406271:	48 8d 7d a0          	lea    -0x60(%rbp),%rdi
  406275:	e8 76 00 00 00       	callq  4062f0 <_ZN5boost9iterators18transform_iteratorINS_9algorithm6detail20copy_iterator_rangeFINSt7__cxx1112basic_stringIcSt11char_traitsIcESaIcEEEN9__gnu_cxx17__normal_iteratorIPcSA_EEEENS2_14split_iteratorISE_EENS_11use_defaultESI_ED2Ev>
  40627a:	48 81 c4 f0 00 00 00 	add    $0xf0,%rsp
  406281:	5d                   	pop    %rbp
  406282:	c3                   	retq   
  406283:	48 89 45 98          	mov    %rax,-0x68(%rbp)
  406287:	89 55 94             	mov    %edx,-0x6c(%rbp)
  40628a:	e9 28 00 00 00       	jmpq   4062b7 <_ZNSt6vectorINSt7__cxx1112basic_stringIcSt11char_traitsIcESaIcEEESaIS5_EEC2IN5boost9iterators18transform_iteratorINS9_9algorithm6detail20copy_iterator_rangeFIS5_N9__gnu_cxx17__normal_iteratorIPcS5_EEEENSC_14split_iteratorISI_EENS9_11use_defaultESM_EEvEET_SO_RKS6_+0xe7>
  40628f:	48 89 45 98          	mov    %rax,-0x68(%rbp)
  406293:	89 55 94             	mov    %edx,-0x6c(%rbp)
  406296:	e9 13 00 00 00       	jmpq   4062ae <_ZNSt6vectorINSt7__cxx1112basic_stringIcSt11char_traitsIcESaIcEEESaIS5_EEC2IN5boost9iterators18transform_iteratorINS9_9algorithm6detail20copy_iterator_rangeFIS5_N9__gnu_cxx17__normal_iteratorIPcS5_EEEENSC_14split_iteratorISI_EENS9_11use_defaultESM_EEvEET_SO_RKS6_+0xde>
  40629b:	48 89 45 98          	mov    %rax,-0x68(%rbp)
  40629f:	89 55 94             	mov    %edx,-0x6c(%rbp)
  4062a2:	48 8d bd 40 ff ff ff 	lea    -0xc0(%rbp),%rdi
  4062a9:	e8 42 00 00 00       	callq  4062f0 <_ZN5boost9iterators18transform_iteratorINS_9algorithm6detail20copy_iterator_rangeFINSt7__cxx1112basic_stringIcSt11char_traitsIcESaIcEEEN9__gnu_cxx17__normal_iteratorIPcSA_EEEENS2_14split_iteratorISE_EENS_11use_defaultESI_ED2Ev>
  4062ae:	48 8d 7d a0          	lea    -0x60(%rbp),%rdi
  4062b2:	e8 39 00 00 00       	callq  4062f0 <_ZN5boost9iterators18transform_iteratorINS_9algorithm6detail20copy_iterator_rangeFINSt7__cxx1112basic_stringIcSt11char_traitsIcESaIcEEEN9__gnu_cxx17__normal_iteratorIPcSA_EEEENS2_14split_iteratorISE_EENS_11use_defaultESI_ED2Ev>
  4062b7:	48 8b 85 10 ff ff ff 	mov    -0xf0(%rbp),%rax
  4062be:	48 89 c7             	mov    %rax,%rdi
  4062c1:	e8 7a e0 ff ff       	callq  404340 <_ZNSt12_Vector_baseINSt7__cxx1112basic_stringIcSt11char_traitsIcESaIcEEESaIS5_EED2Ev>
  4062c6:	48 8b 7d 98          	mov    -0x68(%rbp),%rdi
  4062ca:	e8 11 d1 ff ff       	callq  4033e0 <_Unwind_Resume@plt>
  4062cf:	90                   	nop

00000000004062d0 <_ZNSaINSt7__cxx1112basic_stringIcSt11char_traitsIcESaIcEEEED2Ev>:
  4062d0:	55                   	push   %rbp
  4062d1:	48 89 e5             	mov    %rsp,%rbp
  4062d4:	48 83 ec 10          	sub    $0x10,%rsp
  4062d8:	48 89 7d f8          	mov    %rdi,-0x8(%rbp)
  4062dc:	48 8b 45 f8          	mov    -0x8(%rbp),%rax
  4062e0:	48 89 c7             	mov    %rax,%rdi
  4062e3:	e8 38 e2 ff ff       	callq  404520 <_ZN9__gnu_cxx13new_allocatorINSt7__cxx1112basic_stringIcSt11char_traitsIcESaIcEEEED2Ev>
  4062e8:	48 83 c4 10          	add    $0x10,%rsp
  4062ec:	5d                   	pop    %rbp
  4062ed:	c3                   	retq   
  4062ee:	66 90                	xchg   %ax,%ax

00000000004062f0 <_ZN5boost9iterators18transform_iteratorINS_9algorithm6detail20copy_iterator_rangeFINSt7__cxx1112basic_stringIcSt11char_traitsIcESaIcEEEN9__gnu_cxx17__normal_iteratorIPcSA_EEEENS2_14split_iteratorISE_EENS_11use_defaultESI_ED2Ev>:
  4062f0:	55                   	push   %rbp
  4062f1:	48 89 e5             	mov    %rsp,%rbp
  4062f4:	48 83 ec 10          	sub    $0x10,%rsp
  4062f8:	48 89 7d f8          	mov    %rdi,-0x8(%rbp)
  4062fc:	48 8b 45 f8          	mov    -0x8(%rbp),%rax
  406300:	48 89 c7             	mov    %rax,%rdi
  406303:	e8 48 40 00 00       	callq  40a350 <_ZN5boost9iterators16iterator_adaptorINS0_18transform_iteratorINS_9algorithm6detail20copy_iterator_rangeFINSt7__cxx1112basic_stringIcSt11char_traitsIcESaIcEEEN9__gnu_cxx17__normal_iteratorIPcSB_EEEENS3_14split_iteratorISF_EENS_11use_defaultESJ_EESI_SB_SJ_SB_SJ_ED2Ev>
  406308:	48 83 c4 10          	add    $0x10,%rsp
  40630c:	5d                   	pop    %rbp
  40630d:	c3                   	retq   
  40630e:	66 90                	xchg   %ax,%ax

0000000000406310 <_ZNSt6vectorINSt7__cxx1112basic_stringIcSt11char_traitsIcESaIcEEESaIS5_EE4swapERS7_>:
  406310:	55                   	push   %rbp
  406311:	48 89 e5             	mov    %rsp,%rbp
  406314:	48 83 ec 30          	sub    $0x30,%rsp
  406318:	48 89 7d f8          	mov    %rdi,-0x8(%rbp)
  40631c:	48 89 75 f0          	mov    %rsi,-0x10(%rbp)
  406320:	48 8b 45 f8          	mov    -0x8(%rbp),%rax
  406324:	48 8b 75 f0          	mov    -0x10(%rbp),%rsi
  406328:	48 89 c7             	mov    %rax,%rdi
  40632b:	48 89 45 e8          	mov    %rax,-0x18(%rbp)
  40632f:	e8 3c 40 00 00       	callq  40a370 <_ZNSt12_Vector_baseINSt7__cxx1112basic_stringIcSt11char_traitsIcESaIcEEESaIS5_EE17_Vector_impl_data12_M_swap_dataERS8_>
  406334:	48 8b 7d e8          	mov    -0x18(%rbp),%rdi
  406338:	e8 f3 df ff ff       	callq  404330 <_ZNSt12_Vector_baseINSt7__cxx1112basic_stringIcSt11char_traitsIcESaIcEEESaIS5_EE19_M_get_Tp_allocatorEv>
  40633d:	48 8b 7d f0          	mov    -0x10(%rbp),%rdi
  406341:	48 89 45 e0          	mov    %rax,-0x20(%rbp)
  406345:	e8 e6 df ff ff       	callq  404330 <_ZNSt12_Vector_baseINSt7__cxx1112basic_stringIcSt11char_traitsIcESaIcEEESaIS5_EE19_M_get_Tp_allocatorEv>
  40634a:	48 8b 7d e0          	mov    -0x20(%rbp),%rdi
  40634e:	48 89 c6             	mov    %rax,%rsi
  406351:	e8 6a 40 00 00       	callq  40a3c0 <_ZN9__gnu_cxx14__alloc_traitsISaINSt7__cxx1112basic_stringIcSt11char_traitsIcESaIcEEEES6_E10_S_on_swapERS7_S9_>
  406356:	e9 00 00 00 00       	jmpq   40635b <_ZNSt6vectorINSt7__cxx1112basic_stringIcSt11char_traitsIcESaIcEEESaIS5_EE4swapERS7_+0x4b>
  40635b:	48 83 c4 30          	add    $0x30,%rsp
  40635f:	5d                   	pop    %rbp
  406360:	c3                   	retq   
  406361:	48 89 c7             	mov    %rax,%rdi
  406364:	89 55 dc             	mov    %edx,-0x24(%rbp)
  406367:	e8 e4 dc ff ff       	callq  404050 <__clang_call_terminate>
  40636c:	0f 1f 40 00          	nopl   0x0(%rax)

0000000000406370 <_ZN5boost12range_detail10make_rangeINSt7__cxx1112basic_stringIcSt11char_traitsIcESaIcEEEEENS_14iterator_rangeINS_14range_iteratorIT_vE4typeEEERSA_l>:
  406370:	55                   	push   %rbp
  406371:	48 89 e5             	mov    %rsp,%rbp
  406374:	48 83 ec 20          	sub    $0x20,%rsp
  406378:	48 89 7d e8          	mov    %rdi,-0x18(%rbp)
  40637c:	48 89 75 e0          	mov    %rsi,-0x20(%rbp)
  406380:	48 8b 7d e8          	mov    -0x18(%rbp),%rdi
  406384:	e8 17 00 00 00       	callq  4063a0 <_ZN5boost19make_iterator_rangeINSt7__cxx1112basic_stringIcSt11char_traitsIcESaIcEEEEENS_14iterator_rangeINS_14range_iteratorIT_vE4typeEEERS9_>
  406389:	48 89 45 f0          	mov    %rax,-0x10(%rbp)
  40638d:	48 89 55 f8          	mov    %rdx,-0x8(%rbp)
  406391:	48 8b 45 f0          	mov    -0x10(%rbp),%rax
  406395:	48 8b 55 f8          	mov    -0x8(%rbp),%rdx
  406399:	48 83 c4 20          	add    $0x20,%rsp
  40639d:	5d                   	pop    %rbp
  40639e:	c3                   	retq   
  40639f:	90                   	nop

00000000004063a0 <_ZN5boost19make_iterator_rangeINSt7__cxx1112basic_stringIcSt11char_traitsIcESaIcEEEEENS_14iterator_rangeINS_14range_iteratorIT_vE4typeEEERS9_>:
  4063a0:	55                   	push   %rbp
  4063a1:	48 89 e5             	mov    %rsp,%rbp
  4063a4:	48 83 ec 20          	sub    $0x20,%rsp
  4063a8:	48 89 7d e8          	mov    %rdi,-0x18(%rbp)
  4063ac:	48 8b 75 e8          	mov    -0x18(%rbp),%rsi
  4063b0:	48 8d 7d f0          	lea    -0x10(%rbp),%rdi
  4063b4:	e8 17 00 00 00       	callq  4063d0 <_ZN5boost14iterator_rangeIN9__gnu_cxx17__normal_iteratorIPcNSt7__cxx1112basic_stringIcSt11char_traitsIcESaIcEEEEEEC2IS9_EERT_NS_21iterator_range_detail9range_tagE>
  4063b9:	48 8b 45 f0          	mov    -0x10(%rbp),%rax
  4063bd:	48 8b 55 f8          	mov    -0x8(%rbp),%rdx
  4063c1:	48 83 c4 20          	add    $0x20,%rsp
  4063c5:	5d                   	pop    %rbp
  4063c6:	c3                   	retq   
  4063c7:	66 0f 1f 84 00 00 00 	nopw   0x0(%rax,%rax,1)
  4063ce:	00 00 

00000000004063d0 <_ZN5boost14iterator_rangeIN9__gnu_cxx17__normal_iteratorIPcNSt7__cxx1112basic_stringIcSt11char_traitsIcESaIcEEEEEEC2IS9_EERT_NS_21iterator_range_detail9range_tagE>:
  4063d0:	55                   	push   %rbp
  4063d1:	48 89 e5             	mov    %rsp,%rbp
  4063d4:	48 83 ec 30          	sub    $0x30,%rsp
  4063d8:	48 89 7d f0          	mov    %rdi,-0x10(%rbp)
  4063dc:	48 89 75 e8          	mov    %rsi,-0x18(%rbp)
  4063e0:	48 8b 45 f0          	mov    -0x10(%rbp),%rax
  4063e4:	48 8b 7d e8          	mov    -0x18(%rbp),%rdi
  4063e8:	48 89 45 d0          	mov    %rax,-0x30(%rbp)
  4063ec:	e8 2f 00 00 00       	callq  406420 <_ZN5boost21iterator_range_detail19iterator_range_implIN9__gnu_cxx17__normal_iteratorIPcNSt7__cxx1112basic_stringIcSt11char_traitsIcESaIcEEEEEE9adl_beginISA_EESB_RT_>
  4063f1:	48 89 45 e0          	mov    %rax,-0x20(%rbp)
  4063f5:	48 8b 7d e8          	mov    -0x18(%rbp),%rdi
  4063f9:	e8 52 00 00 00       	callq  406450 <_ZN5boost21iterator_range_detail19iterator_range_implIN9__gnu_cxx17__normal_iteratorIPcNSt7__cxx1112basic_stringIcSt11char_traitsIcESaIcEEEEEE7adl_endISA_EESB_RT_>
  4063fe:	48 89 45 d8          	mov    %rax,-0x28(%rbp)
  406402:	48 8b 75 e0          	mov    -0x20(%rbp),%rsi
  406406:	48 8b 55 d8          	mov    -0x28(%rbp),%rdx
  40640a:	48 8b 7d d0          	mov    -0x30(%rbp),%rdi
  40640e:	e8 6d 00 00 00       	callq  406480 <_ZN5boost21iterator_range_detail19iterator_range_baseIN9__gnu_cxx17__normal_iteratorIPcNSt7__cxx1112basic_stringIcSt11char_traitsIcESaIcEEEEENS_9iterators27random_access_traversal_tagEEC2ISB_EET_SG_>
  406413:	48 83 c4 30          	add    $0x30,%rsp
  406417:	5d                   	pop    %rbp
  406418:	c3                   	retq   
  406419:	0f 1f 80 00 00 00 00 	nopl   0x0(%rax)

0000000000406420 <_ZN5boost21iterator_range_detail19iterator_range_implIN9__gnu_cxx17__normal_iteratorIPcNSt7__cxx1112basic_stringIcSt11char_traitsIcESaIcEEEEEE9adl_beginISA_EESB_RT_>:
  406420:	55                   	push   %rbp
  406421:	48 89 e5             	mov    %rsp,%rbp
  406424:	48 83 ec 10          	sub    $0x10,%rsp
  406428:	48 89 7d f0          	mov    %rdi,-0x10(%rbp)
  40642c:	48 8b 7d f0          	mov    -0x10(%rbp),%rdi
  406430:	e8 8b 00 00 00       	callq  4064c0 <_ZN5boost17range_adl_barrier5beginINSt7__cxx1112basic_stringIcSt11char_traitsIcESaIcEEEEENS_14range_iteratorIT_vE4typeERS9_>
  406435:	48 89 45 f8          	mov    %rax,-0x8(%rbp)
  406439:	48 8b 45 f8          	mov    -0x8(%rbp),%rax
  40643d:	48 83 c4 10          	add    $0x10,%rsp
  406441:	5d                   	pop    %rbp
  406442:	c3                   	retq   
  406443:	66 2e 0f 1f 84 00 00 	nopw   %cs:0x0(%rax,%rax,1)
  40644a:	00 00 00 
  40644d:	0f 1f 00             	nopl   (%rax)

0000000000406450 <_ZN5boost21iterator_range_detail19iterator_range_implIN9__gnu_cxx17__normal_iteratorIPcNSt7__cxx1112basic_stringIcSt11char_traitsIcESaIcEEEEEE7adl_endISA_EESB_RT_>:
  406450:	55                   	push   %rbp
  406451:	48 89 e5             	mov    %rsp,%rbp
  406454:	48 83 ec 10          	sub    $0x10,%rsp
  406458:	48 89 7d f0          	mov    %rdi,-0x10(%rbp)
  40645c:	48 8b 7d f0          	mov    -0x10(%rbp),%rdi
  406460:	e8 bb 00 00 00       	callq  406520 <_ZN5boost17range_adl_barrier3endINSt7__cxx1112basic_stringIcSt11char_traitsIcESaIcEEEEENS_14range_iteratorIT_vE4typeERS9_>
  406465:	48 89 45 f8          	mov    %rax,-0x8(%rbp)
  406469:	48 8b 45 f8          	mov    -0x8(%rbp),%rax
  40646d:	48 83 c4 10          	add    $0x10,%rsp
  406471:	5d                   	pop    %rbp
  406472:	c3                   	retq   
  406473:	66 2e 0f 1f 84 00 00 	nopw   %cs:0x0(%rax,%rax,1)
  40647a:	00 00 00 
  40647d:	0f 1f 00             	nopl   (%rax)

0000000000406480 <_ZN5boost21iterator_range_detail19iterator_range_baseIN9__gnu_cxx17__normal_iteratorIPcNSt7__cxx1112basic_stringIcSt11char_traitsIcESaIcEEEEENS_9iterators27random_access_traversal_tagEEC2ISB_EET_SG_>:
  406480:	55                   	push   %rbp
  406481:	48 89 e5             	mov    %rsp,%rbp
  406484:	48 83 ec 30          	sub    $0x30,%rsp
  406488:	48 89 75 f8          	mov    %rsi,-0x8(%rbp)
  40648c:	48 89 55 f0          	mov    %rdx,-0x10(%rbp)
  406490:	48 89 7d e8          	mov    %rdi,-0x18(%rbp)
  406494:	48 8b 45 e8          	mov    -0x18(%rbp),%rax
  406498:	48 8b 4d f8          	mov    -0x8(%rbp),%rcx
  40649c:	48 89 4d e0          	mov    %rcx,-0x20(%rbp)
  4064a0:	48 8b 4d f0          	mov    -0x10(%rbp),%rcx
  4064a4:	48 89 4d d8          	mov    %rcx,-0x28(%rbp)
  4064a8:	48 8b 75 e0          	mov    -0x20(%rbp),%rsi
  4064ac:	48 8b 55 d8          	mov    -0x28(%rbp),%rdx
  4064b0:	48 89 c7             	mov    %rax,%rdi
  4064b3:	e8 c8 00 00 00       	callq  406580 <_ZN5boost21iterator_range_detail19iterator_range_baseIN9__gnu_cxx17__normal_iteratorIPcNSt7__cxx1112basic_stringIcSt11char_traitsIcESaIcEEEEENS_9iterators27bidirectional_traversal_tagEEC2ISB_EET_SG_>
  4064b8:	48 83 c4 30          	add    $0x30,%rsp
  4064bc:	5d                   	pop    %rbp
  4064bd:	c3                   	retq   
  4064be:	66 90                	xchg   %ax,%ax

00000000004064c0 <_ZN5boost17range_adl_barrier5beginINSt7__cxx1112basic_stringIcSt11char_traitsIcESaIcEEEEENS_14range_iteratorIT_vE4typeERS9_>:
  4064c0:	55                   	push   %rbp
  4064c1:	48 89 e5             	mov    %rsp,%rbp
  4064c4:	48 83 ec 10          	sub    $0x10,%rsp
  4064c8:	48 89 7d f0          	mov    %rdi,-0x10(%rbp)
  4064cc:	48 8b 7d f0          	mov    -0x10(%rbp),%rdi
  4064d0:	e8 1b 00 00 00       	callq  4064f0 <_ZN5boost12range_detail11range_beginINSt7__cxx1112basic_stringIcSt11char_traitsIcESaIcEEEEENS_14range_iteratorIT_vE4typeERS9_>
  4064d5:	48 89 45 f8          	mov    %rax,-0x8(%rbp)
  4064d9:	48 8b 45 f8          	mov    -0x8(%rbp),%rax
  4064dd:	48 83 c4 10          	add    $0x10,%rsp
  4064e1:	5d                   	pop    %rbp
  4064e2:	c3                   	retq   
  4064e3:	66 2e 0f 1f 84 00 00 	nopw   %cs:0x0(%rax,%rax,1)
  4064ea:	00 00 00 
  4064ed:	0f 1f 00             	nopl   (%rax)

00000000004064f0 <_ZN5boost12range_detail11range_beginINSt7__cxx1112basic_stringIcSt11char_traitsIcESaIcEEEEENS_14range_iteratorIT_vE4typeERS9_>:
  4064f0:	55                   	push   %rbp
  4064f1:	48 89 e5             	mov    %rsp,%rbp
  4064f4:	48 83 ec 10          	sub    $0x10,%rsp
  4064f8:	48 89 7d f0          	mov    %rdi,-0x10(%rbp)
  4064fc:	48 8b 7d f0          	mov    -0x10(%rbp),%rdi
  406500:	e8 eb cc ff ff       	callq  4031f0 <_ZNSt7__cxx1112basic_stringIcSt11char_traitsIcESaIcEE5beginEv@plt>
  406505:	48 89 45 f8          	mov    %rax,-0x8(%rbp)
  406509:	48 8b 45 f8          	mov    -0x8(%rbp),%rax
  40650d:	48 83 c4 10          	add    $0x10,%rsp
  406511:	5d                   	pop    %rbp
  406512:	c3                   	retq   
  406513:	66 2e 0f 1f 84 00 00 	nopw   %cs:0x0(%rax,%rax,1)
  40651a:	00 00 00 
  40651d:	0f 1f 00             	nopl   (%rax)

0000000000406520 <_ZN5boost17range_adl_barrier3endINSt7__cxx1112basic_stringIcSt11char_traitsIcESaIcEEEEENS_14range_iteratorIT_vE4typeERS9_>:
  406520:	55                   	push   %rbp
  406521:	48 89 e5             	mov    %rsp,%rbp
  406524:	48 83 ec 10          	sub    $0x10,%rsp
  406528:	48 89 7d f0          	mov    %rdi,-0x10(%rbp)
  40652c:	48 8b 7d f0          	mov    -0x10(%rbp),%rdi
  406530:	e8 1b 00 00 00       	callq  406550 <_ZN5boost12range_detail9range_endINSt7__cxx1112basic_stringIcSt11char_traitsIcESaIcEEEEENS_14range_iteratorIT_vE4typeERS9_>
  406535:	48 89 45 f8          	mov    %rax,-0x8(%rbp)
  406539:	48 8b 45 f8          	mov    -0x8(%rbp),%rax
  40653d:	48 83 c4 10          	add    $0x10,%rsp
  406541:	5d                   	pop    %rbp
  406542:	c3                   	retq   
  406543:	66 2e 0f 1f 84 00 00 	nopw   %cs:0x0(%rax,%rax,1)
  40654a:	00 00 00 
  40654d:	0f 1f 00             	nopl   (%rax)

0000000000406550 <_ZN5boost12range_detail9range_endINSt7__cxx1112basic_stringIcSt11char_traitsIcESaIcEEEEENS_14range_iteratorIT_vE4typeERS9_>:
  406550:	55                   	push   %rbp
  406551:	48 89 e5             	mov    %rsp,%rbp
  406554:	48 83 ec 10          	sub    $0x10,%rsp
  406558:	48 89 7d f0          	mov    %rdi,-0x10(%rbp)
  40655c:	48 8b 7d f0          	mov    -0x10(%rbp),%rdi
  406560:	e8 bb cb ff ff       	callq  403120 <_ZNSt7__cxx1112basic_stringIcSt11char_traitsIcESaIcEE3endEv@plt>
  406565:	48 89 45 f8          	mov    %rax,-0x8(%rbp)
  406569:	48 8b 45 f8          	mov    -0x8(%rbp),%rax
  40656d:	48 83 c4 10          	add    $0x10,%rsp
  406571:	5d                   	pop    %rbp
  406572:	c3                   	retq   
  406573:	66 2e 0f 1f 84 00 00 	nopw   %cs:0x0(%rax,%rax,1)
  40657a:	00 00 00 
  40657d:	0f 1f 00             	nopl   (%rax)

0000000000406580 <_ZN5boost21iterator_range_detail19iterator_range_baseIN9__gnu_cxx17__normal_iteratorIPcNSt7__cxx1112basic_stringIcSt11char_traitsIcESaIcEEEEENS_9iterators27bidirectional_traversal_tagEEC2ISB_EET_SG_>:
  406580:	55                   	push   %rbp
  406581:	48 89 e5             	mov    %rsp,%rbp
  406584:	48 83 ec 30          	sub    $0x30,%rsp
  406588:	48 89 75 f8          	mov    %rsi,-0x8(%rbp)
  40658c:	48 89 55 f0          	mov    %rdx,-0x10(%rbp)
  406590:	48 89 7d e8          	mov    %rdi,-0x18(%rbp)
  406594:	48 8b 45 e8          	mov    -0x18(%rbp),%rax
  406598:	48 8b 4d f8          	mov    -0x8(%rbp),%rcx
  40659c:	48 89 4d e0          	mov    %rcx,-0x20(%rbp)
  4065a0:	48 8b 4d f0          	mov    -0x10(%rbp),%rcx
  4065a4:	48 89 4d d8          	mov    %rcx,-0x28(%rbp)
  4065a8:	48 8b 75 e0          	mov    -0x20(%rbp),%rsi
  4065ac:	48 8b 55 d8          	mov    -0x28(%rbp),%rdx
  4065b0:	48 89 c7             	mov    %rax,%rdi
  4065b3:	e8 08 00 00 00       	callq  4065c0 <_ZN5boost21iterator_range_detail19iterator_range_baseIN9__gnu_cxx17__normal_iteratorIPcNSt7__cxx1112basic_stringIcSt11char_traitsIcESaIcEEEEENS_9iterators27incrementable_traversal_tagEEC2ISB_EET_SG_>
  4065b8:	48 83 c4 30          	add    $0x30,%rsp
  4065bc:	5d                   	pop    %rbp
  4065bd:	c3                   	retq   
  4065be:	66 90                	xchg   %ax,%ax

00000000004065c0 <_ZN5boost21iterator_range_detail19iterator_range_baseIN9__gnu_cxx17__normal_iteratorIPcNSt7__cxx1112basic_stringIcSt11char_traitsIcESaIcEEEEENS_9iterators27incrementable_traversal_tagEEC2ISB_EET_SG_>:
  4065c0:	55                   	push   %rbp
  4065c1:	48 89 e5             	mov    %rsp,%rbp
  4065c4:	48 89 75 f8          	mov    %rsi,-0x8(%rbp)
  4065c8:	48 89 55 f0          	mov    %rdx,-0x10(%rbp)
  4065cc:	48 89 7d e8          	mov    %rdi,-0x18(%rbp)
  4065d0:	48 8b 45 e8          	mov    -0x18(%rbp),%rax
  4065d4:	48 8b 4d f8          	mov    -0x8(%rbp),%rcx
  4065d8:	48 89 08             	mov    %rcx,(%rax)
  4065db:	48 8b 4d f0          	mov    -0x10(%rbp),%rcx
  4065df:	48 89 48 08          	mov    %rcx,0x8(%rax)
  4065e3:	5d                   	pop    %rbp
  4065e4:	c3                   	retq   
  4065e5:	66 2e 0f 1f 84 00 00 	nopw   %cs:0x0(%rax,%rax,1)
  4065ec:	00 00 00 
  4065ef:	90                   	nop

00000000004065f0 <_ZN5boost12range_detail9range_endINS_14iterator_rangeIN9__gnu_cxx17__normal_iteratorIPcNSt7__cxx1112basic_stringIcSt11char_traitsIcESaIcEEEEEEEEENS_14range_iteratorIT_vE4typeERSF_>:
  4065f0:	55                   	push   %rbp
  4065f1:	48 89 e5             	mov    %rsp,%rbp
  4065f4:	48 83 ec 10          	sub    $0x10,%rsp
  4065f8:	48 89 7d f0          	mov    %rdi,-0x10(%rbp)
  4065fc:	48 8b 45 f0          	mov    -0x10(%rbp),%rax
  406600:	48 89 c7             	mov    %rax,%rdi
  406603:	e8 18 00 00 00       	callq  406620 <_ZNK5boost21iterator_range_detail19iterator_range_baseIN9__gnu_cxx17__normal_iteratorIPcNSt7__cxx1112basic_stringIcSt11char_traitsIcESaIcEEEEENS_9iterators27incrementable_traversal_tagEE3endEv>
  406608:	48 89 45 f8          	mov    %rax,-0x8(%rbp)
  40660c:	48 8b 45 f8          	mov    -0x8(%rbp),%rax
  406610:	48 83 c4 10          	add    $0x10,%rsp
  406614:	5d                   	pop    %rbp
  406615:	c3                   	retq   
  406616:	66 2e 0f 1f 84 00 00 	nopw   %cs:0x0(%rax,%rax,1)
  40661d:	00 00 00 

0000000000406620 <_ZNK5boost21iterator_range_detail19iterator_range_baseIN9__gnu_cxx17__normal_iteratorIPcNSt7__cxx1112basic_stringIcSt11char_traitsIcESaIcEEEEENS_9iterators27incrementable_traversal_tagEE3endEv>:
  406620:	55                   	push   %rbp
  406621:	48 89 e5             	mov    %rsp,%rbp
  406624:	48 89 7d f0          	mov    %rdi,-0x10(%rbp)
  406628:	48 8b 45 f0          	mov    -0x10(%rbp),%rax
  40662c:	48 8b 40 08          	mov    0x8(%rax),%rax
  406630:	48 89 45 f8          	mov    %rax,-0x8(%rbp)
  406634:	48 8b 45 f8          	mov    -0x8(%rbp),%rax
  406638:	5d                   	pop    %rbp
  406639:	c3                   	retq   
  40663a:	66 0f 1f 44 00 00    	nopw   0x0(%rax,%rax,1)

0000000000406640 <_ZN5boost9iterators18transform_iteratorINS_9algorithm6detail20copy_iterator_rangeFINSt7__cxx1112basic_stringIcSt11char_traitsIcESaIcEEEN9__gnu_cxx17__normal_iteratorIPcSA_EEEENS2_14split_iteratorISE_EENS_11use_defaultESI_EC2ERKSH_SF_>:
  406640:	55                   	push   %rbp
  406641:	48 89 e5             	mov    %rsp,%rbp
  406644:	48 83 ec 20          	sub    $0x20,%rsp
  406648:	48 89 7d f0          	mov    %rdi,-0x10(%rbp)
  40664c:	48 89 75 e8          	mov    %rsi,-0x18(%rbp)
  406650:	48 8b 45 f0          	mov    -0x10(%rbp),%rax
  406654:	48 8b 75 e8          	mov    -0x18(%rbp),%rsi
  406658:	48 89 c7             	mov    %rax,%rdi
  40665b:	e8 10 00 00 00       	callq  406670 <_ZN5boost9iterators16iterator_adaptorINS0_18transform_iteratorINS_9algorithm6detail20copy_iterator_rangeFINSt7__cxx1112basic_stringIcSt11char_traitsIcESaIcEEEN9__gnu_cxx17__normal_iteratorIPcSB_EEEENS3_14split_iteratorISF_EENS_11use_defaultESJ_EESI_SB_SJ_SB_SJ_EC2ERKSI_>
  406660:	48 83 c4 20          	add    $0x20,%rsp
  406664:	5d                   	pop    %rbp
  406665:	c3                   	retq   
  406666:	66 2e 0f 1f 84 00 00 	nopw   %cs:0x0(%rax,%rax,1)
  40666d:	00 00 00 

0000000000406670 <_ZN5boost9iterators16iterator_adaptorINS0_18transform_iteratorINS_9algorithm6detail20copy_iterator_rangeFINSt7__cxx1112basic_stringIcSt11char_traitsIcESaIcEEEN9__gnu_cxx17__normal_iteratorIPcSB_EEEENS3_14split_iteratorISF_EENS_11use_defaultESJ_EESI_SB_SJ_SB_SJ_EC2ERKSI_>:
  406670:	55                   	push   %rbp
  406671:	48 89 e5             	mov    %rsp,%rbp
  406674:	48 83 ec 10          	sub    $0x10,%rsp
  406678:	48 89 7d f8          	mov    %rdi,-0x8(%rbp)
  40667c:	48 89 75 f0          	mov    %rsi,-0x10(%rbp)
  406680:	48 8b 7d f8          	mov    -0x8(%rbp),%rdi
  406684:	48 8b 75 f0          	mov    -0x10(%rbp),%rsi
  406688:	e8 13 00 00 00       	callq  4066a0 <_ZN5boost9algorithm14split_iteratorIN9__gnu_cxx17__normal_iteratorIPcNSt7__cxx1112basic_stringIcSt11char_traitsIcESaIcEEEEEEC2ERKSC_>
  40668d:	48 83 c4 10          	add    $0x10,%rsp
  406691:	5d                   	pop    %rbp
  406692:	c3                   	retq   
  406693:	66 2e 0f 1f 84 00 00 	nopw   %cs:0x0(%rax,%rax,1)
  40669a:	00 00 00 
  40669d:	0f 1f 00             	nopl   (%rax)

00000000004066a0 <_ZN5boost9algorithm14split_iteratorIN9__gnu_cxx17__normal_iteratorIPcNSt7__cxx1112basic_stringIcSt11char_traitsIcESaIcEEEEEEC2ERKSC_>:
  4066a0:	55                   	push   %rbp
  4066a1:	48 89 e5             	mov    %rsp,%rbp
  4066a4:	48 83 ec 20          	sub    $0x20,%rsp
  4066a8:	48 89 7d f8          	mov    %rdi,-0x8(%rbp)
  4066ac:	48 89 75 f0          	mov    %rsi,-0x10(%rbp)
  4066b0:	48 8b 45 f8          	mov    -0x8(%rbp),%rax
  4066b4:	48 89 c1             	mov    %rax,%rcx
  4066b7:	48 8b 55 f0          	mov    -0x10(%rbp),%rdx
  4066bb:	48 89 cf             	mov    %rcx,%rdi
  4066be:	48 89 d6             	mov    %rdx,%rsi
  4066c1:	48 89 45 e8          	mov    %rax,-0x18(%rbp)
  4066c5:	e8 46 00 00 00       	callq  406710 <_ZN5boost9algorithm6detail18find_iterator_baseIN9__gnu_cxx17__normal_iteratorIPcNSt7__cxx1112basic_stringIcSt11char_traitsIcESaIcEEEEEEC2ERKSD_>
  4066ca:	48 8b 45 f0          	mov    -0x10(%rbp),%rax
  4066ce:	48 8b 48 20          	mov    0x20(%rax),%rcx
  4066d2:	48 8b 55 e8          	mov    -0x18(%rbp),%rdx
  4066d6:	48 89 4a 20          	mov    %rcx,0x20(%rdx)
  4066da:	48 8b 40 28          	mov    0x28(%rax),%rax
  4066de:	48 89 42 28          	mov    %rax,0x28(%rdx)
  4066e2:	48 8b 45 f0          	mov    -0x10(%rbp),%rax
  4066e6:	48 8b 40 30          	mov    0x30(%rax),%rax
  4066ea:	48 89 42 30          	mov    %rax,0x30(%rdx)
  4066ee:	48 8b 45 f0          	mov    -0x10(%rbp),%rax
  4066f2:	48 8b 40 38          	mov    0x38(%rax),%rax
  4066f6:	48 89 42 38          	mov    %rax,0x38(%rdx)
  4066fa:	48 8b 45 f0          	mov    -0x10(%rbp),%rax
  4066fe:	44 8a 40 40          	mov    0x40(%rax),%r8b
  406702:	41 80 e0 01          	and    $0x1,%r8b
  406706:	44 88 42 40          	mov    %r8b,0x40(%rdx)
  40670a:	48 83 c4 20          	add    $0x20,%rsp
  40670e:	5d                   	pop    %rbp
  40670f:	c3                   	retq   

0000000000406710 <_ZN5boost9algorithm6detail18find_iterator_baseIN9__gnu_cxx17__normal_iteratorIPcNSt7__cxx1112basic_stringIcSt11char_traitsIcESaIcEEEEEEC2ERKSD_>:
  406710:	55                   	push   %rbp
  406711:	48 89 e5             	mov    %rsp,%rbp
  406714:	48 83 ec 10          	sub    $0x10,%rsp
  406718:	48 89 7d f8          	mov    %rdi,-0x8(%rbp)
  40671c:	48 89 75 f0          	mov    %rsi,-0x10(%rbp)
  406720:	48 8b 7d f8          	mov    -0x8(%rbp),%rdi
  406724:	48 8b 75 f0          	mov    -0x10(%rbp),%rsi
  406728:	e8 13 00 00 00       	callq  406740 <_ZN5boost9function2INS_14iterator_rangeIN9__gnu_cxx17__normal_iteratorIPcNSt7__cxx1112basic_stringIcSt11char_traitsIcESaIcEEEEEEESB_SB_EC2ERKSD_>
  40672d:	48 83 c4 10          	add    $0x10,%rsp
  406731:	5d                   	pop    %rbp
  406732:	c3                   	retq   
  406733:	66 2e 0f 1f 84 00 00 	nopw   %cs:0x0(%rax,%rax,1)
  40673a:	00 00 00 
  40673d:	0f 1f 00             	nopl   (%rax)

0000000000406740 <_ZN5boost9function2INS_14iterator_rangeIN9__gnu_cxx17__normal_iteratorIPcNSt7__cxx1112basic_stringIcSt11char_traitsIcESaIcEEEEEEESB_SB_EC2ERKSD_>:
  406740:	55                   	push   %rbp
  406741:	48 89 e5             	mov    %rsp,%rbp
  406744:	48 83 ec 20          	sub    $0x20,%rsp
  406748:	48 89 7d f8          	mov    %rdi,-0x8(%rbp)
  40674c:	48 89 75 f0          	mov    %rsi,-0x10(%rbp)
  406750:	48 8b 45 f8          	mov    -0x8(%rbp),%rax
  406754:	48 89 c1             	mov    %rax,%rcx
  406757:	48 89 cf             	mov    %rcx,%rdi
  40675a:	48 89 45 e8          	mov    %rax,-0x18(%rbp)
  40675e:	e8 1d 00 00 00       	callq  406780 <_ZN5boost13function_baseC2Ev>
  406763:	48 8b 75 f0          	mov    -0x10(%rbp),%rsi
  406767:	48 8b 7d e8          	mov    -0x18(%rbp),%rdi
  40676b:	e8 30 00 00 00       	callq  4067a0 <_ZN5boost9function2INS_14iterator_rangeIN9__gnu_cxx17__normal_iteratorIPcNSt7__cxx1112basic_stringIcSt11char_traitsIcESaIcEEEEEEESB_SB_E13assign_to_ownERKSD_>
  406770:	48 83 c4 20          	add    $0x20,%rsp
  406774:	5d                   	pop    %rbp
  406775:	c3                   	retq   
  406776:	66 2e 0f 1f 84 00 00 	nopw   %cs:0x0(%rax,%rax,1)
  40677d:	00 00 00 

0000000000406780 <_ZN5boost13function_baseC2Ev>:
  406780:	55                   	push   %rbp
  406781:	48 89 e5             	mov    %rsp,%rbp
  406784:	48 89 7d f8          	mov    %rdi,-0x8(%rbp)
  406788:	48 8b 45 f8          	mov    -0x8(%rbp),%rax
  40678c:	48 c7 00 00 00 00 00 	movq   $0x0,(%rax)
  406793:	5d                   	pop    %rbp
  406794:	c3                   	retq   
  406795:	66 2e 0f 1f 84 00 00 	nopw   %cs:0x0(%rax,%rax,1)
  40679c:	00 00 00 
  40679f:	90                   	nop

00000000004067a0 <_ZN5boost9function2INS_14iterator_rangeIN9__gnu_cxx17__normal_iteratorIPcNSt7__cxx1112basic_stringIcSt11char_traitsIcESaIcEEEEEEESB_SB_E13assign_to_ownERKSD_>:
  4067a0:	55                   	push   %rbp
  4067a1:	48 89 e5             	mov    %rsp,%rbp
  4067a4:	48 83 ec 20          	sub    $0x20,%rsp
  4067a8:	48 89 7d f8          	mov    %rdi,-0x8(%rbp)
  4067ac:	48 89 75 f0          	mov    %rsi,-0x10(%rbp)
  4067b0:	48 8b 45 f8          	mov    -0x8(%rbp),%rax
  4067b4:	48 8b 4d f0          	mov    -0x10(%rbp),%rcx
  4067b8:	48 89 cf             	mov    %rcx,%rdi
  4067bb:	48 89 45 e8          	mov    %rax,-0x18(%rbp)
  4067bf:	e8 8c 00 00 00       	callq  406850 <_ZNK5boost13function_base5emptyEv>
  4067c4:	a8 01                	test   $0x1,%al
  4067c6:	0f 85 76 00 00 00    	jne    406842 <_ZN5boost9function2INS_14iterator_rangeIN9__gnu_cxx17__normal_iteratorIPcNSt7__cxx1112basic_stringIcSt11char_traitsIcESaIcEEEEEEESB_SB_E13assign_to_ownERKSD_+0xa2>
  4067cc:	48 8b 45 f0          	mov    -0x10(%rbp),%rax
  4067d0:	48 8b 00             	mov    (%rax),%rax
  4067d3:	48 8b 4d e8          	mov    -0x18(%rbp),%rcx
  4067d7:	48 89 01             	mov    %rax,(%rcx)
  4067da:	48 89 cf             	mov    %rcx,%rdi
  4067dd:	e8 8e 00 00 00       	callq  406870 <_ZNK5boost13function_base28has_trivial_copy_and_destroyEv>
  4067e2:	a8 01                	test   $0x1,%al
  4067e4:	0f 85 05 00 00 00    	jne    4067ef <_ZN5boost9function2INS_14iterator_rangeIN9__gnu_cxx17__normal_iteratorIPcNSt7__cxx1112basic_stringIcSt11char_traitsIcESaIcEEEEEEESB_SB_E13assign_to_ownERKSD_+0x4f>
  4067ea:	e9 25 00 00 00       	jmpq   406814 <_ZN5boost9function2INS_14iterator_rangeIN9__gnu_cxx17__normal_iteratorIPcNSt7__cxx1112basic_stringIcSt11char_traitsIcESaIcEEEEEEESB_SB_E13assign_to_ownERKSD_+0x74>
  4067ef:	48 8b 45 f0          	mov    -0x10(%rbp),%rax
  4067f3:	48 8b 48 08          	mov    0x8(%rax),%rcx
  4067f7:	48 8b 55 e8          	mov    -0x18(%rbp),%rdx
  4067fb:	48 89 4a 08          	mov    %rcx,0x8(%rdx)
  4067ff:	48 8b 48 10          	mov    0x10(%rax),%rcx
  406803:	48 89 4a 10          	mov    %rcx,0x10(%rdx)
  406807:	48 8b 40 18          	mov    0x18(%rax),%rax
  40680b:	48 89 42 18          	mov    %rax,0x18(%rdx)
  40680f:	e9 29 00 00 00       	jmpq   40683d <_ZN5boost9function2INS_14iterator_rangeIN9__gnu_cxx17__normal_iteratorIPcNSt7__cxx1112basic_stringIcSt11char_traitsIcESaIcEEEEEEESB_SB_E13assign_to_ownERKSD_+0x9d>
  406814:	48 8b 7d e8          	mov    -0x18(%rbp),%rdi
  406818:	e8 83 00 00 00       	callq  4068a0 <_ZNK5boost9function2INS_14iterator_rangeIN9__gnu_cxx17__normal_iteratorIPcNSt7__cxx1112basic_stringIcSt11char_traitsIcESaIcEEEEEEESB_SB_E10get_vtableEv>
  40681d:	31 d2                	xor    %edx,%edx
  40681f:	48 8b 00             	mov    (%rax),%rax
  406822:	48 8b 4d f0          	mov    -0x10(%rbp),%rcx
  406826:	48 81 c1 08 00 00 00 	add    $0x8,%rcx
  40682d:	48 8b 75 e8          	mov    -0x18(%rbp),%rsi
  406831:	48 81 c6 08 00 00 00 	add    $0x8,%rsi
  406838:	48 89 cf             	mov    %rcx,%rdi
  40683b:	ff d0                	callq  *%rax
  40683d:	e9 00 00 00 00       	jmpq   406842 <_ZN5boost9function2INS_14iterator_rangeIN9__gnu_cxx17__normal_iteratorIPcNSt7__cxx1112basic_stringIcSt11char_traitsIcESaIcEEEEEEESB_SB_E13assign_to_ownERKSD_+0xa2>
  406842:	48 83 c4 20          	add    $0x20,%rsp
  406846:	5d                   	pop    %rbp
  406847:	c3                   	retq   
  406848:	0f 1f 84 00 00 00 00 	nopl   0x0(%rax,%rax,1)
  40684f:	00 

0000000000406850 <_ZNK5boost13function_base5emptyEv>:
  406850:	55                   	push   %rbp
  406851:	48 89 e5             	mov    %rsp,%rbp
  406854:	48 89 7d f8          	mov    %rdi,-0x8(%rbp)
  406858:	48 8b 45 f8          	mov    -0x8(%rbp),%rax
  40685c:	48 83 38 00          	cmpq   $0x0,(%rax)
  406860:	0f 95 c1             	setne  %cl
  406863:	80 f1 ff             	xor    $0xff,%cl
  406866:	80 e1 01             	and    $0x1,%cl
  406869:	0f b6 c1             	movzbl %cl,%eax
  40686c:	5d                   	pop    %rbp
  40686d:	c3                   	retq   
  40686e:	66 90                	xchg   %ax,%ax

0000000000406870 <_ZNK5boost13function_base28has_trivial_copy_and_destroyEv>:
  406870:	55                   	push   %rbp
  406871:	48 89 e5             	mov    %rsp,%rbp
  406874:	48 89 7d f8          	mov    %rdi,-0x8(%rbp)
  406878:	48 8b 45 f8          	mov    -0x8(%rbp),%rax
  40687c:	48 8b 00             	mov    (%rax),%rax
  40687f:	48 25 01 00 00 00    	and    $0x1,%rax
  406885:	48 83 f8 00          	cmp    $0x0,%rax
  406889:	0f 95 c1             	setne  %cl
  40688c:	80 e1 01             	and    $0x1,%cl
  40688f:	0f b6 c1             	movzbl %cl,%eax
  406892:	5d                   	pop    %rbp
  406893:	c3                   	retq   
  406894:	66 2e 0f 1f 84 00 00 	nopw   %cs:0x0(%rax,%rax,1)
  40689b:	00 00 00 
  40689e:	66 90                	xchg   %ax,%ax

00000000004068a0 <_ZNK5boost9function2INS_14iterator_rangeIN9__gnu_cxx17__normal_iteratorIPcNSt7__cxx1112basic_stringIcSt11char_traitsIcESaIcEEEEEEESB_SB_E10get_vtableEv>:
  4068a0:	55                   	push   %rbp
  4068a1:	48 89 e5             	mov    %rsp,%rbp
  4068a4:	48 89 7d f8          	mov    %rdi,-0x8(%rbp)
  4068a8:	48 8b 45 f8          	mov    -0x8(%rbp),%rax
  4068ac:	48 8b 00             	mov    (%rax),%rax
  4068af:	48 25 fe ff ff ff    	and    $0xfffffffffffffffe,%rax
  4068b5:	5d                   	pop    %rbp
  4068b6:	c3                   	retq   
  4068b7:	66 0f 1f 84 00 00 00 	nopw   0x0(%rax,%rax,1)
  4068be:	00 00 

00000000004068c0 <_ZN5boost12range_detail11range_beginINS_14iterator_rangeIN9__gnu_cxx17__normal_iteratorIPcNSt7__cxx1112basic_stringIcSt11char_traitsIcESaIcEEEEEEEEENS_14range_iteratorIT_vE4typeERSF_>:
  4068c0:	55                   	push   %rbp
  4068c1:	48 89 e5             	mov    %rsp,%rbp
  4068c4:	48 83 ec 10          	sub    $0x10,%rsp
  4068c8:	48 89 7d f0          	mov    %rdi,-0x10(%rbp)
  4068cc:	48 8b 45 f0          	mov    -0x10(%rbp),%rax
  4068d0:	48 89 c7             	mov    %rax,%rdi
  4068d3:	e8 18 00 00 00       	callq  4068f0 <_ZNK5boost21iterator_range_detail19iterator_range_baseIN9__gnu_cxx17__normal_iteratorIPcNSt7__cxx1112basic_stringIcSt11char_traitsIcESaIcEEEEENS_9iterators27incrementable_traversal_tagEE5beginEv>
  4068d8:	48 89 45 f8          	mov    %rax,-0x8(%rbp)
  4068dc:	48 8b 45 f8          	mov    -0x8(%rbp),%rax
  4068e0:	48 83 c4 10          	add    $0x10,%rsp
  4068e4:	5d                   	pop    %rbp
  4068e5:	c3                   	retq   
  4068e6:	66 2e 0f 1f 84 00 00 	nopw   %cs:0x0(%rax,%rax,1)
  4068ed:	00 00 00 

00000000004068f0 <_ZNK5boost21iterator_range_detail19iterator_range_baseIN9__gnu_cxx17__normal_iteratorIPcNSt7__cxx1112basic_stringIcSt11char_traitsIcESaIcEEEEENS_9iterators27incrementable_traversal_tagEE5beginEv>:
  4068f0:	55                   	push   %rbp
  4068f1:	48 89 e5             	mov    %rsp,%rbp
  4068f4:	48 89 7d f0          	mov    %rdi,-0x10(%rbp)
  4068f8:	48 8b 45 f0          	mov    -0x10(%rbp),%rax
  4068fc:	48 8b 00             	mov    (%rax),%rax
  4068ff:	48 89 45 f8          	mov    %rax,-0x8(%rbp)
  406903:	48 8b 45 f8          	mov    -0x8(%rbp),%rax
  406907:	5d                   	pop    %rbp
  406908:	c3                   	retq   
  406909:	0f 1f 80 00 00 00 00 	nopl   0x0(%rax)

0000000000406910 <_ZN5boost9algorithm6detail18find_iterator_baseIN9__gnu_cxx17__normal_iteratorIPcNSt7__cxx1112basic_stringIcSt11char_traitsIcESaIcEEEEEEC2INS1_13token_finderFINS1_10is_any_ofFIcEEEEEET_i>:
  406910:	55                   	push   %rbp
  406911:	48 89 e5             	mov    %rsp,%rbp
  406914:	48 83 ec 50          	sub    $0x50,%rsp
  406918:	48 89 7d f8          	mov    %rdi,-0x8(%rbp)
  40691c:	89 55 f4             	mov    %edx,-0xc(%rbp)
  40691f:	48 8b 7d f8          	mov    -0x8(%rbp),%rdi
  406923:	48 8d 45 d0          	lea    -0x30(%rbp),%rax
  406927:	48 89 7d b8          	mov    %rdi,-0x48(%rbp)
  40692b:	48 89 c7             	mov    %rax,%rdi
  40692e:	48 89 45 b0          	mov    %rax,-0x50(%rbp)
  406932:	e8 69 f6 ff ff       	callq  405fa0 <_ZN5boost9algorithm6detail13token_finderFINS1_10is_any_ofFIcEEEC2ERKS5_>
  406937:	31 d2                	xor    %edx,%edx
  406939:	48 8b 7d b8          	mov    -0x48(%rbp),%rdi
  40693d:	48 8b 75 b0          	mov    -0x50(%rbp),%rsi
  406941:	e8 4a 02 00 00       	callq  406b90 <_ZN5boost9function2INS_14iterator_rangeIN9__gnu_cxx17__normal_iteratorIPcNSt7__cxx1112basic_stringIcSt11char_traitsIcESaIcEEEEEEESB_SB_EC2INS_9algorithm6detail13token_finderFINSG_10is_any_ofFIcEEEEEET_NS_10enable_if_IXntsr11is_integralISL_EE5valueEiE4typeE>
  406946:	e9 00 00 00 00       	jmpq   40694b <_ZN5boost9algorithm6detail18find_iterator_baseIN9__gnu_cxx17__normal_iteratorIPcNSt7__cxx1112basic_stringIcSt11char_traitsIcESaIcEEEEEEC2INS1_13token_finderFINS1_10is_any_ofFIcEEEEEET_i+0x3b>
  40694b:	48 8d 7d d0          	lea    -0x30(%rbp),%rdi
  40694f:	e8 5c f5 ff ff       	callq  405eb0 <_ZN5boost9algorithm6detail13token_finderFINS1_10is_any_ofFIcEEED2Ev>
  406954:	48 83 c4 50          	add    $0x50,%rsp
  406958:	5d                   	pop    %rbp
  406959:	c3                   	retq   
  40695a:	48 89 45 c8          	mov    %rax,-0x38(%rbp)
  40695e:	89 55 c4             	mov    %edx,-0x3c(%rbp)
  406961:	48 8d 7d d0          	lea    -0x30(%rbp),%rdi
  406965:	e8 46 f5 ff ff       	callq  405eb0 <_ZN5boost9algorithm6detail13token_finderFINS1_10is_any_ofFIcEEED2Ev>
  40696a:	48 8b 7d c8          	mov    -0x38(%rbp),%rdi
  40696e:	e8 6d ca ff ff       	callq  4033e0 <_Unwind_Resume@plt>
  406973:	66 2e 0f 1f 84 00 00 	nopw   %cs:0x0(%rax,%rax,1)
  40697a:	00 00 00 
  40697d:	0f 1f 00             	nopl   (%rax)

0000000000406980 <_ZN5boost14iterator_rangeIN9__gnu_cxx17__normal_iteratorIPcNSt7__cxx1112basic_stringIcSt11char_traitsIcESaIcEEEEEEC2ISA_EET_SD_>:
  406980:	55                   	push   %rbp
  406981:	48 89 e5             	mov    %rsp,%rbp
  406984:	48 83 ec 30          	sub    $0x30,%rsp
  406988:	48 89 75 f8          	mov    %rsi,-0x8(%rbp)
  40698c:	48 89 55 f0          	mov    %rdx,-0x10(%rbp)
  406990:	48 89 7d e8          	mov    %rdi,-0x18(%rbp)
  406994:	48 8b 45 e8          	mov    -0x18(%rbp),%rax
  406998:	48 8b 4d f8          	mov    -0x8(%rbp),%rcx
  40699c:	48 89 4d e0          	mov    %rcx,-0x20(%rbp)
  4069a0:	48 8b 4d f0          	mov    -0x10(%rbp),%rcx
  4069a4:	48 89 4d d8          	mov    %rcx,-0x28(%rbp)
  4069a8:	48 8b 75 e0          	mov    -0x20(%rbp),%rsi
  4069ac:	48 8b 55 d8          	mov    -0x28(%rbp),%rdx
  4069b0:	48 89 c7             	mov    %rax,%rdi
  4069b3:	e8 c8 fa ff ff       	callq  406480 <_ZN5boost21iterator_range_detail19iterator_range_baseIN9__gnu_cxx17__normal_iteratorIPcNSt7__cxx1112basic_stringIcSt11char_traitsIcESaIcEEEEENS_9iterators27random_access_traversal_tagEEC2ISB_EET_SG_>
  4069b8:	48 83 c4 30          	add    $0x30,%rsp
  4069bc:	5d                   	pop    %rbp
  4069bd:	c3                   	retq   
  4069be:	66 90                	xchg   %ax,%ax

00000000004069c0 <_ZN9__gnu_cxxneIPcNSt7__cxx1112basic_stringIcSt11char_traitsIcESaIcEEEEEbRKNS_17__normal_iteratorIT_T0_EESD_>:
  4069c0:	55                   	push   %rbp
  4069c1:	48 89 e5             	mov    %rsp,%rbp
  4069c4:	48 83 ec 20          	sub    $0x20,%rsp
  4069c8:	48 89 7d f8          	mov    %rdi,-0x8(%rbp)
  4069cc:	48 89 75 f0          	mov    %rsi,-0x10(%rbp)
  4069d0:	48 8b 7d f8          	mov    -0x8(%rbp),%rdi
  4069d4:	e8 77 0f 00 00       	callq  407950 <_ZNK9__gnu_cxx17__normal_iteratorIPcNSt7__cxx1112basic_stringIcSt11char_traitsIcESaIcEEEE4baseEv>
  4069d9:	48 8b 00             	mov    (%rax),%rax
  4069dc:	48 8b 7d f0          	mov    -0x10(%rbp),%rdi
  4069e0:	48 89 45 e8          	mov    %rax,-0x18(%rbp)
  4069e4:	e8 67 0f 00 00       	callq  407950 <_ZNK9__gnu_cxx17__normal_iteratorIPcNSt7__cxx1112basic_stringIcSt11char_traitsIcESaIcEEEE4baseEv>
  4069e9:	48 8b 4d e8          	mov    -0x18(%rbp),%rcx
  4069ed:	48 3b 08             	cmp    (%rax),%rcx
  4069f0:	0f 95 c2             	setne  %dl
  4069f3:	80 e2 01             	and    $0x1,%dl
  4069f6:	0f b6 c2             	movzbl %dl,%eax
  4069f9:	48 83 c4 20          	add    $0x20,%rsp
  4069fd:	5d                   	pop    %rbp
  4069fe:	c3                   	retq   
  4069ff:	90                   	nop

0000000000406a00 <_ZN5boost9algorithm14split_iteratorIN9__gnu_cxx17__normal_iteratorIPcNSt7__cxx1112basic_stringIcSt11char_traitsIcESaIcEEEEEE9incrementEv>:
  406a00:	55                   	push   %rbp
  406a01:	48 89 e5             	mov    %rsp,%rbp
  406a04:	48 81 ec 80 00 00 00 	sub    $0x80,%rsp
  406a0b:	48 89 7d f8          	mov    %rdi,-0x8(%rbp)
  406a0f:	48 8b 45 f8          	mov    -0x8(%rbp),%rax
  406a13:	48 89 c1             	mov    %rax,%rcx
  406a16:	48 8b 50 30          	mov    0x30(%rax),%rdx
  406a1a:	48 89 55 e0          	mov    %rdx,-0x20(%rbp)
  406a1e:	48 8b 50 38          	mov    0x38(%rax),%rdx
  406a22:	48 89 55 d8          	mov    %rdx,-0x28(%rbp)
  406a26:	48 8b 75 e0          	mov    -0x20(%rbp),%rsi
  406a2a:	48 8b 55 d8          	mov    -0x28(%rbp),%rdx
  406a2e:	48 89 cf             	mov    %rcx,%rdi
  406a31:	48 89 45 90          	mov    %rax,-0x70(%rbp)
  406a35:	e8 26 13 00 00       	callq  407d60 <_ZNK5boost9algorithm6detail18find_iterator_baseIN9__gnu_cxx17__normal_iteratorIPcNSt7__cxx1112basic_stringIcSt11char_traitsIcESaIcEEEEEE7do_findESC_SC_>
  406a3a:	48 89 45 e8          	mov    %rax,-0x18(%rbp)
  406a3e:	48 89 55 f0          	mov    %rdx,-0x10(%rbp)
  406a42:	48 8d 45 e8          	lea    -0x18(%rbp),%rax
  406a46:	48 89 c7             	mov    %rax,%rdi
  406a49:	e8 a2 fe ff ff       	callq  4068f0 <_ZNK5boost21iterator_range_detail19iterator_range_baseIN9__gnu_cxx17__normal_iteratorIPcNSt7__cxx1112basic_stringIcSt11char_traitsIcESaIcEEEEENS_9iterators27incrementable_traversal_tagEE5beginEv>
  406a4e:	48 89 45 d0          	mov    %rax,-0x30(%rbp)
  406a52:	48 8b 45 90          	mov    -0x70(%rbp),%rax
  406a56:	48 05 38 00 00 00    	add    $0x38,%rax
  406a5c:	48 8d 7d d0          	lea    -0x30(%rbp),%rdi
  406a60:	48 89 c6             	mov    %rax,%rsi
  406a63:	e8 d8 09 00 00       	callq  407440 <_ZN9__gnu_cxxeqIPcNSt7__cxx1112basic_stringIcSt11char_traitsIcESaIcEEEEEbRKNS_17__normal_iteratorIT_T0_EESD_>
  406a68:	45 31 c0             	xor    %r8d,%r8d
  406a6b:	a8 01                	test   $0x1,%al
  406a6d:	44 88 45 8f          	mov    %r8b,-0x71(%rbp)
  406a71:	0f 85 05 00 00 00    	jne    406a7c <_ZN5boost9algorithm14split_iteratorIN9__gnu_cxx17__normal_iteratorIPcNSt7__cxx1112basic_stringIcSt11char_traitsIcESaIcEEEEEE9incrementEv+0x7c>
  406a77:	e9 29 00 00 00       	jmpq   406aa5 <_ZN5boost9algorithm14split_iteratorIN9__gnu_cxx17__normal_iteratorIPcNSt7__cxx1112basic_stringIcSt11char_traitsIcESaIcEEEEEE9incrementEv+0xa5>
  406a7c:	48 8d 45 e8          	lea    -0x18(%rbp),%rax
  406a80:	48 89 c7             	mov    %rax,%rdi
  406a83:	e8 98 fb ff ff       	callq  406620 <_ZNK5boost21iterator_range_detail19iterator_range_baseIN9__gnu_cxx17__normal_iteratorIPcNSt7__cxx1112basic_stringIcSt11char_traitsIcESaIcEEEEENS_9iterators27incrementable_traversal_tagEE3endEv>
  406a88:	48 89 45 c8          	mov    %rax,-0x38(%rbp)
  406a8c:	48 8b 45 90          	mov    -0x70(%rbp),%rax
  406a90:	48 05 38 00 00 00    	add    $0x38,%rax
  406a96:	48 8d 7d c8          	lea    -0x38(%rbp),%rdi
  406a9a:	48 89 c6             	mov    %rax,%rsi
  406a9d:	e8 9e 09 00 00       	callq  407440 <_ZN9__gnu_cxxeqIPcNSt7__cxx1112basic_stringIcSt11char_traitsIcESaIcEEEEEbRKNS_17__normal_iteratorIT_T0_EESD_>
  406aa2:	88 45 8f             	mov    %al,-0x71(%rbp)
  406aa5:	8a 45 8f             	mov    -0x71(%rbp),%al
  406aa8:	a8 01                	test   $0x1,%al
  406aaa:	0f 85 05 00 00 00    	jne    406ab5 <_ZN5boost9algorithm14split_iteratorIN9__gnu_cxx17__normal_iteratorIPcNSt7__cxx1112basic_stringIcSt11char_traitsIcESaIcEEEEEE9incrementEv+0xb5>
  406ab0:	e9 46 00 00 00       	jmpq   406afb <_ZN5boost9algorithm14split_iteratorIN9__gnu_cxx17__normal_iteratorIPcNSt7__cxx1112basic_stringIcSt11char_traitsIcESaIcEEEEEE9incrementEv+0xfb>
  406ab5:	48 8b 45 90          	mov    -0x70(%rbp),%rax
  406ab9:	48 05 20 00 00 00    	add    $0x20,%rax
  406abf:	48 89 c7             	mov    %rax,%rdi
  406ac2:	e8 59 fb ff ff       	callq  406620 <_ZNK5boost21iterator_range_detail19iterator_range_baseIN9__gnu_cxx17__normal_iteratorIPcNSt7__cxx1112basic_stringIcSt11char_traitsIcESaIcEEEEENS_9iterators27incrementable_traversal_tagEE3endEv>
  406ac7:	48 89 45 c0          	mov    %rax,-0x40(%rbp)
  406acb:	48 8b 45 90          	mov    -0x70(%rbp),%rax
  406acf:	48 05 38 00 00 00    	add    $0x38,%rax
  406ad5:	48 8d 7d c0          	lea    -0x40(%rbp),%rdi
  406ad9:	48 89 c6             	mov    %rax,%rsi
  406adc:	e8 5f 09 00 00       	callq  407440 <_ZN9__gnu_cxxeqIPcNSt7__cxx1112basic_stringIcSt11char_traitsIcESaIcEEEEEbRKNS_17__normal_iteratorIT_T0_EESD_>
  406ae1:	a8 01                	test   $0x1,%al
  406ae3:	0f 85 05 00 00 00    	jne    406aee <_ZN5boost9algorithm14split_iteratorIN9__gnu_cxx17__normal_iteratorIPcNSt7__cxx1112basic_stringIcSt11char_traitsIcESaIcEEEEEE9incrementEv+0xee>
  406ae9:	e9 08 00 00 00       	jmpq   406af6 <_ZN5boost9algorithm14split_iteratorIN9__gnu_cxx17__normal_iteratorIPcNSt7__cxx1112basic_stringIcSt11char_traitsIcESaIcEEEEEE9incrementEv+0xf6>
  406aee:	48 8b 45 90          	mov    -0x70(%rbp),%rax
  406af2:	c6 40 40 01          	movb   $0x1,0x40(%rax)
  406af6:	e9 00 00 00 00       	jmpq   406afb <_ZN5boost9algorithm14split_iteratorIN9__gnu_cxx17__normal_iteratorIPcNSt7__cxx1112basic_stringIcSt11char_traitsIcESaIcEEEEEE9incrementEv+0xfb>
  406afb:	48 8b 45 90          	mov    -0x70(%rbp),%rax
  406aff:	48 8b 48 30          	mov    0x30(%rax),%rcx
  406b03:	48 89 4d a8          	mov    %rcx,-0x58(%rbp)
  406b07:	48 8d 4d e8          	lea    -0x18(%rbp),%rcx
  406b0b:	48 89 cf             	mov    %rcx,%rdi
  406b0e:	e8 dd fd ff ff       	callq  4068f0 <_ZNK5boost21iterator_range_detail19iterator_range_baseIN9__gnu_cxx17__normal_iteratorIPcNSt7__cxx1112basic_stringIcSt11char_traitsIcESaIcEEEEENS_9iterators27incrementable_traversal_tagEE5beginEv>
  406b13:	48 89 45 a0          	mov    %rax,-0x60(%rbp)
  406b17:	48 8b 75 a8          	mov    -0x58(%rbp),%rsi
  406b1b:	48 8b 55 a0          	mov    -0x60(%rbp),%rdx
  406b1f:	48 8d 7d b0          	lea    -0x50(%rbp),%rdi
  406b23:	e8 58 fe ff ff       	callq  406980 <_ZN5boost14iterator_rangeIN9__gnu_cxx17__normal_iteratorIPcNSt7__cxx1112basic_stringIcSt11char_traitsIcESaIcEEEEEEC2ISA_EET_SD_>
  406b28:	48 8b 45 b0          	mov    -0x50(%rbp),%rax
  406b2c:	48 8b 4d 90          	mov    -0x70(%rbp),%rcx
  406b30:	48 89 41 20          	mov    %rax,0x20(%rcx)
  406b34:	48 8b 45 b8          	mov    -0x48(%rbp),%rax
  406b38:	48 89 41 28          	mov    %rax,0x28(%rcx)
  406b3c:	48 8d 45 e8          	lea    -0x18(%rbp),%rax
  406b40:	48 89 c7             	mov    %rax,%rdi
  406b43:	e8 d8 fa ff ff       	callq  406620 <_ZNK5boost21iterator_range_detail19iterator_range_baseIN9__gnu_cxx17__normal_iteratorIPcNSt7__cxx1112basic_stringIcSt11char_traitsIcESaIcEEEEENS_9iterators27incrementable_traversal_tagEE3endEv>
  406b48:	48 89 45 98          	mov    %rax,-0x68(%rbp)
  406b4c:	48 8b 45 98          	mov    -0x68(%rbp),%rax
  406b50:	48 8b 4d 90          	mov    -0x70(%rbp),%rcx
  406b54:	48 89 41 30          	mov    %rax,0x30(%rcx)
  406b58:	48 81 c4 80 00 00 00 	add    $0x80,%rsp
  406b5f:	5d                   	pop    %rbp
  406b60:	c3                   	retq   
  406b61:	66 2e 0f 1f 84 00 00 	nopw   %cs:0x0(%rax,%rax,1)
  406b68:	00 00 00 
  406b6b:	0f 1f 44 00 00       	nopl   0x0(%rax,%rax,1)

0000000000406b70 <_ZN5boost9algorithm6detail18find_iterator_baseIN9__gnu_cxx17__normal_iteratorIPcNSt7__cxx1112basic_stringIcSt11char_traitsIcESaIcEEEEEED2Ev>:
  406b70:	55                   	push   %rbp
  406b71:	48 89 e5             	mov    %rsp,%rbp
  406b74:	48 83 ec 10          	sub    $0x10,%rsp
  406b78:	48 89 7d f8          	mov    %rdi,-0x8(%rbp)
  406b7c:	48 8b 7d f8          	mov    -0x8(%rbp),%rdi
  406b80:	e8 5b 1d 00 00       	callq  4088e0 <_ZN5boost9function2INS_14iterator_rangeIN9__gnu_cxx17__normal_iteratorIPcNSt7__cxx1112basic_stringIcSt11char_traitsIcESaIcEEEEEEESB_SB_ED2Ev>
  406b85:	48 83 c4 10          	add    $0x10,%rsp
  406b89:	5d                   	pop    %rbp
  406b8a:	c3                   	retq   
  406b8b:	0f 1f 44 00 00       	nopl   0x0(%rax,%rax,1)

0000000000406b90 <_ZN5boost9function2INS_14iterator_rangeIN9__gnu_cxx17__normal_iteratorIPcNSt7__cxx1112basic_stringIcSt11char_traitsIcESaIcEEEEEEESB_SB_EC2INS_9algorithm6detail13token_finderFINSG_10is_any_ofFIcEEEEEET_NS_10enable_if_IXntsr11is_integralISL_EE5valueEiE4typeE>:
  406b90:	55                   	push   %rbp
  406b91:	48 89 e5             	mov    %rsp,%rbp
  406b94:	48 83 ec 60          	sub    $0x60,%rsp
  406b98:	48 89 7d f8          	mov    %rdi,-0x8(%rbp)
  406b9c:	89 55 f4             	mov    %edx,-0xc(%rbp)
  406b9f:	48 8b 45 f8          	mov    -0x8(%rbp),%rax
  406ba3:	48 89 c7             	mov    %rax,%rdi
  406ba6:	48 89 75 b8          	mov    %rsi,-0x48(%rbp)
  406baa:	48 89 45 b0          	mov    %rax,-0x50(%rbp)
  406bae:	e8 cd fb ff ff       	callq  406780 <_ZN5boost13function_baseC2Ev>
  406bb3:	48 8d 45 d0          	lea    -0x30(%rbp),%rax
  406bb7:	48 89 c7             	mov    %rax,%rdi
  406bba:	48 8b 75 b8          	mov    -0x48(%rbp),%rsi
  406bbe:	48 89 45 a8          	mov    %rax,-0x58(%rbp)
  406bc2:	e8 d9 f3 ff ff       	callq  405fa0 <_ZN5boost9algorithm6detail13token_finderFINS1_10is_any_ofFIcEEEC2ERKS5_>
  406bc7:	48 8b 7d b0          	mov    -0x50(%rbp),%rdi
  406bcb:	48 8b 75 a8          	mov    -0x58(%rbp),%rsi
  406bcf:	e8 3c 00 00 00       	callq  406c10 <_ZN5boost9function2INS_14iterator_rangeIN9__gnu_cxx17__normal_iteratorIPcNSt7__cxx1112basic_stringIcSt11char_traitsIcESaIcEEEEEEESB_SB_E9assign_toINS_9algorithm6detail13token_finderFINSG_10is_any_ofFIcEEEEEEvT_>
  406bd4:	e9 00 00 00 00       	jmpq   406bd9 <_ZN5boost9function2INS_14iterator_rangeIN9__gnu_cxx17__normal_iteratorIPcNSt7__cxx1112basic_stringIcSt11char_traitsIcESaIcEEEEEEESB_SB_EC2INS_9algorithm6detail13token_finderFINSG_10is_any_ofFIcEEEEEET_NS_10enable_if_IXntsr11is_integralISL_EE5valueEiE4typeE+0x49>
  406bd9:	48 8d 7d d0          	lea    -0x30(%rbp),%rdi
  406bdd:	e8 ce f2 ff ff       	callq  405eb0 <_ZN5boost9algorithm6detail13token_finderFINS1_10is_any_ofFIcEEED2Ev>
  406be2:	48 83 c4 60          	add    $0x60,%rsp
  406be6:	5d                   	pop    %rbp
  406be7:	c3                   	retq   
  406be8:	48 89 45 c8          	mov    %rax,-0x38(%rbp)
  406bec:	89 55 c4             	mov    %edx,-0x3c(%rbp)
  406bef:	48 8d 7d d0          	lea    -0x30(%rbp),%rdi
  406bf3:	e8 b8 f2 ff ff       	callq  405eb0 <_ZN5boost9algorithm6detail13token_finderFINS1_10is_any_ofFIcEEED2Ev>
  406bf8:	48 8b 7d c8          	mov    -0x38(%rbp),%rdi
  406bfc:	e8 df c7 ff ff       	callq  4033e0 <_Unwind_Resume@plt>
  406c01:	66 2e 0f 1f 84 00 00 	nopw   %cs:0x0(%rax,%rax,1)
  406c08:	00 00 00 
  406c0b:	0f 1f 44 00 00       	nopl   0x0(%rax,%rax,1)

0000000000406c10 <_ZN5boost9function2INS_14iterator_rangeIN9__gnu_cxx17__normal_iteratorIPcNSt7__cxx1112basic_stringIcSt11char_traitsIcESaIcEEEEEEESB_SB_E9assign_toINS_9algorithm6detail13token_finderFINSG_10is_any_ofFIcEEEEEEvT_>:
  406c10:	55                   	push   %rbp
  406c11:	48 89 e5             	mov    %rsp,%rbp
  406c14:	48 83 ec 60          	sub    $0x60,%rsp
  406c18:	48 89 7d f8          	mov    %rdi,-0x8(%rbp)
  406c1c:	48 8b 45 f8          	mov    -0x8(%rbp),%rax
  406c20:	48 8d 4d d8          	lea    -0x28(%rbp),%rcx
  406c24:	48 89 cf             	mov    %rcx,%rdi
  406c27:	48 89 45 b8          	mov    %rax,-0x48(%rbp)
  406c2b:	48 89 4d b0          	mov    %rcx,-0x50(%rbp)
  406c2f:	e8 6c f3 ff ff       	callq  405fa0 <_ZN5boost9algorithm6detail13token_finderFINS1_10is_any_ofFIcEEEC2ERKS5_>
  406c34:	48 8b 45 b8          	mov    -0x48(%rbp),%rax
  406c38:	48 83 c0 08          	add    $0x8,%rax
  406c3c:	bf 90 e0 40 00       	mov    $0x40e090,%edi
  406c41:	48 8b 75 b0          	mov    -0x50(%rbp),%rsi
  406c45:	48 89 c2             	mov    %rax,%rdx
  406c48:	e8 43 01 00 00       	callq  406d90 <_ZNK5boost6detail8function13basic_vtable2INS_14iterator_rangeIN9__gnu_cxx17__normal_iteratorIPcNSt7__cxx1112basic_stringIcSt11char_traitsIcESaIcEEEEEEESD_SD_E9assign_toINS_9algorithm6detail13token_finderFINSI_10is_any_ofFIcEEEEEEbT_RNS1_15function_bufferE>
  406c4d:	88 45 af             	mov    %al,-0x51(%rbp)
  406c50:	e9 00 00 00 00       	jmpq   406c55 <_ZN5boost9function2INS_14iterator_rangeIN9__gnu_cxx17__normal_iteratorIPcNSt7__cxx1112basic_stringIcSt11char_traitsIcESaIcEEEEEEESB_SB_E9assign_toINS_9algorithm6detail13token_finderFINSG_10is_any_ofFIcEEEEEEvT_+0x45>
  406c55:	48 8d 7d d8          	lea    -0x28(%rbp),%rdi
  406c59:	e8 52 f2 ff ff       	callq  405eb0 <_ZN5boost9algorithm6detail13token_finderFINS1_10is_any_ofFIcEEED2Ev>
  406c5e:	8a 45 af             	mov    -0x51(%rbp),%al
  406c61:	a8 01                	test   $0x1,%al
  406c63:	0f 85 05 00 00 00    	jne    406c6e <_ZN5boost9function2INS_14iterator_rangeIN9__gnu_cxx17__normal_iteratorIPcNSt7__cxx1112basic_stringIcSt11char_traitsIcESaIcEEEEEEESB_SB_E9assign_toINS_9algorithm6detail13token_finderFINSG_10is_any_ofFIcEEEEEEvT_+0x5e>
  406c69:	e9 33 00 00 00       	jmpq   406ca1 <_ZN5boost9function2INS_14iterator_rangeIN9__gnu_cxx17__normal_iteratorIPcNSt7__cxx1112basic_stringIcSt11char_traitsIcESaIcEEEEEEESB_SB_E9assign_toINS_9algorithm6detail13token_finderFINSG_10is_any_ofFIcEEEEEEvT_+0x91>
  406c6e:	48 b8 90 e0 40 00 00 	movabs $0x40e090,%rax
  406c75:	00 00 00 
  406c78:	48 89 45 c0          	mov    %rax,-0x40(%rbp)
  406c7c:	48 8b 45 c0          	mov    -0x40(%rbp),%rax
  406c80:	48 8b 4d b8          	mov    -0x48(%rbp),%rcx
  406c84:	48 89 01             	mov    %rax,(%rcx)
  406c87:	e9 20 00 00 00       	jmpq   406cac <_ZN5boost9function2INS_14iterator_rangeIN9__gnu_cxx17__normal_iteratorIPcNSt7__cxx1112basic_stringIcSt11char_traitsIcESaIcEEEEEEESB_SB_E9assign_toINS_9algorithm6detail13token_finderFINSG_10is_any_ofFIcEEEEEEvT_+0x9c>
  406c8c:	48 89 45 d0          	mov    %rax,-0x30(%rbp)
  406c90:	89 55 cc             	mov    %edx,-0x34(%rbp)
  406c93:	48 8d 7d d8          	lea    -0x28(%rbp),%rdi
  406c97:	e8 14 f2 ff ff       	callq  405eb0 <_ZN5boost9algorithm6detail13token_finderFINS1_10is_any_ofFIcEEED2Ev>
  406c9c:	e9 11 00 00 00       	jmpq   406cb2 <_ZN5boost9function2INS_14iterator_rangeIN9__gnu_cxx17__normal_iteratorIPcNSt7__cxx1112basic_stringIcSt11char_traitsIcESaIcEEEEEEESB_SB_E9assign_toINS_9algorithm6detail13token_finderFINSG_10is_any_ofFIcEEEEEEvT_+0xa2>
  406ca1:	48 8b 45 b8          	mov    -0x48(%rbp),%rax
  406ca5:	48 c7 00 00 00 00 00 	movq   $0x0,(%rax)
  406cac:	48 83 c4 60          	add    $0x60,%rsp
  406cb0:	5d                   	pop    %rbp
  406cb1:	c3                   	retq   
  406cb2:	48 8b 7d d0          	mov    -0x30(%rbp),%rdi
  406cb6:	e8 25 c7 ff ff       	callq  4033e0 <_Unwind_Resume@plt>
  406cbb:	0f 1f 44 00 00       	nopl   0x0(%rax,%rax,1)

0000000000406cc0 <_ZN5boost6detail8function15functor_managerINS_9algorithm6detail13token_finderFINS4_10is_any_ofFIcEEEEE6manageERKNS1_15function_bufferERSA_NS1_30functor_manager_operation_typeE>:
  406cc0:	55                   	push   %rbp
  406cc1:	48 89 e5             	mov    %rsp,%rbp
  406cc4:	48 83 ec 30          	sub    $0x30,%rsp
  406cc8:	48 89 7d f8          	mov    %rdi,-0x8(%rbp)
  406ccc:	48 89 75 f0          	mov    %rsi,-0x10(%rbp)
  406cd0:	89 55 ec             	mov    %edx,-0x14(%rbp)
  406cd3:	83 7d ec 04          	cmpl   $0x4,-0x14(%rbp)
  406cd7:	0f 85 2e 00 00 00    	jne    406d0b <_ZN5boost6detail8function15functor_managerINS_9algorithm6detail13token_finderFINS4_10is_any_ofFIcEEEEE6manageERKNS1_15function_bufferERSA_NS1_30functor_manager_operation_typeE+0x4b>
  406cdd:	e8 2e 01 00 00       	callq  406e10 <_ZN5boost9typeindex7type_idINS_9algorithm6detail13token_finderFINS3_10is_any_ofFIcEEEEEENS0_14stl_type_indexEv>
  406ce2:	48 89 45 e0          	mov    %rax,-0x20(%rbp)
  406ce6:	48 8d 7d e0          	lea    -0x20(%rbp),%rdi
  406cea:	e8 41 01 00 00       	callq  406e30 <_ZNK5boost9typeindex14stl_type_index9type_infoEv>
  406cef:	48 8b 4d f0          	mov    -0x10(%rbp),%rcx
  406cf3:	48 89 01             	mov    %rax,(%rcx)
  406cf6:	48 8b 45 f0          	mov    -0x10(%rbp),%rax
  406cfa:	c6 40 08 00          	movb   $0x0,0x8(%rax)
  406cfe:	48 8b 45 f0          	mov    -0x10(%rbp),%rax
  406d02:	c6 40 09 00          	movb   $0x0,0x9(%rax)
  406d06:	e9 10 00 00 00       	jmpq   406d1b <_ZN5boost6detail8function15functor_managerINS_9algorithm6detail13token_finderFINS4_10is_any_ofFIcEEEEE6manageERKNS1_15function_bufferERSA_NS1_30functor_manager_operation_typeE+0x5b>
  406d0b:	48 8b 7d f8          	mov    -0x8(%rbp),%rdi
  406d0f:	48 8b 75 f0          	mov    -0x10(%rbp),%rsi
  406d13:	8b 55 ec             	mov    -0x14(%rbp),%edx
  406d16:	e8 35 01 00 00       	callq  406e50 <_ZN5boost6detail8function15functor_managerINS_9algorithm6detail13token_finderFINS4_10is_any_ofFIcEEEEE7managerERKNS1_15function_bufferERSA_NS1_30functor_manager_operation_typeENS1_16function_obj_tagE>
  406d1b:	48 83 c4 30          	add    $0x30,%rsp
  406d1f:	5d                   	pop    %rbp
  406d20:	c3                   	retq   
  406d21:	66 2e 0f 1f 84 00 00 	nopw   %cs:0x0(%rax,%rax,1)
  406d28:	00 00 00 
  406d2b:	0f 1f 44 00 00       	nopl   0x0(%rax,%rax,1)

0000000000406d30 <_ZN5boost6detail8function21function_obj_invoker2INS_9algorithm6detail13token_finderFINS4_10is_any_ofFIcEEEENS_14iterator_rangeIN9__gnu_cxx17__normal_iteratorIPcNSt7__cxx1112basic_stringIcSt11char_traitsIcESaIcEEEEEEESJ_SJ_E6invokeERNS1_15function_bufferESJ_SJ_>:
  406d30:	55                   	push   %rbp
  406d31:	48 89 e5             	mov    %rsp,%rbp
  406d34:	48 83 ec 40          	sub    $0x40,%rsp
  406d38:	48 89 75 e8          	mov    %rsi,-0x18(%rbp)
  406d3c:	48 89 55 e0          	mov    %rdx,-0x20(%rbp)
  406d40:	48 89 7d d8          	mov    %rdi,-0x28(%rbp)
  406d44:	48 8b 45 d8          	mov    -0x28(%rbp),%rax
  406d48:	48 8b 00             	mov    (%rax),%rax
  406d4b:	48 89 45 d0          	mov    %rax,-0x30(%rbp)
  406d4f:	48 8b 7d d0          	mov    -0x30(%rbp),%rdi
  406d53:	48 8b 45 e8          	mov    -0x18(%rbp),%rax
  406d57:	48 89 45 c8          	mov    %rax,-0x38(%rbp)
  406d5b:	48 8b 45 e0          	mov    -0x20(%rbp),%rax
  406d5f:	48 89 45 c0          	mov    %rax,-0x40(%rbp)
  406d63:	48 8b 75 c8          	mov    -0x38(%rbp),%rsi
  406d67:	48 8b 55 c0          	mov    -0x40(%rbp),%rdx
  406d6b:	e8 60 04 00 00       	callq  4071d0 <_ZNK5boost9algorithm6detail13token_finderFINS1_10is_any_ofFIcEEEclIN9__gnu_cxx17__normal_iteratorIPcNSt7__cxx1112basic_stringIcSt11char_traitsIcESaIcEEEEEEENS_14iterator_rangeIT_EESI_SI_>
  406d70:	48 89 45 f0          	mov    %rax,-0x10(%rbp)
  406d74:	48 89 55 f8          	mov    %rdx,-0x8(%rbp)
  406d78:	48 8b 45 f0          	mov    -0x10(%rbp),%rax
  406d7c:	48 8b 55 f8          	mov    -0x8(%rbp),%rdx
  406d80:	48 83 c4 40          	add    $0x40,%rsp
  406d84:	5d                   	pop    %rbp
  406d85:	c3                   	retq   
  406d86:	66 2e 0f 1f 84 00 00 	nopw   %cs:0x0(%rax,%rax,1)
  406d8d:	00 00 00 

0000000000406d90 <_ZNK5boost6detail8function13basic_vtable2INS_14iterator_rangeIN9__gnu_cxx17__normal_iteratorIPcNSt7__cxx1112basic_stringIcSt11char_traitsIcESaIcEEEEEEESD_SD_E9assign_toINS_9algorithm6detail13token_finderFINSI_10is_any_ofFIcEEEEEEbT_RNS1_15function_bufferE>:
  406d90:	55                   	push   %rbp
  406d91:	48 89 e5             	mov    %rsp,%rbp
  406d94:	48 83 ec 60          	sub    $0x60,%rsp
  406d98:	48 89 7d f8          	mov    %rdi,-0x8(%rbp)
  406d9c:	48 89 55 f0          	mov    %rdx,-0x10(%rbp)
  406da0:	48 8b 7d f8          	mov    -0x8(%rbp),%rdi
  406da4:	48 8d 45 d0          	lea    -0x30(%rbp),%rax
  406da8:	48 89 7d b0          	mov    %rdi,-0x50(%rbp)
  406dac:	48 89 c7             	mov    %rax,%rdi
  406daf:	48 89 45 a8          	mov    %rax,-0x58(%rbp)
  406db3:	e8 e8 f1 ff ff       	callq  405fa0 <_ZN5boost9algorithm6detail13token_finderFINS1_10is_any_ofFIcEEEC2ERKS5_>
  406db8:	48 8b 55 f0          	mov    -0x10(%rbp),%rdx
  406dbc:	48 8b 7d b0          	mov    -0x50(%rbp),%rdi
  406dc0:	48 8b 75 a8          	mov    -0x58(%rbp),%rsi
  406dc4:	e8 57 0e 00 00       	callq  407c20 <_ZNK5boost6detail8function13basic_vtable2INS_14iterator_rangeIN9__gnu_cxx17__normal_iteratorIPcNSt7__cxx1112basic_stringIcSt11char_traitsIcESaIcEEEEEEESD_SD_E9assign_toINS_9algorithm6detail13token_finderFINSI_10is_any_ofFIcEEEEEEbT_RNS1_15function_bufferENS1_16function_obj_tagE>
  406dc9:	88 45 a7             	mov    %al,-0x59(%rbp)
  406dcc:	e9 00 00 00 00       	jmpq   406dd1 <_ZNK5boost6detail8function13basic_vtable2INS_14iterator_rangeIN9__gnu_cxx17__normal_iteratorIPcNSt7__cxx1112basic_stringIcSt11char_traitsIcESaIcEEEEEEESD_SD_E9assign_toINS_9algorithm6detail13token_finderFINSI_10is_any_ofFIcEEEEEEbT_RNS1_15function_bufferE+0x41>
  406dd1:	48 8d 7d d0          	lea    -0x30(%rbp),%rdi
  406dd5:	e8 d6 f0 ff ff       	callq  405eb0 <_ZN5boost9algorithm6detail13token_finderFINS1_10is_any_ofFIcEEED2Ev>
  406dda:	8a 45 a7             	mov    -0x59(%rbp),%al
  406ddd:	24 01                	and    $0x1,%al
  406ddf:	0f b6 c0             	movzbl %al,%eax
  406de2:	48 83 c4 60          	add    $0x60,%rsp
  406de6:	5d                   	pop    %rbp
  406de7:	c3                   	retq   
  406de8:	48 89 45 c0          	mov    %rax,-0x40(%rbp)
  406dec:	89 55 bc             	mov    %edx,-0x44(%rbp)
  406def:	48 8d 7d d0          	lea    -0x30(%rbp),%rdi
  406df3:	e8 b8 f0 ff ff       	callq  405eb0 <_ZN5boost9algorithm6detail13token_finderFINS1_10is_any_ofFIcEEED2Ev>
  406df8:	48 8b 7d c0          	mov    -0x40(%rbp),%rdi
  406dfc:	e8 df c5 ff ff       	callq  4033e0 <_Unwind_Resume@plt>
  406e01:	66 2e 0f 1f 84 00 00 	nopw   %cs:0x0(%rax,%rax,1)
  406e08:	00 00 00 
  406e0b:	0f 1f 44 00 00       	nopl   0x0(%rax,%rax,1)

0000000000406e10 <_ZN5boost9typeindex7type_idINS_9algorithm6detail13token_finderFINS3_10is_any_ofFIcEEEEEENS0_14stl_type_indexEv>:
  406e10:	55                   	push   %rbp
  406e11:	48 89 e5             	mov    %rsp,%rbp
  406e14:	48 83 ec 10          	sub    $0x10,%rsp
  406e18:	e8 63 00 00 00       	callq  406e80 <_ZN5boost9typeindex14stl_type_index7type_idINS_9algorithm6detail13token_finderFINS4_10is_any_ofFIcEEEEEES1_v>
  406e1d:	48 89 45 f8          	mov    %rax,-0x8(%rbp)
  406e21:	48 8b 45 f8          	mov    -0x8(%rbp),%rax
  406e25:	48 83 c4 10          	add    $0x10,%rsp
  406e29:	5d                   	pop    %rbp
  406e2a:	c3                   	retq   
  406e2b:	0f 1f 44 00 00       	nopl   0x0(%rax,%rax,1)

0000000000406e30 <_ZNK5boost9typeindex14stl_type_index9type_infoEv>:
  406e30:	55                   	push   %rbp
  406e31:	48 89 e5             	mov    %rsp,%rbp
  406e34:	48 89 7d f8          	mov    %rdi,-0x8(%rbp)
  406e38:	48 8b 45 f8          	mov    -0x8(%rbp),%rax
  406e3c:	48 8b 00             	mov    (%rax),%rax
  406e3f:	5d                   	pop    %rbp
  406e40:	c3                   	retq   
  406e41:	66 2e 0f 1f 84 00 00 	nopw   %cs:0x0(%rax,%rax,1)
  406e48:	00 00 00 
  406e4b:	0f 1f 44 00 00       	nopl   0x0(%rax,%rax,1)

0000000000406e50 <_ZN5boost6detail8function15functor_managerINS_9algorithm6detail13token_finderFINS4_10is_any_ofFIcEEEEE7managerERKNS1_15function_bufferERSA_NS1_30functor_manager_operation_typeENS1_16function_obj_tagE>:
  406e50:	55                   	push   %rbp
  406e51:	48 89 e5             	mov    %rsp,%rbp
  406e54:	48 83 ec 20          	sub    $0x20,%rsp
  406e58:	48 89 7d f0          	mov    %rdi,-0x10(%rbp)
  406e5c:	48 89 75 e8          	mov    %rsi,-0x18(%rbp)
  406e60:	89 55 e4             	mov    %edx,-0x1c(%rbp)
  406e63:	48 8b 7d f0          	mov    -0x10(%rbp),%rdi
  406e67:	48 8b 75 e8          	mov    -0x18(%rbp),%rsi
  406e6b:	8b 55 e4             	mov    -0x1c(%rbp),%edx
  406e6e:	e8 5d 00 00 00       	callq  406ed0 <_ZN5boost6detail8function15functor_managerINS_9algorithm6detail13token_finderFINS4_10is_any_ofFIcEEEEE7managerERKNS1_15function_bufferERSA_NS1_30functor_manager_operation_typeENS_17integral_constantIbLb0EEE>
  406e73:	48 83 c4 20          	add    $0x20,%rsp
  406e77:	5d                   	pop    %rbp
  406e78:	c3                   	retq   
  406e79:	0f 1f 80 00 00 00 00 	nopl   0x0(%rax)

0000000000406e80 <_ZN5boost9typeindex14stl_type_index7type_idINS_9algorithm6detail13token_finderFINS4_10is_any_ofFIcEEEEEES1_v>:
  406e80:	55                   	push   %rbp
  406e81:	48 89 e5             	mov    %rsp,%rbp
  406e84:	48 83 ec 10          	sub    $0x10,%rsp
  406e88:	48 b8 e0 e0 40 00 00 	movabs $0x40e0e0,%rax
  406e8f:	00 00 00 
  406e92:	48 8d 7d f8          	lea    -0x8(%rbp),%rdi
  406e96:	48 89 c6             	mov    %rax,%rsi
  406e99:	e8 12 00 00 00       	callq  406eb0 <_ZN5boost9typeindex14stl_type_indexC2ERKSt9type_info>
  406e9e:	48 8b 45 f8          	mov    -0x8(%rbp),%rax
  406ea2:	48 83 c4 10          	add    $0x10,%rsp
  406ea6:	5d                   	pop    %rbp
  406ea7:	c3                   	retq   
  406ea8:	0f 1f 84 00 00 00 00 	nopl   0x0(%rax,%rax,1)
  406eaf:	00 

0000000000406eb0 <_ZN5boost9typeindex14stl_type_indexC2ERKSt9type_info>:
  406eb0:	55                   	push   %rbp
  406eb1:	48 89 e5             	mov    %rsp,%rbp
  406eb4:	48 89 7d f8          	mov    %rdi,-0x8(%rbp)
  406eb8:	48 89 75 f0          	mov    %rsi,-0x10(%rbp)
  406ebc:	48 8b 45 f8          	mov    -0x8(%rbp),%rax
  406ec0:	48 8b 4d f0          	mov    -0x10(%rbp),%rcx
  406ec4:	48 89 08             	mov    %rcx,(%rax)
  406ec7:	5d                   	pop    %rbp
  406ec8:	c3                   	retq   
  406ec9:	0f 1f 80 00 00 00 00 	nopl   0x0(%rax)

0000000000406ed0 <_ZN5boost6detail8function15functor_managerINS_9algorithm6detail13token_finderFINS4_10is_any_ofFIcEEEEE7managerERKNS1_15function_bufferERSA_NS1_30functor_manager_operation_typeENS_17integral_constantIbLb0EEE>:
  406ed0:	55                   	push   %rbp
  406ed1:	48 89 e5             	mov    %rsp,%rbp
  406ed4:	48 81 ec 80 00 00 00 	sub    $0x80,%rsp
  406edb:	48 89 7d f0          	mov    %rdi,-0x10(%rbp)
  406edf:	48 89 75 e8          	mov    %rsi,-0x18(%rbp)
  406ee3:	89 55 e4             	mov    %edx,-0x1c(%rbp)
  406ee6:	83 7d e4 00          	cmpl   $0x0,-0x1c(%rbp)
  406eea:	0f 85 61 00 00 00    	jne    406f51 <_ZN5boost6detail8function15functor_managerINS_9algorithm6detail13token_finderFINS4_10is_any_ofFIcEEEEE7managerERKNS1_15function_bufferERSA_NS1_30functor_manager_operation_typeENS_17integral_constantIbLb0EEE+0x81>
  406ef0:	48 8b 45 f0          	mov    -0x10(%rbp),%rax
  406ef4:	48 8b 00             	mov    (%rax),%rax
  406ef7:	48 89 45 d8          	mov    %rax,-0x28(%rbp)
  406efb:	bf 20 00 00 00       	mov    $0x20,%edi
  406f00:	e8 4b c3 ff ff       	callq  403250 <_Znwm@plt>
  406f05:	48 89 c1             	mov    %rax,%rcx
  406f08:	48 89 c2             	mov    %rax,%rdx
  406f0b:	48 8b 75 d8          	mov    -0x28(%rbp),%rsi
  406f0f:	48 89 c7             	mov    %rax,%rdi
  406f12:	48 89 4d a0          	mov    %rcx,-0x60(%rbp)
  406f16:	48 89 55 98          	mov    %rdx,-0x68(%rbp)
  406f1a:	e8 81 f0 ff ff       	callq  405fa0 <_ZN5boost9algorithm6detail13token_finderFINS1_10is_any_ofFIcEEEC2ERKS5_>
  406f1f:	e9 00 00 00 00       	jmpq   406f24 <_ZN5boost6detail8function15functor_managerINS_9algorithm6detail13token_finderFINS4_10is_any_ofFIcEEEEE7managerERKNS1_15function_bufferERSA_NS1_30functor_manager_operation_typeENS_17integral_constantIbLb0EEE+0x54>
  406f24:	48 8b 45 98          	mov    -0x68(%rbp),%rax
  406f28:	48 89 45 d0          	mov    %rax,-0x30(%rbp)
  406f2c:	48 8b 4d d0          	mov    -0x30(%rbp),%rcx
  406f30:	48 8b 55 e8          	mov    -0x18(%rbp),%rdx
  406f34:	48 89 0a             	mov    %rcx,(%rdx)
  406f37:	e9 1f 01 00 00       	jmpq   40705b <_ZN5boost6detail8function15functor_managerINS_9algorithm6detail13token_finderFINS4_10is_any_ofFIcEEEEE7managerERKNS1_15function_bufferERSA_NS1_30functor_manager_operation_typeENS_17integral_constantIbLb0EEE+0x18b>
  406f3c:	48 89 45 c8          	mov    %rax,-0x38(%rbp)
  406f40:	89 55 c4             	mov    %edx,-0x3c(%rbp)
  406f43:	48 8b 7d a0          	mov    -0x60(%rbp),%rdi
  406f47:	e8 d4 c2 ff ff       	callq  403220 <_ZdlPv@plt>
  406f4c:	e9 13 01 00 00       	jmpq   407064 <_ZN5boost6detail8function15functor_managerINS_9algorithm6detail13token_finderFINS4_10is_any_ofFIcEEEEE7managerERKNS1_15function_bufferERSA_NS1_30functor_manager_operation_typeENS_17integral_constantIbLb0EEE+0x194>
  406f51:	83 7d e4 01          	cmpl   $0x1,-0x1c(%rbp)
  406f55:	0f 85 1e 00 00 00    	jne    406f79 <_ZN5boost6detail8function15functor_managerINS_9algorithm6detail13token_finderFINS4_10is_any_ofFIcEEEEE7managerERKNS1_15function_bufferERSA_NS1_30functor_manager_operation_typeENS_17integral_constantIbLb0EEE+0xa9>
  406f5b:	48 8b 45 f0          	mov    -0x10(%rbp),%rax
  406f5f:	48 8b 00             	mov    (%rax),%rax
  406f62:	48 8b 4d e8          	mov    -0x18(%rbp),%rcx
  406f66:	48 89 01             	mov    %rax,(%rcx)
  406f69:	48 8b 45 f0          	mov    -0x10(%rbp),%rax
  406f6d:	48 c7 00 00 00 00 00 	movq   $0x0,(%rax)
  406f74:	e9 dd 00 00 00       	jmpq   407056 <_ZN5boost6detail8function15functor_managerINS_9algorithm6detail13token_finderFINS4_10is_any_ofFIcEEEEE7managerERKNS1_15function_bufferERSA_NS1_30functor_manager_operation_typeENS_17integral_constantIbLb0EEE+0x186>
  406f79:	83 7d e4 02          	cmpl   $0x2,-0x1c(%rbp)
  406f7d:	0f 85 42 00 00 00    	jne    406fc5 <_ZN5boost6detail8function15functor_managerINS_9algorithm6detail13token_finderFINS4_10is_any_ofFIcEEEEE7managerERKNS1_15function_bufferERSA_NS1_30functor_manager_operation_typeENS_17integral_constantIbLb0EEE+0xf5>
  406f83:	48 8b 45 e8          	mov    -0x18(%rbp),%rax
  406f87:	48 8b 00             	mov    (%rax),%rax
  406f8a:	48 89 45 b8          	mov    %rax,-0x48(%rbp)
  406f8e:	48 8b 45 b8          	mov    -0x48(%rbp),%rax
  406f92:	48 83 f8 00          	cmp    $0x0,%rax
  406f96:	48 89 45 90          	mov    %rax,-0x70(%rbp)
  406f9a:	0f 84 15 00 00 00    	je     406fb5 <_ZN5boost6detail8function15functor_managerINS_9algorithm6detail13token_finderFINS4_10is_any_ofFIcEEEEE7managerERKNS1_15function_bufferERSA_NS1_30functor_manager_operation_typeENS_17integral_constantIbLb0EEE+0xe5>
  406fa0:	48 8b 7d 90          	mov    -0x70(%rbp),%rdi
  406fa4:	e8 07 ef ff ff       	callq  405eb0 <_ZN5boost9algorithm6detail13token_finderFINS1_10is_any_ofFIcEEED2Ev>
  406fa9:	48 8b 45 90          	mov    -0x70(%rbp),%rax
  406fad:	48 89 c7             	mov    %rax,%rdi
  406fb0:	e8 6b c2 ff ff       	callq  403220 <_ZdlPv@plt>
  406fb5:	48 8b 45 e8          	mov    -0x18(%rbp),%rax
  406fb9:	48 c7 00 00 00 00 00 	movq   $0x0,(%rax)
  406fc0:	e9 8c 00 00 00       	jmpq   407051 <_ZN5boost6detail8function15functor_managerINS_9algorithm6detail13token_finderFINS4_10is_any_ofFIcEEEEE7managerERKNS1_15function_bufferERSA_NS1_30functor_manager_operation_typeENS_17integral_constantIbLb0EEE+0x181>
  406fc5:	83 7d e4 03          	cmpl   $0x3,-0x1c(%rbp)
  406fc9:	0f 85 54 00 00 00    	jne    407023 <_ZN5boost6detail8function15functor_managerINS_9algorithm6detail13token_finderFINS4_10is_any_ofFIcEEEEE7managerERKNS1_15function_bufferERSA_NS1_30functor_manager_operation_typeENS_17integral_constantIbLb0EEE+0x153>
  406fcf:	48 8b 45 e8          	mov    -0x18(%rbp),%rax
  406fd3:	48 8b 38             	mov    (%rax),%rdi
  406fd6:	48 89 7d 88          	mov    %rdi,-0x78(%rbp)
  406fda:	e8 31 fe ff ff       	callq  406e10 <_ZN5boost9typeindex7type_idINS_9algorithm6detail13token_finderFINS3_10is_any_ofFIcEEEEEENS0_14stl_type_indexEv>
  406fdf:	48 89 45 b0          	mov    %rax,-0x50(%rbp)
  406fe3:	48 8d 45 b0          	lea    -0x50(%rbp),%rax
  406fe7:	48 8b 7d 88          	mov    -0x78(%rbp),%rdi
  406feb:	48 89 c6             	mov    %rax,%rsi
  406fee:	e8 7d 00 00 00       	callq  407070 <_ZN5boost9typeindexeqINS0_14stl_type_indexESt9type_infoEEbRKT0_RKNS0_17type_index_facadeIT_S4_EE>
  406ff3:	a8 01                	test   $0x1,%al
  406ff5:	0f 85 05 00 00 00    	jne    407000 <_ZN5boost6detail8function15functor_managerINS_9algorithm6detail13token_finderFINS4_10is_any_ofFIcEEEEE7managerERKNS1_15function_bufferERSA_NS1_30functor_manager_operation_typeENS_17integral_constantIbLb0EEE+0x130>
  406ffb:	e9 13 00 00 00       	jmpq   407013 <_ZN5boost6detail8function15functor_managerINS_9algorithm6detail13token_finderFINS4_10is_any_ofFIcEEEEE7managerERKNS1_15function_bufferERSA_NS1_30functor_manager_operation_typeENS_17integral_constantIbLb0EEE+0x143>
  407000:	48 8b 45 f0          	mov    -0x10(%rbp),%rax
  407004:	48 8b 00             	mov    (%rax),%rax
  407007:	48 8b 4d e8          	mov    -0x18(%rbp),%rcx
  40700b:	48 89 01             	mov    %rax,(%rcx)
  40700e:	e9 0b 00 00 00       	jmpq   40701e <_ZN5boost6detail8function15functor_managerINS_9algorithm6detail13token_finderFINS4_10is_any_ofFIcEEEEE7managerERKNS1_15function_bufferERSA_NS1_30functor_manager_operation_typeENS_17integral_constantIbLb0EEE+0x14e>
  407013:	48 8b 45 e8          	mov    -0x18(%rbp),%rax
  407017:	48 c7 00 00 00 00 00 	movq   $0x0,(%rax)
  40701e:	e9 29 00 00 00       	jmpq   40704c <_ZN5boost6detail8function15functor_managerINS_9algorithm6detail13token_finderFINS4_10is_any_ofFIcEEEEE7managerERKNS1_15function_bufferERSA_NS1_30functor_manager_operation_typeENS_17integral_constantIbLb0EEE+0x17c>
  407023:	e8 e8 fd ff ff       	callq  406e10 <_ZN5boost9typeindex7type_idINS_9algorithm6detail13token_finderFINS3_10is_any_ofFIcEEEEEENS0_14stl_type_indexEv>
  407028:	48 89 45 a8          	mov    %rax,-0x58(%rbp)
  40702c:	48 8d 7d a8          	lea    -0x58(%rbp),%rdi
  407030:	e8 fb fd ff ff       	callq  406e30 <_ZNK5boost9typeindex14stl_type_index9type_infoEv>
  407035:	48 8b 4d e8          	mov    -0x18(%rbp),%rcx
  407039:	48 89 01             	mov    %rax,(%rcx)
  40703c:	48 8b 45 e8          	mov    -0x18(%rbp),%rax
  407040:	c6 40 08 00          	movb   $0x0,0x8(%rax)
  407044:	48 8b 45 e8          	mov    -0x18(%rbp),%rax
  407048:	c6 40 09 00          	movb   $0x0,0x9(%rax)
  40704c:	e9 00 00 00 00       	jmpq   407051 <_ZN5boost6detail8function15functor_managerINS_9algorithm6detail13token_finderFINS4_10is_any_ofFIcEEEEE7managerERKNS1_15function_bufferERSA_NS1_30functor_manager_operation_typeENS_17integral_constantIbLb0EEE+0x181>
  407051:	e9 00 00 00 00       	jmpq   407056 <_ZN5boost6detail8function15functor_managerINS_9algorithm6detail13token_finderFINS4_10is_any_ofFIcEEEEE7managerERKNS1_15function_bufferERSA_NS1_30functor_manager_operation_typeENS_17integral_constantIbLb0EEE+0x186>
  407056:	e9 00 00 00 00       	jmpq   40705b <_ZN5boost6detail8function15functor_managerINS_9algorithm6detail13token_finderFINS4_10is_any_ofFIcEEEEE7managerERKNS1_15function_bufferERSA_NS1_30functor_manager_operation_typeENS_17integral_constantIbLb0EEE+0x18b>
  40705b:	48 81 c4 80 00 00 00 	add    $0x80,%rsp
  407062:	5d                   	pop    %rbp
  407063:	c3                   	retq   
  407064:	48 8b 7d c8          	mov    -0x38(%rbp),%rdi
  407068:	e8 73 c3 ff ff       	callq  4033e0 <_Unwind_Resume@plt>
  40706d:	0f 1f 00             	nopl   (%rax)

0000000000407070 <_ZN5boost9typeindexeqINS0_14stl_type_indexESt9type_infoEEbRKT0_RKNS0_17type_index_facadeIT_S4_EE>:
  407070:	55                   	push   %rbp
  407071:	48 89 e5             	mov    %rsp,%rbp
  407074:	48 83 ec 20          	sub    $0x20,%rsp
  407078:	48 89 7d f8          	mov    %rdi,-0x8(%rbp)
  40707c:	48 89 75 f0          	mov    %rsi,-0x10(%rbp)
  407080:	48 8b 75 f8          	mov    -0x8(%rbp),%rsi
  407084:	48 8d 7d e8          	lea    -0x18(%rbp),%rdi
  407088:	e8 23 fe ff ff       	callq  406eb0 <_ZN5boost9typeindex14stl_type_indexC2ERKSt9type_info>
  40708d:	48 8d 45 e8          	lea    -0x18(%rbp),%rax
  407091:	48 8b 75 f0          	mov    -0x10(%rbp),%rsi
  407095:	48 89 c7             	mov    %rax,%rdi
  407098:	e8 13 00 00 00       	callq  4070b0 <_ZN5boost9typeindexeqINS0_14stl_type_indexESt9type_infoEEbRKNS0_17type_index_facadeIT_T0_EES9_>
  40709d:	24 01                	and    $0x1,%al
  40709f:	0f b6 c0             	movzbl %al,%eax
  4070a2:	48 83 c4 20          	add    $0x20,%rsp
  4070a6:	5d                   	pop    %rbp
  4070a7:	c3                   	retq   
  4070a8:	0f 1f 84 00 00 00 00 	nopl   0x0(%rax,%rax,1)
  4070af:	00 

00000000004070b0 <_ZN5boost9typeindexeqINS0_14stl_type_indexESt9type_infoEEbRKNS0_17type_index_facadeIT_T0_EES9_>:
  4070b0:	55                   	push   %rbp
  4070b1:	48 89 e5             	mov    %rsp,%rbp
  4070b4:	48 83 ec 10          	sub    $0x10,%rsp
  4070b8:	48 89 7d f8          	mov    %rdi,-0x8(%rbp)
  4070bc:	48 89 75 f0          	mov    %rsi,-0x10(%rbp)
  4070c0:	48 8b 45 f8          	mov    -0x8(%rbp),%rax
  4070c4:	48 8b 4d f0          	mov    -0x10(%rbp),%rcx
  4070c8:	48 89 c7             	mov    %rax,%rdi
  4070cb:	48 89 ce             	mov    %rcx,%rsi
  4070ce:	e8 0d 00 00 00       	callq  4070e0 <_ZNK5boost9typeindex14stl_type_index5equalERKS1_>
  4070d3:	24 01                	and    $0x1,%al
  4070d5:	0f b6 c0             	movzbl %al,%eax
  4070d8:	48 83 c4 10          	add    $0x10,%rsp
  4070dc:	5d                   	pop    %rbp
  4070dd:	c3                   	retq   
  4070de:	66 90                	xchg   %ax,%ax

00000000004070e0 <_ZNK5boost9typeindex14stl_type_index5equalERKS1_>:
  4070e0:	55                   	push   %rbp
  4070e1:	48 89 e5             	mov    %rsp,%rbp
  4070e4:	48 83 ec 30          	sub    $0x30,%rsp
  4070e8:	48 89 7d f8          	mov    %rdi,-0x8(%rbp)
  4070ec:	48 89 75 f0          	mov    %rsi,-0x10(%rbp)
  4070f0:	48 8b 45 f8          	mov    -0x8(%rbp),%rax
  4070f4:	48 89 c7             	mov    %rax,%rdi
  4070f7:	48 89 45 e8          	mov    %rax,-0x18(%rbp)
  4070fb:	e8 60 00 00 00       	callq  407160 <_ZNK5boost9typeindex14stl_type_index8raw_nameEv>
  407100:	48 8b 7d f0          	mov    -0x10(%rbp),%rdi
  407104:	48 89 45 e0          	mov    %rax,-0x20(%rbp)
  407108:	e8 53 00 00 00       	callq  407160 <_ZNK5boost9typeindex14stl_type_index8raw_nameEv>
  40710d:	48 8b 4d e0          	mov    -0x20(%rbp),%rcx
  407111:	48 39 c1             	cmp    %rax,%rcx
  407114:	b2 01                	mov    $0x1,%dl
  407116:	88 55 df             	mov    %dl,-0x21(%rbp)
  407119:	0f 84 2e 00 00 00    	je     40714d <_ZNK5boost9typeindex14stl_type_index5equalERKS1_+0x6d>
  40711f:	48 8b 7d e8          	mov    -0x18(%rbp),%rdi
  407123:	e8 38 00 00 00       	callq  407160 <_ZNK5boost9typeindex14stl_type_index8raw_nameEv>
  407128:	48 8b 7d f0          	mov    -0x10(%rbp),%rdi
  40712c:	48 89 45 d0          	mov    %rax,-0x30(%rbp)
  407130:	e8 2b 00 00 00       	callq  407160 <_ZNK5boost9typeindex14stl_type_index8raw_nameEv>
  407135:	48 8b 7d d0          	mov    -0x30(%rbp),%rdi
  407139:	48 89 c6             	mov    %rax,%rsi
  40713c:	e8 0f c2 ff ff       	callq  403350 <strcmp@plt>
  407141:	83 f8 00             	cmp    $0x0,%eax
  407144:	0f 95 c1             	setne  %cl
  407147:	80 f1 ff             	xor    $0xff,%cl
  40714a:	88 4d df             	mov    %cl,-0x21(%rbp)
  40714d:	8a 45 df             	mov    -0x21(%rbp),%al
  407150:	24 01                	and    $0x1,%al
  407152:	0f b6 c0             	movzbl %al,%eax
  407155:	48 83 c4 30          	add    $0x30,%rsp
  407159:	5d                   	pop    %rbp
  40715a:	c3                   	retq   
  40715b:	0f 1f 44 00 00       	nopl   0x0(%rax,%rax,1)

0000000000407160 <_ZNK5boost9typeindex14stl_type_index8raw_nameEv>:
  407160:	55                   	push   %rbp
  407161:	48 89 e5             	mov    %rsp,%rbp
  407164:	48 83 ec 10          	sub    $0x10,%rsp
  407168:	48 89 7d f8          	mov    %rdi,-0x8(%rbp)
  40716c:	48 8b 45 f8          	mov    -0x8(%rbp),%rax
  407170:	48 8b 38             	mov    (%rax),%rdi
  407173:	e8 08 00 00 00       	callq  407180 <_ZNKSt9type_info4nameEv>
  407178:	48 83 c4 10          	add    $0x10,%rsp
  40717c:	5d                   	pop    %rbp
  40717d:	c3                   	retq   
  40717e:	66 90                	xchg   %ax,%ax

0000000000407180 <_ZNKSt9type_info4nameEv>:
  407180:	55                   	push   %rbp
  407181:	48 89 e5             	mov    %rsp,%rbp
  407184:	48 89 7d f8          	mov    %rdi,-0x8(%rbp)
  407188:	48 8b 45 f8          	mov    -0x8(%rbp),%rax
  40718c:	48 8b 48 08          	mov    0x8(%rax),%rcx
  407190:	0f be 11             	movsbl (%rcx),%edx
  407193:	83 fa 2a             	cmp    $0x2a,%edx
  407196:	48 89 45 f0          	mov    %rax,-0x10(%rbp)
  40719a:	0f 85 18 00 00 00    	jne    4071b8 <_ZNKSt9type_info4nameEv+0x38>
  4071a0:	48 8b 45 f0          	mov    -0x10(%rbp),%rax
  4071a4:	48 8b 48 08          	mov    0x8(%rax),%rcx
  4071a8:	48 81 c1 01 00 00 00 	add    $0x1,%rcx
  4071af:	48 89 4d e8          	mov    %rcx,-0x18(%rbp)
  4071b3:	e9 0c 00 00 00       	jmpq   4071c4 <_ZNKSt9type_info4nameEv+0x44>
  4071b8:	48 8b 45 f0          	mov    -0x10(%rbp),%rax
  4071bc:	48 8b 48 08          	mov    0x8(%rax),%rcx
  4071c0:	48 89 4d e8          	mov    %rcx,-0x18(%rbp)
  4071c4:	48 8b 45 e8          	mov    -0x18(%rbp),%rax
  4071c8:	5d                   	pop    %rbp
  4071c9:	c3                   	retq   
  4071ca:	66 0f 1f 44 00 00    	nopw   0x0(%rax,%rax,1)

00000000004071d0 <_ZNK5boost9algorithm6detail13token_finderFINS1_10is_any_ofFIcEEEclIN9__gnu_cxx17__normal_iteratorIPcNSt7__cxx1112basic_stringIcSt11char_traitsIcESaIcEEEEEEENS_14iterator_rangeIT_EESI_SI_>:
  4071d0:	55                   	push   %rbp
  4071d1:	48 89 e5             	mov    %rsp,%rbp
  4071d4:	48 81 ec b0 00 00 00 	sub    $0xb0,%rsp
  4071db:	48 89 75 e8          	mov    %rsi,-0x18(%rbp)
  4071df:	48 89 55 e0          	mov    %rdx,-0x20(%rbp)
  4071e3:	48 89 7d d8          	mov    %rdi,-0x28(%rbp)
  4071e7:	48 8b 45 d8          	mov    -0x28(%rbp),%rax
  4071eb:	48 8b 4d e8          	mov    -0x18(%rbp),%rcx
  4071ef:	48 89 4d c8          	mov    %rcx,-0x38(%rbp)
  4071f3:	48 8b 4d e0          	mov    -0x20(%rbp),%rcx
  4071f7:	48 89 4d c0          	mov    %rcx,-0x40(%rbp)
  4071fb:	48 8d 4d a8          	lea    -0x58(%rbp),%rcx
  4071ff:	48 89 cf             	mov    %rcx,%rdi
  407202:	48 89 c6             	mov    %rax,%rsi
  407205:	48 89 85 68 ff ff ff 	mov    %rax,-0x98(%rbp)
  40720c:	48 89 8d 60 ff ff ff 	mov    %rcx,-0xa0(%rbp)
  407213:	e8 e8 eb ff ff       	callq  405e00 <_ZN5boost9algorithm6detail10is_any_ofFIcEC2ERKS3_>
  407218:	48 8b 7d c8          	mov    -0x38(%rbp),%rdi
  40721c:	48 8b 75 c0          	mov    -0x40(%rbp),%rsi
  407220:	48 8b 95 60 ff ff ff 	mov    -0xa0(%rbp),%rdx
  407227:	e8 54 01 00 00       	callq  407380 <_ZSt7find_ifIN9__gnu_cxx17__normal_iteratorIPcNSt7__cxx1112basic_stringIcSt11char_traitsIcESaIcEEEEEN5boost9algorithm6detail10is_any_ofFIcEEET_SF_SF_T0_>
  40722c:	48 89 85 58 ff ff ff 	mov    %rax,-0xa8(%rbp)
  407233:	e9 00 00 00 00       	jmpq   407238 <_ZNK5boost9algorithm6detail13token_finderFINS1_10is_any_ofFIcEEEclIN9__gnu_cxx17__normal_iteratorIPcNSt7__cxx1112basic_stringIcSt11char_traitsIcESaIcEEEEEEENS_14iterator_rangeIT_EESI_SI_+0x68>
  407238:	48 8b 85 58 ff ff ff 	mov    -0xa8(%rbp),%rax
  40723f:	48 89 45 d0          	mov    %rax,-0x30(%rbp)
  407243:	48 8d 7d a8          	lea    -0x58(%rbp),%rdi
  407247:	e8 f4 c8 ff ff       	callq  403b40 <_ZN5boost9algorithm6detail10is_any_ofFIcED2Ev>
  40724c:	48 8d 7d d0          	lea    -0x30(%rbp),%rdi
  407250:	48 8d 75 e0          	lea    -0x20(%rbp),%rsi
  407254:	e8 e7 01 00 00       	callq  407440 <_ZN9__gnu_cxxeqIPcNSt7__cxx1112basic_stringIcSt11char_traitsIcESaIcEEEEEbRKNS_17__normal_iteratorIT_T0_EESD_>
  407259:	a8 01                	test   $0x1,%al
  40725b:	0f 85 05 00 00 00    	jne    407266 <_ZNK5boost9algorithm6detail13token_finderFINS1_10is_any_ofFIcEEEclIN9__gnu_cxx17__normal_iteratorIPcNSt7__cxx1112basic_stringIcSt11char_traitsIcESaIcEEEEEEENS_14iterator_rangeIT_EESI_SI_+0x96>
  407261:	e9 3b 00 00 00       	jmpq   4072a1 <_ZNK5boost9algorithm6detail13token_finderFINS1_10is_any_ofFIcEEEclIN9__gnu_cxx17__normal_iteratorIPcNSt7__cxx1112basic_stringIcSt11char_traitsIcESaIcEEEEEEENS_14iterator_rangeIT_EESI_SI_+0xd1>
  407266:	48 8b 45 e0          	mov    -0x20(%rbp),%rax
  40726a:	48 89 45 90          	mov    %rax,-0x70(%rbp)
  40726e:	48 8b 45 e0          	mov    -0x20(%rbp),%rax
  407272:	48 89 45 88          	mov    %rax,-0x78(%rbp)
  407276:	48 8b 75 90          	mov    -0x70(%rbp),%rsi
  40727a:	48 8b 55 88          	mov    -0x78(%rbp),%rdx
  40727e:	48 8d 7d f0          	lea    -0x10(%rbp),%rdi
  407282:	e8 f9 f6 ff ff       	callq  406980 <_ZN5boost14iterator_rangeIN9__gnu_cxx17__normal_iteratorIPcNSt7__cxx1112basic_stringIcSt11char_traitsIcESaIcEEEEEEC2ISA_EET_SD_>
  407287:	e9 cf 00 00 00       	jmpq   40735b <_ZNK5boost9algorithm6detail13token_finderFINS1_10is_any_ofFIcEEEclIN9__gnu_cxx17__normal_iteratorIPcNSt7__cxx1112basic_stringIcSt11char_traitsIcESaIcEEEEEEENS_14iterator_rangeIT_EESI_SI_+0x18b>
  40728c:	48 89 45 a0          	mov    %rax,-0x60(%rbp)
  407290:	89 55 9c             	mov    %edx,-0x64(%rbp)
  407293:	48 8d 7d a8          	lea    -0x58(%rbp),%rdi
  407297:	e8 a4 c8 ff ff       	callq  403b40 <_ZN5boost9algorithm6detail10is_any_ofFIcED2Ev>
  40729c:	e9 cb 00 00 00       	jmpq   40736c <_ZNK5boost9algorithm6detail13token_finderFINS1_10is_any_ofFIcEEEclIN9__gnu_cxx17__normal_iteratorIPcNSt7__cxx1112basic_stringIcSt11char_traitsIcESaIcEEEEEEENS_14iterator_rangeIT_EESI_SI_+0x19c>
  4072a1:	48 8b 45 d0          	mov    -0x30(%rbp),%rax
  4072a5:	48 89 45 80          	mov    %rax,-0x80(%rbp)
  4072a9:	48 8b 85 68 ff ff ff 	mov    -0x98(%rbp),%rax
  4072b0:	83 78 18 00          	cmpl   $0x0,0x18(%rax)
  4072b4:	0f 85 6b 00 00 00    	jne    407325 <_ZNK5boost9algorithm6detail13token_finderFINS1_10is_any_ofFIcEEEclIN9__gnu_cxx17__normal_iteratorIPcNSt7__cxx1112basic_stringIcSt11char_traitsIcESaIcEEEEEEENS_14iterator_rangeIT_EESI_SI_+0x155>
  4072ba:	e9 00 00 00 00       	jmpq   4072bf <_ZNK5boost9algorithm6detail13token_finderFINS1_10is_any_ofFIcEEEclIN9__gnu_cxx17__normal_iteratorIPcNSt7__cxx1112basic_stringIcSt11char_traitsIcESaIcEEEEEEENS_14iterator_rangeIT_EESI_SI_+0xef>
  4072bf:	48 8d 7d 80          	lea    -0x80(%rbp),%rdi
  4072c3:	48 8d 75 e0          	lea    -0x20(%rbp),%rsi
  4072c7:	e8 f4 f6 ff ff       	callq  4069c0 <_ZN9__gnu_cxxneIPcNSt7__cxx1112basic_stringIcSt11char_traitsIcESaIcEEEEEbRKNS_17__normal_iteratorIT_T0_EESD_>
  4072cc:	31 c9                	xor    %ecx,%ecx
  4072ce:	a8 01                	test   $0x1,%al
  4072d0:	88 8d 57 ff ff ff    	mov    %cl,-0xa9(%rbp)
  4072d6:	0f 85 05 00 00 00    	jne    4072e1 <_ZNK5boost9algorithm6detail13token_finderFINS1_10is_any_ofFIcEEEclIN9__gnu_cxx17__normal_iteratorIPcNSt7__cxx1112basic_stringIcSt11char_traitsIcESaIcEEEEEEENS_14iterator_rangeIT_EESI_SI_+0x111>
  4072dc:	e9 1e 00 00 00       	jmpq   4072ff <_ZNK5boost9algorithm6detail13token_finderFINS1_10is_any_ofFIcEEEclIN9__gnu_cxx17__normal_iteratorIPcNSt7__cxx1112basic_stringIcSt11char_traitsIcESaIcEEEEEEENS_14iterator_rangeIT_EESI_SI_+0x12f>
  4072e1:	48 8d 7d 80          	lea    -0x80(%rbp),%rdi
  4072e5:	e8 16 02 00 00       	callq  407500 <_ZNK9__gnu_cxx17__normal_iteratorIPcNSt7__cxx1112basic_stringIcSt11char_traitsIcESaIcEEEEdeEv>
  4072ea:	48 8b bd 68 ff ff ff 	mov    -0x98(%rbp),%rdi
  4072f1:	0f be 30             	movsbl (%rax),%esi
  4072f4:	e8 87 01 00 00       	callq  407480 <_ZNK5boost9algorithm6detail10is_any_ofFIcEclIcEEbT_>
  4072f9:	88 85 57 ff ff ff    	mov    %al,-0xa9(%rbp)
  4072ff:	8a 85 57 ff ff ff    	mov    -0xa9(%rbp),%al
  407305:	a8 01                	test   $0x1,%al
  407307:	0f 85 05 00 00 00    	jne    407312 <_ZNK5boost9algorithm6detail13token_finderFINS1_10is_any_ofFIcEEEclIN9__gnu_cxx17__normal_iteratorIPcNSt7__cxx1112basic_stringIcSt11char_traitsIcESaIcEEEEEEENS_14iterator_rangeIT_EESI_SI_+0x142>
  40730d:	e9 0e 00 00 00       	jmpq   407320 <_ZNK5boost9algorithm6detail13token_finderFINS1_10is_any_ofFIcEEEclIN9__gnu_cxx17__normal_iteratorIPcNSt7__cxx1112basic_stringIcSt11char_traitsIcESaIcEEEEEEENS_14iterator_rangeIT_EESI_SI_+0x150>
  407312:	48 8d 7d 80          	lea    -0x80(%rbp),%rdi
  407316:	e8 05 02 00 00       	callq  407520 <_ZN9__gnu_cxx17__normal_iteratorIPcNSt7__cxx1112basic_stringIcSt11char_traitsIcESaIcEEEEppEv>
  40731b:	e9 9f ff ff ff       	jmpq   4072bf <_ZNK5boost9algorithm6detail13token_finderFINS1_10is_any_ofFIcEEEclIN9__gnu_cxx17__normal_iteratorIPcNSt7__cxx1112basic_stringIcSt11char_traitsIcESaIcEEEEEEENS_14iterator_rangeIT_EESI_SI_+0xef>
  407320:	e9 09 00 00 00       	jmpq   40732e <_ZNK5boost9algorithm6detail13token_finderFINS1_10is_any_ofFIcEEEclIN9__gnu_cxx17__normal_iteratorIPcNSt7__cxx1112basic_stringIcSt11char_traitsIcESaIcEEEEEEENS_14iterator_rangeIT_EESI_SI_+0x15e>
  407325:	48 8d 7d 80          	lea    -0x80(%rbp),%rdi
  407329:	e8 f2 01 00 00       	callq  407520 <_ZN9__gnu_cxx17__normal_iteratorIPcNSt7__cxx1112basic_stringIcSt11char_traitsIcESaIcEEEEppEv>
  40732e:	48 8b 45 d0          	mov    -0x30(%rbp),%rax
  407332:	48 89 85 78 ff ff ff 	mov    %rax,-0x88(%rbp)
  407339:	48 8b 45 80          	mov    -0x80(%rbp),%rax
  40733d:	48 89 85 70 ff ff ff 	mov    %rax,-0x90(%rbp)
  407344:	48 8b b5 78 ff ff ff 	mov    -0x88(%rbp),%rsi
  40734b:	48 8b 95 70 ff ff ff 	mov    -0x90(%rbp),%rdx
  407352:	48 8d 7d f0          	lea    -0x10(%rbp),%rdi
  407356:	e8 25 f6 ff ff       	callq  406980 <_ZN5boost14iterator_rangeIN9__gnu_cxx17__normal_iteratorIPcNSt7__cxx1112basic_stringIcSt11char_traitsIcESaIcEEEEEEC2ISA_EET_SD_>
  40735b:	48 8b 45 f0          	mov    -0x10(%rbp),%rax
  40735f:	48 8b 55 f8          	mov    -0x8(%rbp),%rdx
  407363:	48 81 c4 b0 00 00 00 	add    $0xb0,%rsp
  40736a:	5d                   	pop    %rbp
  40736b:	c3                   	retq   
  40736c:	48 8b 7d a0          	mov    -0x60(%rbp),%rdi
  407370:	e8 6b c0 ff ff       	callq  4033e0 <_Unwind_Resume@plt>
  407375:	66 2e 0f 1f 84 00 00 	nopw   %cs:0x0(%rax,%rax,1)
  40737c:	00 00 00 
  40737f:	90                   	nop

0000000000407380 <_ZSt7find_ifIN9__gnu_cxx17__normal_iteratorIPcNSt7__cxx1112basic_stringIcSt11char_traitsIcESaIcEEEEEN5boost9algorithm6detail10is_any_ofFIcEEET_SF_SF_T0_>:
  407380:	55                   	push   %rbp
  407381:	48 89 e5             	mov    %rsp,%rbp
  407384:	48 81 ec 80 00 00 00 	sub    $0x80,%rsp
  40738b:	48 89 7d f0          	mov    %rdi,-0x10(%rbp)
  40738f:	48 89 75 e8          	mov    %rsi,-0x18(%rbp)
  407393:	48 8b 45 f0          	mov    -0x10(%rbp),%rax
  407397:	48 89 45 e0          	mov    %rax,-0x20(%rbp)
  40739b:	48 8b 45 e8          	mov    -0x18(%rbp),%rax
  40739f:	48 89 45 d8          	mov    %rax,-0x28(%rbp)
  4073a3:	48 8d 45 a8          	lea    -0x58(%rbp),%rax
  4073a7:	48 89 c7             	mov    %rax,%rdi
  4073aa:	48 89 d6             	mov    %rdx,%rsi
  4073ad:	48 89 45 90          	mov    %rax,-0x70(%rbp)
  4073b1:	e8 4a ea ff ff       	callq  405e00 <_ZN5boost9algorithm6detail10is_any_ofFIcEC2ERKS3_>
  4073b6:	48 8d 7d c0          	lea    -0x40(%rbp),%rdi
  4073ba:	48 8b 75 90          	mov    -0x70(%rbp),%rsi
  4073be:	e8 0d 02 00 00       	callq  4075d0 <_ZN9__gnu_cxx5__ops11__pred_iterIN5boost9algorithm6detail10is_any_ofFIcEEEENS0_10_Iter_predIT_EES8_>
  4073c3:	e9 00 00 00 00       	jmpq   4073c8 <_ZSt7find_ifIN9__gnu_cxx17__normal_iteratorIPcNSt7__cxx1112basic_stringIcSt11char_traitsIcESaIcEEEEEN5boost9algorithm6detail10is_any_ofFIcEEET_SF_SF_T0_+0x48>
  4073c8:	48 8b 7d e0          	mov    -0x20(%rbp),%rdi
  4073cc:	48 8b 75 d8          	mov    -0x28(%rbp),%rsi
  4073d0:	48 8d 55 c0          	lea    -0x40(%rbp),%rdx
  4073d4:	e8 67 01 00 00       	callq  407540 <_ZSt9__find_ifIN9__gnu_cxx17__normal_iteratorIPcNSt7__cxx1112basic_stringIcSt11char_traitsIcESaIcEEEEENS0_5__ops10_Iter_predIN5boost9algorithm6detail10is_any_ofFIcEEEEET_SI_SI_T0_>
  4073d9:	48 89 45 88          	mov    %rax,-0x78(%rbp)
  4073dd:	e9 00 00 00 00       	jmpq   4073e2 <_ZSt7find_ifIN9__gnu_cxx17__normal_iteratorIPcNSt7__cxx1112basic_stringIcSt11char_traitsIcESaIcEEEEEN5boost9algorithm6detail10is_any_ofFIcEEET_SF_SF_T0_+0x62>
  4073e2:	48 8b 45 88          	mov    -0x78(%rbp),%rax
  4073e6:	48 89 45 f8          	mov    %rax,-0x8(%rbp)
  4073ea:	48 8d 7d c0          	lea    -0x40(%rbp),%rdi
  4073ee:	e8 4d 02 00 00       	callq  407640 <_ZN9__gnu_cxx5__ops10_Iter_predIN5boost9algorithm6detail10is_any_ofFIcEEED2Ev>
  4073f3:	48 8d 7d a8          	lea    -0x58(%rbp),%rdi
  4073f7:	e8 44 c7 ff ff       	callq  403b40 <_ZN5boost9algorithm6detail10is_any_ofFIcED2Ev>
  4073fc:	48 8b 45 f8          	mov    -0x8(%rbp),%rax
  407400:	48 81 c4 80 00 00 00 	add    $0x80,%rsp
  407407:	5d                   	pop    %rbp
  407408:	c3                   	retq   
  407409:	48 89 45 a0          	mov    %rax,-0x60(%rbp)
  40740d:	89 55 9c             	mov    %edx,-0x64(%rbp)
  407410:	e9 10 00 00 00       	jmpq   407425 <_ZSt7find_ifIN9__gnu_cxx17__normal_iteratorIPcNSt7__cxx1112basic_stringIcSt11char_traitsIcESaIcEEEEEN5boost9algorithm6detail10is_any_ofFIcEEET_SF_SF_T0_+0xa5>
  407415:	48 89 45 a0          	mov    %rax,-0x60(%rbp)
  407419:	89 55 9c             	mov    %edx,-0x64(%rbp)
  40741c:	48 8d 7d c0          	lea    -0x40(%rbp),%rdi
  407420:	e8 1b 02 00 00       	callq  407640 <_ZN9__gnu_cxx5__ops10_Iter_predIN5boost9algorithm6detail10is_any_ofFIcEEED2Ev>
  407425:	48 8d 7d a8          	lea    -0x58(%rbp),%rdi
  407429:	e8 12 c7 ff ff       	callq  403b40 <_ZN5boost9algorithm6detail10is_any_ofFIcED2Ev>
  40742e:	48 8b 7d a0          	mov    -0x60(%rbp),%rdi
  407432:	e8 a9 bf ff ff       	callq  4033e0 <_Unwind_Resume@plt>
  407437:	66 0f 1f 84 00 00 00 	nopw   0x0(%rax,%rax,1)
  40743e:	00 00 

0000000000407440 <_ZN9__gnu_cxxeqIPcNSt7__cxx1112basic_stringIcSt11char_traitsIcESaIcEEEEEbRKNS_17__normal_iteratorIT_T0_EESD_>:
  407440:	55                   	push   %rbp
  407441:	48 89 e5             	mov    %rsp,%rbp
  407444:	48 83 ec 20          	sub    $0x20,%rsp
  407448:	48 89 7d f8          	mov    %rdi,-0x8(%rbp)
  40744c:	48 89 75 f0          	mov    %rsi,-0x10(%rbp)
  407450:	48 8b 7d f8          	mov    -0x8(%rbp),%rdi
  407454:	e8 f7 04 00 00       	callq  407950 <_ZNK9__gnu_cxx17__normal_iteratorIPcNSt7__cxx1112basic_stringIcSt11char_traitsIcESaIcEEEE4baseEv>
  407459:	48 8b 00             	mov    (%rax),%rax
  40745c:	48 8b 7d f0          	mov    -0x10(%rbp),%rdi
  407460:	48 89 45 e8          	mov    %rax,-0x18(%rbp)
  407464:	e8 e7 04 00 00       	callq  407950 <_ZNK9__gnu_cxx17__normal_iteratorIPcNSt7__cxx1112basic_stringIcSt11char_traitsIcESaIcEEEE4baseEv>
  407469:	48 8b 4d e8          	mov    -0x18(%rbp),%rcx
  40746d:	48 3b 08             	cmp    (%rax),%rcx
  407470:	0f 94 c2             	sete   %dl
  407473:	80 e2 01             	and    $0x1,%dl
  407476:	0f b6 c2             	movzbl %dl,%eax
  407479:	48 83 c4 20          	add    $0x20,%rsp
  40747d:	5d                   	pop    %rbp
  40747e:	c3                   	retq   
  40747f:	90                   	nop

0000000000407480 <_ZNK5boost9algorithm6detail10is_any_ofFIcEclIcEEbT_>:
  407480:	55                   	push   %rbp
  407481:	48 89 e5             	mov    %rsp,%rbp
  407484:	48 83 ec 30          	sub    $0x30,%rsp
  407488:	48 89 7d f8          	mov    %rdi,-0x8(%rbp)
  40748c:	40 88 75 f7          	mov    %sil,-0x9(%rbp)
  407490:	48 8b 45 f8          	mov    -0x8(%rbp),%rax
  407494:	48 8b 78 10          	mov    0x10(%rax),%rdi
  407498:	48 89 45 e0          	mov    %rax,-0x20(%rbp)
  40749c:	e8 7f d4 ff ff       	callq  404920 <_ZN5boost9algorithm6detail10is_any_ofFIcE17use_fixed_storageEm>
  4074a1:	a8 01                	test   $0x1,%al
  4074a3:	0f 85 05 00 00 00    	jne    4074ae <_ZNK5boost9algorithm6detail10is_any_ofFIcEclIcEEbT_+0x2e>
  4074a9:	e9 0d 00 00 00       	jmpq   4074bb <_ZNK5boost9algorithm6detail10is_any_ofFIcEclIcEEbT_+0x3b>
  4074ae:	48 8b 45 e0          	mov    -0x20(%rbp),%rax
  4074b2:	48 89 45 d8          	mov    %rax,-0x28(%rbp)
  4074b6:	e9 0b 00 00 00       	jmpq   4074c6 <_ZNK5boost9algorithm6detail10is_any_ofFIcEclIcEEbT_+0x46>
  4074bb:	48 8b 45 e0          	mov    -0x20(%rbp),%rax
  4074bf:	48 8b 08             	mov    (%rax),%rcx
  4074c2:	48 89 4d d8          	mov    %rcx,-0x28(%rbp)
  4074c6:	48 8b 45 d8          	mov    -0x28(%rbp),%rax
  4074ca:	48 89 45 e8          	mov    %rax,-0x18(%rbp)
  4074ce:	48 8b 7d e8          	mov    -0x18(%rbp),%rdi
  4074d2:	48 8b 45 e8          	mov    -0x18(%rbp),%rax
  4074d6:	48 8b 4d e0          	mov    -0x20(%rbp),%rcx
  4074da:	48 03 41 10          	add    0x10(%rcx),%rax
  4074de:	48 89 c6             	mov    %rax,%rsi
  4074e1:	48 8d 55 f7          	lea    -0x9(%rbp),%rdx
  4074e5:	e8 b6 04 00 00       	callq  4079a0 <_ZSt13binary_searchIPKccEbT_S2_RKT0_>
  4074ea:	24 01                	and    $0x1,%al
  4074ec:	0f b6 c0             	movzbl %al,%eax
  4074ef:	48 83 c4 30          	add    $0x30,%rsp
  4074f3:	5d                   	pop    %rbp
  4074f4:	c3                   	retq   
  4074f5:	66 2e 0f 1f 84 00 00 	nopw   %cs:0x0(%rax,%rax,1)
  4074fc:	00 00 00 
  4074ff:	90                   	nop

0000000000407500 <_ZNK9__gnu_cxx17__normal_iteratorIPcNSt7__cxx1112basic_stringIcSt11char_traitsIcESaIcEEEEdeEv>:
  407500:	55                   	push   %rbp
  407501:	48 89 e5             	mov    %rsp,%rbp
  407504:	48 89 7d f8          	mov    %rdi,-0x8(%rbp)
  407508:	48 8b 45 f8          	mov    -0x8(%rbp),%rax
  40750c:	48 8b 00             	mov    (%rax),%rax
  40750f:	5d                   	pop    %rbp
  407510:	c3                   	retq   
  407511:	66 2e 0f 1f 84 00 00 	nopw   %cs:0x0(%rax,%rax,1)
  407518:	00 00 00 
  40751b:	0f 1f 44 00 00       	nopl   0x0(%rax,%rax,1)

0000000000407520 <_ZN9__gnu_cxx17__normal_iteratorIPcNSt7__cxx1112basic_stringIcSt11char_traitsIcESaIcEEEEppEv>:
  407520:	55                   	push   %rbp
  407521:	48 89 e5             	mov    %rsp,%rbp
  407524:	48 89 7d f8          	mov    %rdi,-0x8(%rbp)
  407528:	48 8b 45 f8          	mov    -0x8(%rbp),%rax
  40752c:	48 8b 08             	mov    (%rax),%rcx
  40752f:	48 81 c1 01 00 00 00 	add    $0x1,%rcx
  407536:	48 89 08             	mov    %rcx,(%rax)
  407539:	5d                   	pop    %rbp
  40753a:	c3                   	retq   
  40753b:	0f 1f 44 00 00       	nopl   0x0(%rax,%rax,1)

0000000000407540 <_ZSt9__find_ifIN9__gnu_cxx17__normal_iteratorIPcNSt7__cxx1112basic_stringIcSt11char_traitsIcESaIcEEEEENS0_5__ops10_Iter_predIN5boost9algorithm6detail10is_any_ofFIcEEEEET_SI_SI_T0_>:
  407540:	55                   	push   %rbp
  407541:	48 89 e5             	mov    %rsp,%rbp
  407544:	48 83 ec 60          	sub    $0x60,%rsp
  407548:	48 89 7d f0          	mov    %rdi,-0x10(%rbp)
  40754c:	48 89 75 e8          	mov    %rsi,-0x18(%rbp)
  407550:	48 8b 45 f0          	mov    -0x10(%rbp),%rax
  407554:	48 89 45 e0          	mov    %rax,-0x20(%rbp)
  407558:	48 8b 45 e8          	mov    -0x18(%rbp),%rax
  40755c:	48 89 45 d8          	mov    %rax,-0x28(%rbp)
  407560:	48 8d 7d c0          	lea    -0x40(%rbp),%rdi
  407564:	48 89 d6             	mov    %rdx,%rsi
  407567:	e8 24 03 00 00       	callq  407890 <_ZN9__gnu_cxx5__ops10_Iter_predIN5boost9algorithm6detail10is_any_ofFIcEEEC2ERKS7_>
  40756c:	48 8d 7d f0          	lea    -0x10(%rbp),%rdi
  407570:	e8 4b 03 00 00       	callq  4078c0 <_ZSt19__iterator_categoryIN9__gnu_cxx17__normal_iteratorIPcNSt7__cxx1112basic_stringIcSt11char_traitsIcESaIcEEEEEENSt15iterator_traitsIT_E17iterator_categoryERKSB_>
  407575:	e9 00 00 00 00       	jmpq   40757a <_ZSt9__find_ifIN9__gnu_cxx17__normal_iteratorIPcNSt7__cxx1112basic_stringIcSt11char_traitsIcESaIcEEEEENS0_5__ops10_Iter_predIN5boost9algorithm6detail10is_any_ofFIcEEEEET_SI_SI_T0_+0x3a>
  40757a:	48 8b 7d e0          	mov    -0x20(%rbp),%rdi
  40757e:	48 8b 75 d8          	mov    -0x28(%rbp),%rsi
  407582:	48 8d 55 c0          	lea    -0x40(%rbp),%rdx
  407586:	e8 d5 00 00 00       	callq  407660 <_ZSt9__find_ifIN9__gnu_cxx17__normal_iteratorIPcNSt7__cxx1112basic_stringIcSt11char_traitsIcESaIcEEEEENS0_5__ops10_Iter_predIN5boost9algorithm6detail10is_any_ofFIcEEEEET_SI_SI_T0_St26random_access_iterator_tag>
  40758b:	48 89 45 a0          	mov    %rax,-0x60(%rbp)
  40758f:	e9 00 00 00 00       	jmpq   407594 <_ZSt9__find_ifIN9__gnu_cxx17__normal_iteratorIPcNSt7__cxx1112basic_stringIcSt11char_traitsIcESaIcEEEEENS0_5__ops10_Iter_predIN5boost9algorithm6detail10is_any_ofFIcEEEEET_SI_SI_T0_+0x54>
  407594:	48 8b 45 a0          	mov    -0x60(%rbp),%rax
  407598:	48 89 45 f8          	mov    %rax,-0x8(%rbp)
  40759c:	48 8d 7d c0          	lea    -0x40(%rbp),%rdi
  4075a0:	e8 9b 00 00 00       	callq  407640 <_ZN9__gnu_cxx5__ops10_Iter_predIN5boost9algorithm6detail10is_any_ofFIcEEED2Ev>
  4075a5:	48 8b 45 f8          	mov    -0x8(%rbp),%rax
  4075a9:	48 83 c4 60          	add    $0x60,%rsp
  4075ad:	5d                   	pop    %rbp
  4075ae:	c3                   	retq   
  4075af:	48 89 45 b0          	mov    %rax,-0x50(%rbp)
  4075b3:	89 55 ac             	mov    %edx,-0x54(%rbp)
  4075b6:	48 8d 7d c0          	lea    -0x40(%rbp),%rdi
  4075ba:	e8 81 00 00 00       	callq  407640 <_ZN9__gnu_cxx5__ops10_Iter_predIN5boost9algorithm6detail10is_any_ofFIcEEED2Ev>
  4075bf:	48 8b 7d b0          	mov    -0x50(%rbp),%rdi
  4075c3:	e8 18 be ff ff       	callq  4033e0 <_Unwind_Resume@plt>
  4075c8:	0f 1f 84 00 00 00 00 	nopl   0x0(%rax,%rax,1)
  4075cf:	00 

00000000004075d0 <_ZN9__gnu_cxx5__ops11__pred_iterIN5boost9algorithm6detail10is_any_ofFIcEEEENS0_10_Iter_predIT_EES8_>:
  4075d0:	55                   	push   %rbp
  4075d1:	48 89 e5             	mov    %rsp,%rbp
  4075d4:	48 83 ec 50          	sub    $0x50,%rsp
  4075d8:	48 89 f8             	mov    %rdi,%rax
  4075db:	48 89 7d f8          	mov    %rdi,-0x8(%rbp)
  4075df:	48 89 7d c8          	mov    %rdi,-0x38(%rbp)
  4075e3:	48 89 f7             	mov    %rsi,%rdi
  4075e6:	48 89 45 c0          	mov    %rax,-0x40(%rbp)
  4075ea:	e8 71 03 00 00       	callq  407960 <_ZSt4moveIRN5boost9algorithm6detail10is_any_ofFIcEEEONSt16remove_referenceIT_E4typeEOS7_>
  4075ef:	48 8d 4d e0          	lea    -0x20(%rbp),%rcx
  4075f3:	48 89 cf             	mov    %rcx,%rdi
  4075f6:	48 89 c6             	mov    %rax,%rsi
  4075f9:	48 89 4d b8          	mov    %rcx,-0x48(%rbp)
  4075fd:	e8 fe e7 ff ff       	callq  405e00 <_ZN5boost9algorithm6detail10is_any_ofFIcEC2ERKS3_>
  407602:	48 8b 7d c8          	mov    -0x38(%rbp),%rdi
  407606:	48 8b 75 b8          	mov    -0x48(%rbp),%rsi
  40760a:	e8 61 03 00 00       	callq  407970 <_ZN9__gnu_cxx5__ops10_Iter_predIN5boost9algorithm6detail10is_any_ofFIcEEEC2ES6_>
  40760f:	e9 00 00 00 00       	jmpq   407614 <_ZN9__gnu_cxx5__ops11__pred_iterIN5boost9algorithm6detail10is_any_ofFIcEEEENS0_10_Iter_predIT_EES8_+0x44>
  407614:	48 8d 7d e0          	lea    -0x20(%rbp),%rdi
  407618:	e8 23 c5 ff ff       	callq  403b40 <_ZN5boost9algorithm6detail10is_any_ofFIcED2Ev>
  40761d:	48 8b 45 c0          	mov    -0x40(%rbp),%rax
  407621:	48 83 c4 50          	add    $0x50,%rsp
  407625:	5d                   	pop    %rbp
  407626:	c3                   	retq   
  407627:	48 89 45 d8          	mov    %rax,-0x28(%rbp)
  40762b:	89 55 d4             	mov    %edx,-0x2c(%rbp)
  40762e:	48 8d 7d e0          	lea    -0x20(%rbp),%rdi
  407632:	e8 09 c5 ff ff       	callq  403b40 <_ZN5boost9algorithm6detail10is_any_ofFIcED2Ev>
  407637:	48 8b 7d d8          	mov    -0x28(%rbp),%rdi
  40763b:	e8 a0 bd ff ff       	callq  4033e0 <_Unwind_Resume@plt>

0000000000407640 <_ZN9__gnu_cxx5__ops10_Iter_predIN5boost9algorithm6detail10is_any_ofFIcEEED2Ev>:
  407640:	55                   	push   %rbp
  407641:	48 89 e5             	mov    %rsp,%rbp
  407644:	48 83 ec 10          	sub    $0x10,%rsp
  407648:	48 89 7d f8          	mov    %rdi,-0x8(%rbp)
  40764c:	48 8b 7d f8          	mov    -0x8(%rbp),%rdi
  407650:	e8 eb c4 ff ff       	callq  403b40 <_ZN5boost9algorithm6detail10is_any_ofFIcED2Ev>
  407655:	48 83 c4 10          	add    $0x10,%rsp
  407659:	5d                   	pop    %rbp
  40765a:	c3                   	retq   
  40765b:	0f 1f 44 00 00       	nopl   0x0(%rax,%rax,1)

0000000000407660 <_ZSt9__find_ifIN9__gnu_cxx17__normal_iteratorIPcNSt7__cxx1112basic_stringIcSt11char_traitsIcESaIcEEEEENS0_5__ops10_Iter_predIN5boost9algorithm6detail10is_any_ofFIcEEEEET_SI_SI_T0_St26random_access_iterator_tag>:
  407660:	55                   	push   %rbp
  407661:	48 89 e5             	mov    %rsp,%rbp
  407664:	48 81 ec 90 00 00 00 	sub    $0x90,%rsp
  40766b:	48 89 7d f0          	mov    %rdi,-0x10(%rbp)
  40766f:	48 89 75 e8          	mov    %rsi,-0x18(%rbp)
  407673:	48 8d 7d e8          	lea    -0x18(%rbp),%rdi
  407677:	48 8d 75 f0          	lea    -0x10(%rbp),%rsi
  40767b:	48 89 55 98          	mov    %rdx,-0x68(%rbp)
  40767f:	e8 4c 02 00 00       	callq  4078d0 <_ZN9__gnu_cxxmiIPcNSt7__cxx1112basic_stringIcSt11char_traitsIcESaIcEEEEENS_17__normal_iteratorIT_T0_E15difference_typeERKSB_SE_>
  407684:	48 c1 f8 02          	sar    $0x2,%rax
  407688:	48 89 45 d8          	mov    %rax,-0x28(%rbp)
  40768c:	48 83 7d d8 00       	cmpq   $0x0,-0x28(%rbp)
  407691:	0f 8e ff 00 00 00    	jle    407796 <_ZSt9__find_ifIN9__gnu_cxx17__normal_iteratorIPcNSt7__cxx1112basic_stringIcSt11char_traitsIcESaIcEEEEENS0_5__ops10_Iter_predIN5boost9algorithm6detail10is_any_ofFIcEEEEET_SI_SI_T0_St26random_access_iterator_tag+0x136>
  407697:	48 8b 45 f0          	mov    -0x10(%rbp),%rax
  40769b:	48 89 45 d0          	mov    %rax,-0x30(%rbp)
  40769f:	48 8b 75 d0          	mov    -0x30(%rbp),%rsi
  4076a3:	48 8b 7d 98          	mov    -0x68(%rbp),%rdi
  4076a7:	e8 64 02 00 00       	callq  407910 <_ZN9__gnu_cxx5__ops10_Iter_predIN5boost9algorithm6detail10is_any_ofFIcEEEclINS_17__normal_iteratorIPcNSt7__cxx1112basic_stringIcSt11char_traitsIcESaIcEEEEEEEbT_>
  4076ac:	a8 01                	test   $0x1,%al
  4076ae:	0f 85 05 00 00 00    	jne    4076b9 <_ZSt9__find_ifIN9__gnu_cxx17__normal_iteratorIPcNSt7__cxx1112basic_stringIcSt11char_traitsIcESaIcEEEEENS0_5__ops10_Iter_predIN5boost9algorithm6detail10is_any_ofFIcEEEEET_SI_SI_T0_St26random_access_iterator_tag+0x59>
  4076b4:	e9 0d 00 00 00       	jmpq   4076c6 <_ZSt9__find_ifIN9__gnu_cxx17__normal_iteratorIPcNSt7__cxx1112basic_stringIcSt11char_traitsIcESaIcEEEEENS0_5__ops10_Iter_predIN5boost9algorithm6detail10is_any_ofFIcEEEEET_SI_SI_T0_St26random_access_iterator_tag+0x66>
  4076b9:	48 8b 45 f0          	mov    -0x10(%rbp),%rax
  4076bd:	48 89 45 f8          	mov    %rax,-0x8(%rbp)
  4076c1:	e9 b7 01 00 00       	jmpq   40787d <_ZSt9__find_ifIN9__gnu_cxx17__normal_iteratorIPcNSt7__cxx1112basic_stringIcSt11char_traitsIcESaIcEEEEENS0_5__ops10_Iter_predIN5boost9algorithm6detail10is_any_ofFIcEEEEET_SI_SI_T0_St26random_access_iterator_tag+0x21d>
  4076c6:	48 8d 7d f0          	lea    -0x10(%rbp),%rdi
  4076ca:	e8 51 fe ff ff       	callq  407520 <_ZN9__gnu_cxx17__normal_iteratorIPcNSt7__cxx1112basic_stringIcSt11char_traitsIcESaIcEEEEppEv>
  4076cf:	48 8b 4d f0          	mov    -0x10(%rbp),%rcx
  4076d3:	48 89 4d c8          	mov    %rcx,-0x38(%rbp)
  4076d7:	48 8b 75 c8          	mov    -0x38(%rbp),%rsi
  4076db:	48 8b 7d 98          	mov    -0x68(%rbp),%rdi
  4076df:	48 89 45 90          	mov    %rax,-0x70(%rbp)
  4076e3:	e8 28 02 00 00       	callq  407910 <_ZN9__gnu_cxx5__ops10_Iter_predIN5boost9algorithm6detail10is_any_ofFIcEEEclINS_17__normal_iteratorIPcNSt7__cxx1112basic_stringIcSt11char_traitsIcESaIcEEEEEEEbT_>
  4076e8:	a8 01                	test   $0x1,%al
  4076ea:	0f 85 05 00 00 00    	jne    4076f5 <_ZSt9__find_ifIN9__gnu_cxx17__normal_iteratorIPcNSt7__cxx1112basic_stringIcSt11char_traitsIcESaIcEEEEENS0_5__ops10_Iter_predIN5boost9algorithm6detail10is_any_ofFIcEEEEET_SI_SI_T0_St26random_access_iterator_tag+0x95>
  4076f0:	e9 0d 00 00 00       	jmpq   407702 <_ZSt9__find_ifIN9__gnu_cxx17__normal_iteratorIPcNSt7__cxx1112basic_stringIcSt11char_traitsIcESaIcEEEEENS0_5__ops10_Iter_predIN5boost9algorithm6detail10is_any_ofFIcEEEEET_SI_SI_T0_St26random_access_iterator_tag+0xa2>
  4076f5:	48 8b 45 f0          	mov    -0x10(%rbp),%rax
  4076f9:	48 89 45 f8          	mov    %rax,-0x8(%rbp)
  4076fd:	e9 7b 01 00 00       	jmpq   40787d <_ZSt9__find_ifIN9__gnu_cxx17__normal_iteratorIPcNSt7__cxx1112basic_stringIcSt11char_traitsIcESaIcEEEEENS0_5__ops10_Iter_predIN5boost9algorithm6detail10is_any_ofFIcEEEEET_SI_SI_T0_St26random_access_iterator_tag+0x21d>
  407702:	48 8d 7d f0          	lea    -0x10(%rbp),%rdi
  407706:	e8 15 fe ff ff       	callq  407520 <_ZN9__gnu_cxx17__normal_iteratorIPcNSt7__cxx1112basic_stringIcSt11char_traitsIcESaIcEEEEppEv>
  40770b:	48 8b 4d f0          	mov    -0x10(%rbp),%rcx
  40770f:	48 89 4d c0          	mov    %rcx,-0x40(%rbp)
  407713:	48 8b 75 c0          	mov    -0x40(%rbp),%rsi
  407717:	48 8b 7d 98          	mov    -0x68(%rbp),%rdi
  40771b:	48 89 45 88          	mov    %rax,-0x78(%rbp)
  40771f:	e8 ec 01 00 00       	callq  407910 <_ZN9__gnu_cxx5__ops10_Iter_predIN5boost9algorithm6detail10is_any_ofFIcEEEclINS_17__normal_iteratorIPcNSt7__cxx1112basic_stringIcSt11char_traitsIcESaIcEEEEEEEbT_>
  407724:	a8 01                	test   $0x1,%al
  407726:	0f 85 05 00 00 00    	jne    407731 <_ZSt9__find_ifIN9__gnu_cxx17__normal_iteratorIPcNSt7__cxx1112basic_stringIcSt11char_traitsIcESaIcEEEEENS0_5__ops10_Iter_predIN5boost9algorithm6detail10is_any_ofFIcEEEEET_SI_SI_T0_St26random_access_iterator_tag+0xd1>
  40772c:	e9 0d 00 00 00       	jmpq   40773e <_ZSt9__find_ifIN9__gnu_cxx17__normal_iteratorIPcNSt7__cxx1112basic_stringIcSt11char_traitsIcESaIcEEEEENS0_5__ops10_Iter_predIN5boost9algorithm6detail10is_any_ofFIcEEEEET_SI_SI_T0_St26random_access_iterator_tag+0xde>
  407731:	48 8b 45 f0          	mov    -0x10(%rbp),%rax
  407735:	48 89 45 f8          	mov    %rax,-0x8(%rbp)
  407739:	e9 3f 01 00 00       	jmpq   40787d <_ZSt9__find_ifIN9__gnu_cxx17__normal_iteratorIPcNSt7__cxx1112basic_stringIcSt11char_traitsIcESaIcEEEEENS0_5__ops10_Iter_predIN5boost9algorithm6detail10is_any_ofFIcEEEEET_SI_SI_T0_St26random_access_iterator_tag+0x21d>
  40773e:	48 8d 7d f0          	lea    -0x10(%rbp),%rdi
  407742:	e8 d9 fd ff ff       	callq  407520 <_ZN9__gnu_cxx17__normal_iteratorIPcNSt7__cxx1112basic_stringIcSt11char_traitsIcESaIcEEEEppEv>
  407747:	48 8b 4d f0          	mov    -0x10(%rbp),%rcx
  40774b:	48 89 4d b8          	mov    %rcx,-0x48(%rbp)
  40774f:	48 8b 75 b8          	mov    -0x48(%rbp),%rsi
  407753:	48 8b 7d 98          	mov    -0x68(%rbp),%rdi
  407757:	48 89 45 80          	mov    %rax,-0x80(%rbp)
  40775b:	e8 b0 01 00 00       	callq  407910 <_ZN9__gnu_cxx5__ops10_Iter_predIN5boost9algorithm6detail10is_any_ofFIcEEEclINS_17__normal_iteratorIPcNSt7__cxx1112basic_stringIcSt11char_traitsIcESaIcEEEEEEEbT_>
  407760:	a8 01                	test   $0x1,%al
  407762:	0f 85 05 00 00 00    	jne    40776d <_ZSt9__find_ifIN9__gnu_cxx17__normal_iteratorIPcNSt7__cxx1112basic_stringIcSt11char_traitsIcESaIcEEEEENS0_5__ops10_Iter_predIN5boost9algorithm6detail10is_any_ofFIcEEEEET_SI_SI_T0_St26random_access_iterator_tag+0x10d>
  407768:	e9 0d 00 00 00       	jmpq   40777a <_ZSt9__find_ifIN9__gnu_cxx17__normal_iteratorIPcNSt7__cxx1112basic_stringIcSt11char_traitsIcESaIcEEEEENS0_5__ops10_Iter_predIN5boost9algorithm6detail10is_any_ofFIcEEEEET_SI_SI_T0_St26random_access_iterator_tag+0x11a>
  40776d:	48 8b 45 f0          	mov    -0x10(%rbp),%rax
  407771:	48 89 45 f8          	mov    %rax,-0x8(%rbp)
  407775:	e9 03 01 00 00       	jmpq   40787d <_ZSt9__find_ifIN9__gnu_cxx17__normal_iteratorIPcNSt7__cxx1112basic_stringIcSt11char_traitsIcESaIcEEEEENS0_5__ops10_Iter_predIN5boost9algorithm6detail10is_any_ofFIcEEEEET_SI_SI_T0_St26random_access_iterator_tag+0x21d>
  40777a:	48 8d 7d f0          	lea    -0x10(%rbp),%rdi
  40777e:	e8 9d fd ff ff       	callq  407520 <_ZN9__gnu_cxx17__normal_iteratorIPcNSt7__cxx1112basic_stringIcSt11char_traitsIcESaIcEEEEppEv>
  407783:	48 8b 45 d8          	mov    -0x28(%rbp),%rax
  407787:	48 05 ff ff ff ff    	add    $0xffffffffffffffff,%rax
  40778d:	48 89 45 d8          	mov    %rax,-0x28(%rbp)
  407791:	e9 f6 fe ff ff       	jmpq   40768c <_ZSt9__find_ifIN9__gnu_cxx17__normal_iteratorIPcNSt7__cxx1112basic_stringIcSt11char_traitsIcESaIcEEEEENS0_5__ops10_Iter_predIN5boost9algorithm6detail10is_any_ofFIcEEEEET_SI_SI_T0_St26random_access_iterator_tag+0x2c>
  407796:	48 8d 7d e8          	lea    -0x18(%rbp),%rdi
  40779a:	48 8d 75 f0          	lea    -0x10(%rbp),%rsi
  40779e:	e8 2d 01 00 00       	callq  4078d0 <_ZN9__gnu_cxxmiIPcNSt7__cxx1112basic_stringIcSt11char_traitsIcESaIcEEEEENS_17__normal_iteratorIT_T0_E15difference_typeERKSB_SE_>
  4077a3:	48 89 c1             	mov    %rax,%rcx
  4077a6:	48 83 e8 03          	sub    $0x3,%rax
  4077aa:	48 89 8d 78 ff ff ff 	mov    %rcx,-0x88(%rbp)
  4077b1:	0f 87 be 00 00 00    	ja     407875 <_ZSt9__find_ifIN9__gnu_cxx17__normal_iteratorIPcNSt7__cxx1112basic_stringIcSt11char_traitsIcESaIcEEEEENS0_5__ops10_Iter_predIN5boost9algorithm6detail10is_any_ofFIcEEEEET_SI_SI_T0_St26random_access_iterator_tag+0x215>
  4077b7:	48 8b 85 78 ff ff ff 	mov    -0x88(%rbp),%rax
  4077be:	48 8b 0c c5 08 e0 40 	mov    0x40e008(,%rax,8),%rcx
  4077c5:	00 
  4077c6:	ff e1                	jmpq   *%rcx
  4077c8:	48 8b 45 f0          	mov    -0x10(%rbp),%rax
  4077cc:	48 89 45 b0          	mov    %rax,-0x50(%rbp)
  4077d0:	48 8b 75 b0          	mov    -0x50(%rbp),%rsi
  4077d4:	48 8b 7d 98          	mov    -0x68(%rbp),%rdi
  4077d8:	e8 33 01 00 00       	callq  407910 <_ZN9__gnu_cxx5__ops10_Iter_predIN5boost9algorithm6detail10is_any_ofFIcEEEclINS_17__normal_iteratorIPcNSt7__cxx1112basic_stringIcSt11char_traitsIcESaIcEEEEEEEbT_>
  4077dd:	a8 01                	test   $0x1,%al
  4077df:	0f 85 05 00 00 00    	jne    4077ea <_ZSt9__find_ifIN9__gnu_cxx17__normal_iteratorIPcNSt7__cxx1112basic_stringIcSt11char_traitsIcESaIcEEEEENS0_5__ops10_Iter_predIN5boost9algorithm6detail10is_any_ofFIcEEEEET_SI_SI_T0_St26random_access_iterator_tag+0x18a>
  4077e5:	e9 0d 00 00 00       	jmpq   4077f7 <_ZSt9__find_ifIN9__gnu_cxx17__normal_iteratorIPcNSt7__cxx1112basic_stringIcSt11char_traitsIcESaIcEEEEENS0_5__ops10_Iter_predIN5boost9algorithm6detail10is_any_ofFIcEEEEET_SI_SI_T0_St26random_access_iterator_tag+0x197>
  4077ea:	48 8b 45 f0          	mov    -0x10(%rbp),%rax
  4077ee:	48 89 45 f8          	mov    %rax,-0x8(%rbp)
  4077f2:	e9 86 00 00 00       	jmpq   40787d <_ZSt9__find_ifIN9__gnu_cxx17__normal_iteratorIPcNSt7__cxx1112basic_stringIcSt11char_traitsIcESaIcEEEEENS0_5__ops10_Iter_predIN5boost9algorithm6detail10is_any_ofFIcEEEEET_SI_SI_T0_St26random_access_iterator_tag+0x21d>
  4077f7:	48 8d 7d f0          	lea    -0x10(%rbp),%rdi
  4077fb:	e8 20 fd ff ff       	callq  407520 <_ZN9__gnu_cxx17__normal_iteratorIPcNSt7__cxx1112basic_stringIcSt11char_traitsIcESaIcEEEEppEv>
  407800:	48 8b 45 f0          	mov    -0x10(%rbp),%rax
  407804:	48 89 45 a8          	mov    %rax,-0x58(%rbp)
  407808:	48 8b 75 a8          	mov    -0x58(%rbp),%rsi
  40780c:	48 8b 7d 98          	mov    -0x68(%rbp),%rdi
  407810:	e8 fb 00 00 00       	callq  407910 <_ZN9__gnu_cxx5__ops10_Iter_predIN5boost9algorithm6detail10is_any_ofFIcEEEclINS_17__normal_iteratorIPcNSt7__cxx1112basic_stringIcSt11char_traitsIcESaIcEEEEEEEbT_>
  407815:	a8 01                	test   $0x1,%al
  407817:	0f 85 05 00 00 00    	jne    407822 <_ZSt9__find_ifIN9__gnu_cxx17__normal_iteratorIPcNSt7__cxx1112basic_stringIcSt11char_traitsIcESaIcEEEEENS0_5__ops10_Iter_predIN5boost9algorithm6detail10is_any_ofFIcEEEEET_SI_SI_T0_St26random_access_iterator_tag+0x1c2>
  40781d:	e9 0d 00 00 00       	jmpq   40782f <_ZSt9__find_ifIN9__gnu_cxx17__normal_iteratorIPcNSt7__cxx1112basic_stringIcSt11char_traitsIcESaIcEEEEENS0_5__ops10_Iter_predIN5boost9algorithm6detail10is_any_ofFIcEEEEET_SI_SI_T0_St26random_access_iterator_tag+0x1cf>
  407822:	48 8b 45 f0          	mov    -0x10(%rbp),%rax
  407826:	48 89 45 f8          	mov    %rax,-0x8(%rbp)
  40782a:	e9 4e 00 00 00       	jmpq   40787d <_ZSt9__find_ifIN9__gnu_cxx17__normal_iteratorIPcNSt7__cxx1112basic_stringIcSt11char_traitsIcESaIcEEEEENS0_5__ops10_Iter_predIN5boost9algorithm6detail10is_any_ofFIcEEEEET_SI_SI_T0_St26random_access_iterator_tag+0x21d>
  40782f:	48 8d 7d f0          	lea    -0x10(%rbp),%rdi
  407833:	e8 e8 fc ff ff       	callq  407520 <_ZN9__gnu_cxx17__normal_iteratorIPcNSt7__cxx1112basic_stringIcSt11char_traitsIcESaIcEEEEppEv>
  407838:	48 8b 45 f0          	mov    -0x10(%rbp),%rax
  40783c:	48 89 45 a0          	mov    %rax,-0x60(%rbp)
  407840:	48 8b 75 a0          	mov    -0x60(%rbp),%rsi
  407844:	48 8b 7d 98          	mov    -0x68(%rbp),%rdi
  407848:	e8 c3 00 00 00       	callq  407910 <_ZN9__gnu_cxx5__ops10_Iter_predIN5boost9algorithm6detail10is_any_ofFIcEEEclINS_17__normal_iteratorIPcNSt7__cxx1112basic_stringIcSt11char_traitsIcESaIcEEEEEEEbT_>
  40784d:	a8 01                	test   $0x1,%al
  40784f:	0f 85 05 00 00 00    	jne    40785a <_ZSt9__find_ifIN9__gnu_cxx17__normal_iteratorIPcNSt7__cxx1112basic_stringIcSt11char_traitsIcESaIcEEEEENS0_5__ops10_Iter_predIN5boost9algorithm6detail10is_any_ofFIcEEEEET_SI_SI_T0_St26random_access_iterator_tag+0x1fa>
  407855:	e9 0d 00 00 00       	jmpq   407867 <_ZSt9__find_ifIN9__gnu_cxx17__normal_iteratorIPcNSt7__cxx1112basic_stringIcSt11char_traitsIcESaIcEEEEENS0_5__ops10_Iter_predIN5boost9algorithm6detail10is_any_ofFIcEEEEET_SI_SI_T0_St26random_access_iterator_tag+0x207>
  40785a:	48 8b 45 f0          	mov    -0x10(%rbp),%rax
  40785e:	48 89 45 f8          	mov    %rax,-0x8(%rbp)
  407862:	e9 16 00 00 00       	jmpq   40787d <_ZSt9__find_ifIN9__gnu_cxx17__normal_iteratorIPcNSt7__cxx1112basic_stringIcSt11char_traitsIcESaIcEEEEENS0_5__ops10_Iter_predIN5boost9algorithm6detail10is_any_ofFIcEEEEET_SI_SI_T0_St26random_access_iterator_tag+0x21d>
  407867:	48 8d 7d f0          	lea    -0x10(%rbp),%rdi
  40786b:	e8 b0 fc ff ff       	callq  407520 <_ZN9__gnu_cxx17__normal_iteratorIPcNSt7__cxx1112basic_stringIcSt11char_traitsIcESaIcEEEEppEv>
  407870:	e9 00 00 00 00       	jmpq   407875 <_ZSt9__find_ifIN9__gnu_cxx17__normal_iteratorIPcNSt7__cxx1112basic_stringIcSt11char_traitsIcESaIcEEEEENS0_5__ops10_Iter_predIN5boost9algorithm6detail10is_any_ofFIcEEEEET_SI_SI_T0_St26random_access_iterator_tag+0x215>
  407875:	48 8b 45 e8          	mov    -0x18(%rbp),%rax
  407879:	48 89 45 f8          	mov    %rax,-0x8(%rbp)
  40787d:	48 8b 45 f8          	mov    -0x8(%rbp),%rax
  407881:	48 81 c4 90 00 00 00 	add    $0x90,%rsp
  407888:	5d                   	pop    %rbp
  407889:	c3                   	retq   
  40788a:	66 0f 1f 44 00 00    	nopw   0x0(%rax,%rax,1)

0000000000407890 <_ZN9__gnu_cxx5__ops10_Iter_predIN5boost9algorithm6detail10is_any_ofFIcEEEC2ERKS7_>:
  407890:	55                   	push   %rbp
  407891:	48 89 e5             	mov    %rsp,%rbp
  407894:	48 83 ec 10          	sub    $0x10,%rsp
  407898:	48 89 7d f8          	mov    %rdi,-0x8(%rbp)
  40789c:	48 89 75 f0          	mov    %rsi,-0x10(%rbp)
  4078a0:	48 8b 7d f8          	mov    -0x8(%rbp),%rdi
  4078a4:	48 8b 75 f0          	mov    -0x10(%rbp),%rsi
  4078a8:	e8 53 e5 ff ff       	callq  405e00 <_ZN5boost9algorithm6detail10is_any_ofFIcEC2ERKS3_>
  4078ad:	48 83 c4 10          	add    $0x10,%rsp
  4078b1:	5d                   	pop    %rbp
  4078b2:	c3                   	retq   
  4078b3:	66 2e 0f 1f 84 00 00 	nopw   %cs:0x0(%rax,%rax,1)
  4078ba:	00 00 00 
  4078bd:	0f 1f 00             	nopl   (%rax)

00000000004078c0 <_ZSt19__iterator_categoryIN9__gnu_cxx17__normal_iteratorIPcNSt7__cxx1112basic_stringIcSt11char_traitsIcESaIcEEEEEENSt15iterator_traitsIT_E17iterator_categoryERKSB_>:
  4078c0:	55                   	push   %rbp
  4078c1:	48 89 e5             	mov    %rsp,%rbp
  4078c4:	48 89 7d f8          	mov    %rdi,-0x8(%rbp)
  4078c8:	5d                   	pop    %rbp
  4078c9:	c3                   	retq   
  4078ca:	66 0f 1f 44 00 00    	nopw   0x0(%rax,%rax,1)

00000000004078d0 <_ZN9__gnu_cxxmiIPcNSt7__cxx1112basic_stringIcSt11char_traitsIcESaIcEEEEENS_17__normal_iteratorIT_T0_E15difference_typeERKSB_SE_>:
  4078d0:	55                   	push   %rbp
  4078d1:	48 89 e5             	mov    %rsp,%rbp
  4078d4:	48 83 ec 20          	sub    $0x20,%rsp
  4078d8:	48 89 7d f8          	mov    %rdi,-0x8(%rbp)
  4078dc:	48 89 75 f0          	mov    %rsi,-0x10(%rbp)
  4078e0:	48 8b 7d f8          	mov    -0x8(%rbp),%rdi
  4078e4:	e8 67 00 00 00       	callq  407950 <_ZNK9__gnu_cxx17__normal_iteratorIPcNSt7__cxx1112basic_stringIcSt11char_traitsIcESaIcEEEE4baseEv>
  4078e9:	48 8b 00             	mov    (%rax),%rax
  4078ec:	48 8b 7d f0          	mov    -0x10(%rbp),%rdi
  4078f0:	48 89 45 e8          	mov    %rax,-0x18(%rbp)
  4078f4:	e8 57 00 00 00       	callq  407950 <_ZNK9__gnu_cxx17__normal_iteratorIPcNSt7__cxx1112basic_stringIcSt11char_traitsIcESaIcEEEE4baseEv>
  4078f9:	48 8b 00             	mov    (%rax),%rax
  4078fc:	48 8b 4d e8          	mov    -0x18(%rbp),%rcx
  407900:	48 29 c1             	sub    %rax,%rcx
  407903:	48 89 c8             	mov    %rcx,%rax
  407906:	48 83 c4 20          	add    $0x20,%rsp
  40790a:	5d                   	pop    %rbp
  40790b:	c3                   	retq   
  40790c:	0f 1f 40 00          	nopl   0x0(%rax)

0000000000407910 <_ZN9__gnu_cxx5__ops10_Iter_predIN5boost9algorithm6detail10is_any_ofFIcEEEclINS_17__normal_iteratorIPcNSt7__cxx1112basic_stringIcSt11char_traitsIcESaIcEEEEEEEbT_>:
  407910:	55                   	push   %rbp
  407911:	48 89 e5             	mov    %rsp,%rbp
  407914:	48 83 ec 20          	sub    $0x20,%rsp
  407918:	48 89 75 f8          	mov    %rsi,-0x8(%rbp)
  40791c:	48 89 7d f0          	mov    %rdi,-0x10(%rbp)
  407920:	48 8b 7d f0          	mov    -0x10(%rbp),%rdi
  407924:	48 8d 45 f8          	lea    -0x8(%rbp),%rax
  407928:	48 89 7d e8          	mov    %rdi,-0x18(%rbp)
  40792c:	48 89 c7             	mov    %rax,%rdi
  40792f:	e8 cc fb ff ff       	callq  407500 <_ZNK9__gnu_cxx17__normal_iteratorIPcNSt7__cxx1112basic_stringIcSt11char_traitsIcESaIcEEEEdeEv>
  407934:	48 8b 7d e8          	mov    -0x18(%rbp),%rdi
  407938:	0f be 30             	movsbl (%rax),%esi
  40793b:	e8 40 fb ff ff       	callq  407480 <_ZNK5boost9algorithm6detail10is_any_ofFIcEclIcEEbT_>
  407940:	24 01                	and    $0x1,%al
  407942:	0f b6 c0             	movzbl %al,%eax
  407945:	48 83 c4 20          	add    $0x20,%rsp
  407949:	5d                   	pop    %rbp
  40794a:	c3                   	retq   
  40794b:	0f 1f 44 00 00       	nopl   0x0(%rax,%rax,1)

0000000000407950 <_ZNK9__gnu_cxx17__normal_iteratorIPcNSt7__cxx1112basic_stringIcSt11char_traitsIcESaIcEEEE4baseEv>:
  407950:	55                   	push   %rbp
  407951:	48 89 e5             	mov    %rsp,%rbp
  407954:	48 89 7d f8          	mov    %rdi,-0x8(%rbp)
  407958:	48 8b 45 f8          	mov    -0x8(%rbp),%rax
  40795c:	5d                   	pop    %rbp
  40795d:	c3                   	retq   
  40795e:	66 90                	xchg   %ax,%ax

0000000000407960 <_ZSt4moveIRN5boost9algorithm6detail10is_any_ofFIcEEEONSt16remove_referenceIT_E4typeEOS7_>:
  407960:	55                   	push   %rbp
  407961:	48 89 e5             	mov    %rsp,%rbp
  407964:	48 89 7d f8          	mov    %rdi,-0x8(%rbp)
  407968:	48 8b 45 f8          	mov    -0x8(%rbp),%rax
  40796c:	5d                   	pop    %rbp
  40796d:	c3                   	retq   
  40796e:	66 90                	xchg   %ax,%ax

0000000000407970 <_ZN9__gnu_cxx5__ops10_Iter_predIN5boost9algorithm6detail10is_any_ofFIcEEEC2ES6_>:
  407970:	55                   	push   %rbp
  407971:	48 89 e5             	mov    %rsp,%rbp
  407974:	48 83 ec 10          	sub    $0x10,%rsp
  407978:	48 89 7d f8          	mov    %rdi,-0x8(%rbp)
  40797c:	48 8b 7d f8          	mov    -0x8(%rbp),%rdi
  407980:	48 89 7d f0          	mov    %rdi,-0x10(%rbp)
  407984:	48 89 f7             	mov    %rsi,%rdi
  407987:	e8 d4 ff ff ff       	callq  407960 <_ZSt4moveIRN5boost9algorithm6detail10is_any_ofFIcEEEONSt16remove_referenceIT_E4typeEOS7_>
  40798c:	48 8b 7d f0          	mov    -0x10(%rbp),%rdi
  407990:	48 89 c6             	mov    %rax,%rsi
  407993:	e8 68 e4 ff ff       	callq  405e00 <_ZN5boost9algorithm6detail10is_any_ofFIcEC2ERKS3_>
  407998:	48 83 c4 10          	add    $0x10,%rsp
  40799c:	5d                   	pop    %rbp
  40799d:	c3                   	retq   
  40799e:	66 90                	xchg   %ax,%ax

00000000004079a0 <_ZSt13binary_searchIPKccEbT_S2_RKT0_>:
  4079a0:	55                   	push   %rbp
  4079a1:	48 89 e5             	mov    %rsp,%rbp
  4079a4:	48 83 ec 50          	sub    $0x50,%rsp
  4079a8:	48 89 7d f8          	mov    %rdi,-0x8(%rbp)
  4079ac:	48 89 75 f0          	mov    %rsi,-0x10(%rbp)
  4079b0:	48 89 55 e8          	mov    %rdx,-0x18(%rbp)
  4079b4:	48 8b 7d f8          	mov    -0x8(%rbp),%rdi
  4079b8:	48 8b 75 f0          	mov    -0x10(%rbp),%rsi
  4079bc:	48 8b 55 e8          	mov    -0x18(%rbp),%rdx
  4079c0:	48 89 7d c8          	mov    %rdi,-0x38(%rbp)
  4079c4:	48 89 75 c0          	mov    %rsi,-0x40(%rbp)
  4079c8:	48 89 55 b8          	mov    %rdx,-0x48(%rbp)
  4079cc:	e8 1f 01 00 00       	callq  407af0 <_ZN9__gnu_cxx5__ops15__iter_less_valEv>
  4079d1:	48 8b 7d c8          	mov    -0x38(%rbp),%rdi
  4079d5:	48 8b 75 c0          	mov    -0x40(%rbp),%rsi
  4079d9:	48 8b 55 b8          	mov    -0x48(%rbp),%rdx
  4079dd:	e8 4e 00 00 00       	callq  407a30 <_ZSt13__lower_boundIPKccN9__gnu_cxx5__ops14_Iter_less_valEET_S5_S5_RKT0_T1_>
  4079e2:	31 c9                	xor    %ecx,%ecx
  4079e4:	48 89 45 e0          	mov    %rax,-0x20(%rbp)
  4079e8:	48 8b 45 e0          	mov    -0x20(%rbp),%rax
  4079ec:	48 3b 45 f0          	cmp    -0x10(%rbp),%rax
  4079f0:	88 4d b7             	mov    %cl,-0x49(%rbp)
  4079f3:	0f 84 1c 00 00 00    	je     407a15 <_ZSt13binary_searchIPKccEbT_S2_RKT0_+0x75>
  4079f9:	48 8b 45 e8          	mov    -0x18(%rbp),%rax
  4079fd:	0f be 08             	movsbl (%rax),%ecx
  407a00:	48 8b 45 e0          	mov    -0x20(%rbp),%rax
  407a04:	0f be 10             	movsbl (%rax),%edx
  407a07:	39 d1                	cmp    %edx,%ecx
  407a09:	40 0f 9c c6          	setl   %sil
  407a0d:	40 80 f6 ff          	xor    $0xff,%sil
  407a11:	40 88 75 b7          	mov    %sil,-0x49(%rbp)
  407a15:	8a 45 b7             	mov    -0x49(%rbp),%al
  407a18:	24 01                	and    $0x1,%al
  407a1a:	0f b6 c0             	movzbl %al,%eax
  407a1d:	48 83 c4 50          	add    $0x50,%rsp
  407a21:	5d                   	pop    %rbp
  407a22:	c3                   	retq   
  407a23:	66 2e 0f 1f 84 00 00 	nopw   %cs:0x0(%rax,%rax,1)
  407a2a:	00 00 00 
  407a2d:	0f 1f 00             	nopl   (%rax)

0000000000407a30 <_ZSt13__lower_boundIPKccN9__gnu_cxx5__ops14_Iter_less_valEET_S5_S5_RKT0_T1_>:
  407a30:	55                   	push   %rbp
  407a31:	48 89 e5             	mov    %rsp,%rbp
  407a34:	48 83 ec 40          	sub    $0x40,%rsp
  407a38:	48 89 7d f0          	mov    %rdi,-0x10(%rbp)
  407a3c:	48 89 75 e8          	mov    %rsi,-0x18(%rbp)
  407a40:	48 89 55 e0          	mov    %rdx,-0x20(%rbp)
  407a44:	48 8b 7d f0          	mov    -0x10(%rbp),%rdi
  407a48:	48 8b 75 e8          	mov    -0x18(%rbp),%rsi
  407a4c:	e8 af 00 00 00       	callq  407b00 <_ZSt8distanceIPKcENSt15iterator_traitsIT_E15difference_typeES3_S3_>
  407a51:	48 89 45 d8          	mov    %rax,-0x28(%rbp)
  407a55:	48 83 7d d8 00       	cmpq   $0x0,-0x28(%rbp)
  407a5a:	0f 8e 79 00 00 00    	jle    407ad9 <_ZSt13__lower_boundIPKccN9__gnu_cxx5__ops14_Iter_less_valEET_S5_S5_RKT0_T1_+0xa9>
  407a60:	48 8b 45 d8          	mov    -0x28(%rbp),%rax
  407a64:	48 c1 f8 01          	sar    $0x1,%rax
  407a68:	48 89 45 d0          	mov    %rax,-0x30(%rbp)
  407a6c:	48 8b 45 f0          	mov    -0x10(%rbp),%rax
  407a70:	48 89 45 c8          	mov    %rax,-0x38(%rbp)
  407a74:	48 8b 75 d0          	mov    -0x30(%rbp),%rsi
  407a78:	48 8d 7d c8          	lea    -0x38(%rbp),%rdi
  407a7c:	e8 bf 00 00 00       	callq  407b40 <_ZSt7advanceIPKclEvRT_T0_>
  407a81:	48 8b 75 c8          	mov    -0x38(%rbp),%rsi
  407a85:	48 8b 55 e0          	mov    -0x20(%rbp),%rdx
  407a89:	48 8d 7d f8          	lea    -0x8(%rbp),%rdi
  407a8d:	e8 fe 00 00 00       	callq  407b90 <_ZNK9__gnu_cxx5__ops14_Iter_less_valclIPKcS3_EEbT_RT0_>
  407a92:	a8 01                	test   $0x1,%al
  407a94:	0f 85 05 00 00 00    	jne    407a9f <_ZSt13__lower_boundIPKccN9__gnu_cxx5__ops14_Iter_less_valEET_S5_S5_RKT0_T1_+0x6f>
  407a9a:	e9 2d 00 00 00       	jmpq   407acc <_ZSt13__lower_boundIPKccN9__gnu_cxx5__ops14_Iter_less_valEET_S5_S5_RKT0_T1_+0x9c>
  407a9f:	48 8b 45 c8          	mov    -0x38(%rbp),%rax
  407aa3:	48 89 45 f0          	mov    %rax,-0x10(%rbp)
  407aa7:	48 8b 45 f0          	mov    -0x10(%rbp),%rax
  407aab:	48 05 01 00 00 00    	add    $0x1,%rax
  407ab1:	48 89 45 f0          	mov    %rax,-0x10(%rbp)
  407ab5:	48 8b 45 d8          	mov    -0x28(%rbp),%rax
  407ab9:	48 2b 45 d0          	sub    -0x30(%rbp),%rax
  407abd:	48 2d 01 00 00 00    	sub    $0x1,%rax
  407ac3:	48 89 45 d8          	mov    %rax,-0x28(%rbp)
  407ac7:	e9 08 00 00 00       	jmpq   407ad4 <_ZSt13__lower_boundIPKccN9__gnu_cxx5__ops14_Iter_less_valEET_S5_S5_RKT0_T1_+0xa4>
  407acc:	48 8b 45 d0          	mov    -0x30(%rbp),%rax
  407ad0:	48 89 45 d8          	mov    %rax,-0x28(%rbp)
  407ad4:	e9 7c ff ff ff       	jmpq   407a55 <_ZSt13__lower_boundIPKccN9__gnu_cxx5__ops14_Iter_less_valEET_S5_S5_RKT0_T1_+0x25>
  407ad9:	48 8b 45 f0          	mov    -0x10(%rbp),%rax
  407add:	48 83 c4 40          	add    $0x40,%rsp
  407ae1:	5d                   	pop    %rbp
  407ae2:	c3                   	retq   
  407ae3:	66 2e 0f 1f 84 00 00 	nopw   %cs:0x0(%rax,%rax,1)
  407aea:	00 00 00 
  407aed:	0f 1f 00             	nopl   (%rax)

0000000000407af0 <_ZN9__gnu_cxx5__ops15__iter_less_valEv>:
  407af0:	55                   	push   %rbp
  407af1:	48 89 e5             	mov    %rsp,%rbp
  407af4:	5d                   	pop    %rbp
  407af5:	c3                   	retq   
  407af6:	66 2e 0f 1f 84 00 00 	nopw   %cs:0x0(%rax,%rax,1)
  407afd:	00 00 00 

0000000000407b00 <_ZSt8distanceIPKcENSt15iterator_traitsIT_E15difference_typeES3_S3_>:
  407b00:	55                   	push   %rbp
  407b01:	48 89 e5             	mov    %rsp,%rbp
  407b04:	48 83 ec 30          	sub    $0x30,%rsp
  407b08:	48 89 7d f8          	mov    %rdi,-0x8(%rbp)
  407b0c:	48 89 75 f0          	mov    %rsi,-0x10(%rbp)
  407b10:	48 8b 7d f8          	mov    -0x8(%rbp),%rdi
  407b14:	48 8b 75 f0          	mov    -0x10(%rbp),%rsi
  407b18:	48 8d 45 f8          	lea    -0x8(%rbp),%rax
  407b1c:	48 89 7d d8          	mov    %rdi,-0x28(%rbp)
  407b20:	48 89 c7             	mov    %rax,%rdi
  407b23:	48 89 75 d0          	mov    %rsi,-0x30(%rbp)
  407b27:	e8 b4 00 00 00       	callq  407be0 <_ZSt19__iterator_categoryIPKcENSt15iterator_traitsIT_E17iterator_categoryERKS3_>
  407b2c:	48 8b 7d d8          	mov    -0x28(%rbp),%rdi
  407b30:	48 8b 75 d0          	mov    -0x30(%rbp),%rsi
  407b34:	e8 87 00 00 00       	callq  407bc0 <_ZSt10__distanceIPKcENSt15iterator_traitsIT_E15difference_typeES3_S3_St26random_access_iterator_tag>
  407b39:	48 83 c4 30          	add    $0x30,%rsp
  407b3d:	5d                   	pop    %rbp
  407b3e:	c3                   	retq   
  407b3f:	90                   	nop

0000000000407b40 <_ZSt7advanceIPKclEvRT_T0_>:
  407b40:	55                   	push   %rbp
  407b41:	48 89 e5             	mov    %rsp,%rbp
  407b44:	48 83 ec 40          	sub    $0x40,%rsp
  407b48:	48 89 7d f8          	mov    %rdi,-0x8(%rbp)
  407b4c:	48 89 75 f0          	mov    %rsi,-0x10(%rbp)
  407b50:	48 8b 45 f0          	mov    -0x10(%rbp),%rax
  407b54:	48 89 45 e8          	mov    %rax,-0x18(%rbp)
  407b58:	48 8b 7d f8          	mov    -0x8(%rbp),%rdi
  407b5c:	48 8b 75 e8          	mov    -0x18(%rbp),%rsi
  407b60:	48 8b 45 f8          	mov    -0x8(%rbp),%rax
  407b64:	48 89 7d d0          	mov    %rdi,-0x30(%rbp)
  407b68:	48 89 c7             	mov    %rax,%rdi
  407b6b:	48 89 75 c8          	mov    %rsi,-0x38(%rbp)
  407b6f:	e8 6c 00 00 00       	callq  407be0 <_ZSt19__iterator_categoryIPKcENSt15iterator_traitsIT_E17iterator_categoryERKS3_>
  407b74:	48 8b 7d d0          	mov    -0x30(%rbp),%rdi
  407b78:	48 8b 75 c8          	mov    -0x38(%rbp),%rsi
  407b7c:	e8 6f 00 00 00       	callq  407bf0 <_ZSt9__advanceIPKclEvRT_T0_St26random_access_iterator_tag>
  407b81:	48 83 c4 40          	add    $0x40,%rsp
  407b85:	5d                   	pop    %rbp
  407b86:	c3                   	retq   
  407b87:	66 0f 1f 84 00 00 00 	nopw   0x0(%rax,%rax,1)
  407b8e:	00 00 

0000000000407b90 <_ZNK9__gnu_cxx5__ops14_Iter_less_valclIPKcS3_EEbT_RT0_>:
  407b90:	55                   	push   %rbp
  407b91:	48 89 e5             	mov    %rsp,%rbp
  407b94:	48 89 7d f8          	mov    %rdi,-0x8(%rbp)
  407b98:	48 89 75 f0          	mov    %rsi,-0x10(%rbp)
  407b9c:	48 89 55 e8          	mov    %rdx,-0x18(%rbp)
  407ba0:	48 8b 45 f0          	mov    -0x10(%rbp),%rax
  407ba4:	0f be 08             	movsbl (%rax),%ecx
  407ba7:	48 8b 45 e8          	mov    -0x18(%rbp),%rax
  407bab:	44 0f be 00          	movsbl (%rax),%r8d
  407baf:	44 39 c1             	cmp    %r8d,%ecx
  407bb2:	41 0f 9c c1          	setl   %r9b
  407bb6:	41 80 e1 01          	and    $0x1,%r9b
  407bba:	41 0f b6 c1          	movzbl %r9b,%eax
  407bbe:	5d                   	pop    %rbp
  407bbf:	c3                   	retq   

0000000000407bc0 <_ZSt10__distanceIPKcENSt15iterator_traitsIT_E15difference_typeES3_S3_St26random_access_iterator_tag>:
  407bc0:	55                   	push   %rbp
  407bc1:	48 89 e5             	mov    %rsp,%rbp
  407bc4:	48 89 7d f0          	mov    %rdi,-0x10(%rbp)
  407bc8:	48 89 75 e8          	mov    %rsi,-0x18(%rbp)
  407bcc:	48 8b 45 e8          	mov    -0x18(%rbp),%rax
  407bd0:	48 8b 4d f0          	mov    -0x10(%rbp),%rcx
  407bd4:	48 29 c8             	sub    %rcx,%rax
  407bd7:	5d                   	pop    %rbp
  407bd8:	c3                   	retq   
  407bd9:	0f 1f 80 00 00 00 00 	nopl   0x0(%rax)

0000000000407be0 <_ZSt19__iterator_categoryIPKcENSt15iterator_traitsIT_E17iterator_categoryERKS3_>:
  407be0:	55                   	push   %rbp
  407be1:	48 89 e5             	mov    %rsp,%rbp
  407be4:	48 89 7d f8          	mov    %rdi,-0x8(%rbp)
  407be8:	5d                   	pop    %rbp
  407be9:	c3                   	retq   
  407bea:	66 0f 1f 44 00 00    	nopw   0x0(%rax,%rax,1)

0000000000407bf0 <_ZSt9__advanceIPKclEvRT_T0_St26random_access_iterator_tag>:
  407bf0:	55                   	push   %rbp
  407bf1:	48 89 e5             	mov    %rsp,%rbp
  407bf4:	48 89 7d f0          	mov    %rdi,-0x10(%rbp)
  407bf8:	48 89 75 e8          	mov    %rsi,-0x18(%rbp)
  407bfc:	48 8b 45 e8          	mov    -0x18(%rbp),%rax
  407c00:	48 8b 4d f0          	mov    -0x10(%rbp),%rcx
  407c04:	48 03 01             	add    (%rcx),%rax
  407c07:	48 89 01             	mov    %rax,(%rcx)
  407c0a:	e9 00 00 00 00       	jmpq   407c0f <_ZSt9__advanceIPKclEvRT_T0_St26random_access_iterator_tag+0x1f>
  407c0f:	5d                   	pop    %rbp
  407c10:	c3                   	retq   
  407c11:	66 2e 0f 1f 84 00 00 	nopw   %cs:0x0(%rax,%rax,1)
  407c18:	00 00 00 
  407c1b:	0f 1f 44 00 00       	nopl   0x0(%rax,%rax,1)

0000000000407c20 <_ZNK5boost6detail8function13basic_vtable2INS_14iterator_rangeIN9__gnu_cxx17__normal_iteratorIPcNSt7__cxx1112basic_stringIcSt11char_traitsIcESaIcEEEEEEESD_SD_E9assign_toINS_9algorithm6detail13token_finderFINSI_10is_any_ofFIcEEEEEEbT_RNS1_15function_bufferENS1_16function_obj_tagE>:
  407c20:	55                   	push   %rbp
  407c21:	48 89 e5             	mov    %rsp,%rbp
  407c24:	48 83 ec 70          	sub    $0x70,%rsp
  407c28:	48 89 7d f0          	mov    %rdi,-0x10(%rbp)
  407c2c:	48 89 55 e8          	mov    %rdx,-0x18(%rbp)
  407c30:	48 8b 7d f0          	mov    -0x10(%rbp),%rdi
  407c34:	48 89 7d a8          	mov    %rdi,-0x58(%rbp)
  407c38:	48 89 f7             	mov    %rsi,%rdi
  407c3b:	48 89 75 a0          	mov    %rsi,-0x60(%rbp)
  407c3f:	e8 9c 00 00 00       	callq  407ce0 <_ZN5boost9addressofINS_9algorithm6detail13token_finderFINS2_10is_any_ofFIcEEEEEEPT_RS7_>
  407c44:	48 89 c7             	mov    %rax,%rdi
  407c47:	b0 00                	mov    $0x0,%al
  407c49:	e8 82 00 00 00       	callq  407cd0 <_ZN5boost6detail8function16has_empty_targetEz>
  407c4e:	a8 01                	test   $0x1,%al
  407c50:	0f 85 51 00 00 00    	jne    407ca7 <_ZNK5boost6detail8function13basic_vtable2INS_14iterator_rangeIN9__gnu_cxx17__normal_iteratorIPcNSt7__cxx1112basic_stringIcSt11char_traitsIcESaIcEEEEEEESD_SD_E9assign_toINS_9algorithm6detail13token_finderFINSI_10is_any_ofFIcEEEEEEbT_RNS1_15function_bufferENS1_16function_obj_tagE+0x87>
  407c56:	48 8d 45 c8          	lea    -0x38(%rbp),%rax
  407c5a:	48 89 c7             	mov    %rax,%rdi
  407c5d:	48 8b 75 a0          	mov    -0x60(%rbp),%rsi
  407c61:	48 89 45 98          	mov    %rax,-0x68(%rbp)
  407c65:	e8 36 e3 ff ff       	callq  405fa0 <_ZN5boost9algorithm6detail13token_finderFINS1_10is_any_ofFIcEEEC2ERKS5_>
  407c6a:	48 8b 55 e8          	mov    -0x18(%rbp),%rdx
  407c6e:	48 8b 7d a8          	mov    -0x58(%rbp),%rdi
  407c72:	48 8b 75 98          	mov    -0x68(%rbp),%rsi
  407c76:	e8 75 00 00 00       	callq  407cf0 <_ZNK5boost6detail8function13basic_vtable2INS_14iterator_rangeIN9__gnu_cxx17__normal_iteratorIPcNSt7__cxx1112basic_stringIcSt11char_traitsIcESaIcEEEEEEESD_SD_E14assign_functorINS_9algorithm6detail13token_finderFINSI_10is_any_ofFIcEEEEEEvT_RNS1_15function_bufferENS_17integral_constantIbLb0EEE>
  407c7b:	e9 00 00 00 00       	jmpq   407c80 <_ZNK5boost6detail8function13basic_vtable2INS_14iterator_rangeIN9__gnu_cxx17__normal_iteratorIPcNSt7__cxx1112basic_stringIcSt11char_traitsIcESaIcEEEEEEESD_SD_E9assign_toINS_9algorithm6detail13token_finderFINSI_10is_any_ofFIcEEEEEEbT_RNS1_15function_bufferENS1_16function_obj_tagE+0x60>
  407c80:	48 8d 7d c8          	lea    -0x38(%rbp),%rdi
  407c84:	e8 27 e2 ff ff       	callq  405eb0 <_ZN5boost9algorithm6detail13token_finderFINS1_10is_any_ofFIcEEED2Ev>
  407c89:	c6 45 ff 01          	movb   $0x1,-0x1(%rbp)
  407c8d:	e9 19 00 00 00       	jmpq   407cab <_ZNK5boost6detail8function13basic_vtable2INS_14iterator_rangeIN9__gnu_cxx17__normal_iteratorIPcNSt7__cxx1112basic_stringIcSt11char_traitsIcESaIcEEEEEEESD_SD_E9assign_toINS_9algorithm6detail13token_finderFINSI_10is_any_ofFIcEEEEEEbT_RNS1_15function_bufferENS1_16function_obj_tagE+0x8b>
  407c92:	48 89 45 b8          	mov    %rax,-0x48(%rbp)
  407c96:	89 55 b4             	mov    %edx,-0x4c(%rbp)
  407c99:	48 8d 7d c8          	lea    -0x38(%rbp),%rdi
  407c9d:	e8 0e e2 ff ff       	callq  405eb0 <_ZN5boost9algorithm6detail13token_finderFINS1_10is_any_ofFIcEEED2Ev>
  407ca2:	e9 12 00 00 00       	jmpq   407cb9 <_ZNK5boost6detail8function13basic_vtable2INS_14iterator_rangeIN9__gnu_cxx17__normal_iteratorIPcNSt7__cxx1112basic_stringIcSt11char_traitsIcESaIcEEEEEEESD_SD_E9assign_toINS_9algorithm6detail13token_finderFINSI_10is_any_ofFIcEEEEEEbT_RNS1_15function_bufferENS1_16function_obj_tagE+0x99>
  407ca7:	c6 45 ff 00          	movb   $0x0,-0x1(%rbp)
  407cab:	8a 45 ff             	mov    -0x1(%rbp),%al
  407cae:	24 01                	and    $0x1,%al
  407cb0:	0f b6 c0             	movzbl %al,%eax
  407cb3:	48 83 c4 70          	add    $0x70,%rsp
  407cb7:	5d                   	pop    %rbp
  407cb8:	c3                   	retq   
  407cb9:	48 8b 7d b8          	mov    -0x48(%rbp),%rdi
  407cbd:	e8 1e b7 ff ff       	callq  4033e0 <_Unwind_Resume@plt>
  407cc2:	66 2e 0f 1f 84 00 00 	nopw   %cs:0x0(%rax,%rax,1)
  407cc9:	00 00 00 
  407ccc:	0f 1f 40 00          	nopl   0x0(%rax)

0000000000407cd0 <_ZN5boost6detail8function16has_empty_targetEz>:
  407cd0:	55                   	push   %rbp
  407cd1:	48 89 e5             	mov    %rsp,%rbp
  407cd4:	31 c0                	xor    %eax,%eax
  407cd6:	5d                   	pop    %rbp
  407cd7:	c3                   	retq   
  407cd8:	0f 1f 84 00 00 00 00 	nopl   0x0(%rax,%rax,1)
  407cdf:	00 

0000000000407ce0 <_ZN5boost9addressofINS_9algorithm6detail13token_finderFINS2_10is_any_ofFIcEEEEEEPT_RS7_>:
  407ce0:	55                   	push   %rbp
  407ce1:	48 89 e5             	mov    %rsp,%rbp
  407ce4:	48 89 7d f8          	mov    %rdi,-0x8(%rbp)
  407ce8:	48 8b 45 f8          	mov    -0x8(%rbp),%rax
  407cec:	5d                   	pop    %rbp
  407ced:	c3                   	retq   
  407cee:	66 90                	xchg   %ax,%ax

0000000000407cf0 <_ZNK5boost6detail8function13basic_vtable2INS_14iterator_rangeIN9__gnu_cxx17__normal_iteratorIPcNSt7__cxx1112basic_stringIcSt11char_traitsIcESaIcEEEEEEESD_SD_E14assign_functorINS_9algorithm6detail13token_finderFINSI_10is_any_ofFIcEEEEEEvT_RNS1_15function_bufferENS_17integral_constantIbLb0EEE>:
  407cf0:	55                   	push   %rbp
  407cf1:	48 89 e5             	mov    %rsp,%rbp
  407cf4:	48 83 ec 40          	sub    $0x40,%rsp
  407cf8:	48 89 7d f0          	mov    %rdi,-0x10(%rbp)
  407cfc:	48 89 55 e8          	mov    %rdx,-0x18(%rbp)
  407d00:	bf 20 00 00 00       	mov    $0x20,%edi
  407d05:	48 89 75 d0          	mov    %rsi,-0x30(%rbp)
  407d09:	e8 42 b5 ff ff       	callq  403250 <_Znwm@plt>
  407d0e:	48 89 c1             	mov    %rax,%rcx
  407d11:	48 89 c2             	mov    %rax,%rdx
  407d14:	48 89 c7             	mov    %rax,%rdi
  407d17:	48 8b 75 d0          	mov    -0x30(%rbp),%rsi
  407d1b:	48 89 4d c8          	mov    %rcx,-0x38(%rbp)
  407d1f:	48 89 55 c0          	mov    %rdx,-0x40(%rbp)
  407d23:	e8 78 e2 ff ff       	callq  405fa0 <_ZN5boost9algorithm6detail13token_finderFINS1_10is_any_ofFIcEEEC2ERKS5_>
  407d28:	e9 00 00 00 00       	jmpq   407d2d <_ZNK5boost6detail8function13basic_vtable2INS_14iterator_rangeIN9__gnu_cxx17__normal_iteratorIPcNSt7__cxx1112basic_stringIcSt11char_traitsIcESaIcEEEEEEESD_SD_E14assign_functorINS_9algorithm6detail13token_finderFINSI_10is_any_ofFIcEEEEEEvT_RNS1_15function_bufferENS_17integral_constantIbLb0EEE+0x3d>
  407d2d:	48 8b 45 c0          	mov    -0x40(%rbp),%rax
  407d31:	48 8b 4d e8          	mov    -0x18(%rbp),%rcx
  407d35:	48 89 01             	mov    %rax,(%rcx)
  407d38:	48 83 c4 40          	add    $0x40,%rsp
  407d3c:	5d                   	pop    %rbp
  407d3d:	c3                   	retq   
  407d3e:	48 89 45 e0          	mov    %rax,-0x20(%rbp)
  407d42:	89 55 dc             	mov    %edx,-0x24(%rbp)
  407d45:	48 8b 7d c8          	mov    -0x38(%rbp),%rdi
  407d49:	e8 d2 b4 ff ff       	callq  403220 <_ZdlPv@plt>
  407d4e:	48 8b 7d e0          	mov    -0x20(%rbp),%rdi
  407d52:	e8 89 b6 ff ff       	callq  4033e0 <_Unwind_Resume@plt>
  407d57:	66 0f 1f 84 00 00 00 	nopw   0x0(%rax,%rax,1)
  407d5e:	00 00 

0000000000407d60 <_ZNK5boost9algorithm6detail18find_iterator_baseIN9__gnu_cxx17__normal_iteratorIPcNSt7__cxx1112basic_stringIcSt11char_traitsIcESaIcEEEEEE7do_findESC_SC_>:
  407d60:	55                   	push   %rbp
  407d61:	48 89 e5             	mov    %rsp,%rbp
  407d64:	48 83 ec 50          	sub    $0x50,%rsp
  407d68:	48 89 75 e8          	mov    %rsi,-0x18(%rbp)
  407d6c:	48 89 55 e0          	mov    %rdx,-0x20(%rbp)
  407d70:	48 89 7d d8          	mov    %rdi,-0x28(%rbp)
  407d74:	48 8b 45 d8          	mov    -0x28(%rbp),%rax
  407d78:	48 89 c1             	mov    %rax,%rcx
  407d7b:	48 89 cf             	mov    %rcx,%rdi
  407d7e:	48 89 45 b0          	mov    %rax,-0x50(%rbp)
  407d82:	e8 c9 ea ff ff       	callq  406850 <_ZNK5boost13function_base5emptyEv>
  407d87:	a8 01                	test   $0x1,%al
  407d89:	0f 85 2e 00 00 00    	jne    407dbd <_ZNK5boost9algorithm6detail18find_iterator_baseIN9__gnu_cxx17__normal_iteratorIPcNSt7__cxx1112basic_stringIcSt11char_traitsIcESaIcEEEEEE7do_findESC_SC_+0x5d>
  407d8f:	48 8b 45 e8          	mov    -0x18(%rbp),%rax
  407d93:	48 89 45 d0          	mov    %rax,-0x30(%rbp)
  407d97:	48 8b 45 e0          	mov    -0x20(%rbp),%rax
  407d9b:	48 89 45 c8          	mov    %rax,-0x38(%rbp)
  407d9f:	48 8b 75 d0          	mov    -0x30(%rbp),%rsi
  407da3:	48 8b 55 c8          	mov    -0x38(%rbp),%rdx
  407da7:	48 8b 7d b0          	mov    -0x50(%rbp),%rdi
  407dab:	e8 40 00 00 00       	callq  407df0 <_ZNK5boost9function2INS_14iterator_rangeIN9__gnu_cxx17__normal_iteratorIPcNSt7__cxx1112basic_stringIcSt11char_traitsIcESaIcEEEEEEESB_SB_EclESB_SB_>
  407db0:	48 89 45 f0          	mov    %rax,-0x10(%rbp)
  407db4:	48 89 55 f8          	mov    %rdx,-0x8(%rbp)
  407db8:	e9 21 00 00 00       	jmpq   407dde <_ZNK5boost9algorithm6detail18find_iterator_baseIN9__gnu_cxx17__normal_iteratorIPcNSt7__cxx1112basic_stringIcSt11char_traitsIcESaIcEEEEEE7do_findESC_SC_+0x7e>
  407dbd:	48 8b 45 e0          	mov    -0x20(%rbp),%rax
  407dc1:	48 89 45 c0          	mov    %rax,-0x40(%rbp)
  407dc5:	48 8b 45 e0          	mov    -0x20(%rbp),%rax
  407dc9:	48 89 45 b8          	mov    %rax,-0x48(%rbp)
  407dcd:	48 8b 75 c0          	mov    -0x40(%rbp),%rsi
  407dd1:	48 8b 55 b8          	mov    -0x48(%rbp),%rdx
  407dd5:	48 8d 7d f0          	lea    -0x10(%rbp),%rdi
  407dd9:	e8 a2 eb ff ff       	callq  406980 <_ZN5boost14iterator_rangeIN9__gnu_cxx17__normal_iteratorIPcNSt7__cxx1112basic_stringIcSt11char_traitsIcESaIcEEEEEEC2ISA_EET_SD_>
  407dde:	48 8b 45 f0          	mov    -0x10(%rbp),%rax
  407de2:	48 8b 55 f8          	mov    -0x8(%rbp),%rdx
  407de6:	48 83 c4 50          	add    $0x50,%rsp
  407dea:	5d                   	pop    %rbp
  407deb:	c3                   	retq   
  407dec:	0f 1f 40 00          	nopl   0x0(%rax)

0000000000407df0 <_ZNK5boost9function2INS_14iterator_rangeIN9__gnu_cxx17__normal_iteratorIPcNSt7__cxx1112basic_stringIcSt11char_traitsIcESaIcEEEEEEESB_SB_EclESB_SB_>:
  407df0:	55                   	push   %rbp
  407df1:	48 89 e5             	mov    %rsp,%rbp
  407df4:	48 83 ec 70          	sub    $0x70,%rsp
  407df8:	48 89 75 e8          	mov    %rsi,-0x18(%rbp)
  407dfc:	48 89 55 e0          	mov    %rdx,-0x20(%rbp)
  407e00:	48 89 7d d8          	mov    %rdi,-0x28(%rbp)
  407e04:	48 8b 45 d8          	mov    -0x28(%rbp),%rax
  407e08:	48 89 c1             	mov    %rax,%rcx
  407e0b:	48 89 cf             	mov    %rcx,%rdi
  407e0e:	48 89 45 a0          	mov    %rax,-0x60(%rbp)
  407e12:	e8 39 ea ff ff       	callq  406850 <_ZNK5boost13function_base5emptyEv>
  407e17:	a8 01                	test   $0x1,%al
  407e19:	0f 85 05 00 00 00    	jne    407e24 <_ZNK5boost9function2INS_14iterator_rangeIN9__gnu_cxx17__normal_iteratorIPcNSt7__cxx1112basic_stringIcSt11char_traitsIcESaIcEEEEEEESB_SB_EclESB_SB_+0x34>
  407e1f:	e9 33 00 00 00       	jmpq   407e57 <_ZNK5boost9function2INS_14iterator_rangeIN9__gnu_cxx17__normal_iteratorIPcNSt7__cxx1112basic_stringIcSt11char_traitsIcESaIcEEEEEEESB_SB_EclESB_SB_+0x67>
  407e24:	48 8d 45 c8          	lea    -0x38(%rbp),%rax
  407e28:	48 89 c7             	mov    %rax,%rdi
  407e2b:	48 89 45 98          	mov    %rax,-0x68(%rbp)
  407e2f:	e8 fc 00 00 00       	callq  407f30 <_ZN5boost17bad_function_callC2Ev>
  407e34:	48 8b 7d 98          	mov    -0x68(%rbp),%rdi
  407e38:	e8 73 00 00 00       	callq  407eb0 <_ZN5boost15throw_exceptionINS_17bad_function_callEEEvRKT_>
  407e3d:	e9 00 00 00 00       	jmpq   407e42 <_ZNK5boost9function2INS_14iterator_rangeIN9__gnu_cxx17__normal_iteratorIPcNSt7__cxx1112basic_stringIcSt11char_traitsIcESaIcEEEEEEESB_SB_EclESB_SB_+0x52>
  407e42:	48 89 45 c0          	mov    %rax,-0x40(%rbp)
  407e46:	89 55 bc             	mov    %edx,-0x44(%rbp)
  407e49:	48 8d 7d c8          	lea    -0x38(%rbp),%rdi
  407e4d:	e8 2e 01 00 00       	callq  407f80 <_ZN5boost17bad_function_callD2Ev>
  407e52:	e9 48 00 00 00       	jmpq   407e9f <_ZNK5boost9function2INS_14iterator_rangeIN9__gnu_cxx17__normal_iteratorIPcNSt7__cxx1112basic_stringIcSt11char_traitsIcESaIcEEEEEEESB_SB_EclESB_SB_+0xaf>
  407e57:	48 8b 7d a0          	mov    -0x60(%rbp),%rdi
  407e5b:	e8 40 ea ff ff       	callq  4068a0 <_ZNK5boost9function2INS_14iterator_rangeIN9__gnu_cxx17__normal_iteratorIPcNSt7__cxx1112basic_stringIcSt11char_traitsIcESaIcEEEEEEESB_SB_E10get_vtableEv>
  407e60:	48 8b 40 08          	mov    0x8(%rax),%rax
  407e64:	48 8b 4d a0          	mov    -0x60(%rbp),%rcx
  407e68:	48 83 c1 08          	add    $0x8,%rcx
  407e6c:	48 8b 55 e8          	mov    -0x18(%rbp),%rdx
  407e70:	48 89 55 b0          	mov    %rdx,-0x50(%rbp)
  407e74:	48 8b 55 e0          	mov    -0x20(%rbp),%rdx
  407e78:	48 89 55 a8          	mov    %rdx,-0x58(%rbp)
  407e7c:	48 8b 75 b0          	mov    -0x50(%rbp),%rsi
  407e80:	48 8b 55 a8          	mov    -0x58(%rbp),%rdx
  407e84:	48 89 cf             	mov    %rcx,%rdi
  407e87:	ff d0                	callq  *%rax
  407e89:	48 89 45 f0          	mov    %rax,-0x10(%rbp)
  407e8d:	48 89 55 f8          	mov    %rdx,-0x8(%rbp)
  407e91:	48 8b 45 f0          	mov    -0x10(%rbp),%rax
  407e95:	48 8b 55 f8          	mov    -0x8(%rbp),%rdx
  407e99:	48 83 c4 70          	add    $0x70,%rsp
  407e9d:	5d                   	pop    %rbp
  407e9e:	c3                   	retq   
  407e9f:	48 8b 7d c0          	mov    -0x40(%rbp),%rdi
  407ea3:	e8 38 b5 ff ff       	callq  4033e0 <_Unwind_Resume@plt>
  407ea8:	0f 1f 84 00 00 00 00 	nopl   0x0(%rax,%rax,1)
  407eaf:	00 

0000000000407eb0 <_ZN5boost15throw_exceptionINS_17bad_function_callEEEvRKT_>:
  407eb0:	55                   	push   %rbp
  407eb1:	48 89 e5             	mov    %rsp,%rbp
  407eb4:	48 83 ec 20          	sub    $0x20,%rsp
  407eb8:	48 89 7d f8          	mov    %rdi,-0x8(%rbp)
  407ebc:	48 8b 7d f8          	mov    -0x8(%rbp),%rdi
  407ec0:	e8 db 00 00 00       	callq  407fa0 <_ZN5boost36throw_exception_assert_compatibilityERKSt9exception>
  407ec5:	bf 40 00 00 00       	mov    $0x40,%edi
  407eca:	e8 31 b2 ff ff       	callq  403100 <__cxa_allocate_exception@plt>
  407ecf:	48 89 c1             	mov    %rax,%rcx
  407ed2:	48 8b 75 f8          	mov    -0x8(%rbp),%rsi
  407ed6:	48 89 c7             	mov    %rax,%rdi
  407ed9:	48 89 4d e0          	mov    %rcx,-0x20(%rbp)
  407edd:	e8 ce 00 00 00       	callq  407fb0 <_ZN5boost10wrapexceptINS_17bad_function_callEEC2ERKS1_>
  407ee2:	e9 00 00 00 00       	jmpq   407ee7 <_ZN5boost15throw_exceptionINS_17bad_function_callEEEvRKT_+0x37>
  407ee7:	48 b8 b8 e1 40 00 00 	movabs $0x40e1b8,%rax
  407eee:	00 00 00 
  407ef1:	48 b9 80 80 40 00 00 	movabs $0x408080,%rcx
  407ef8:	00 00 00 
  407efb:	48 8b 7d e0          	mov    -0x20(%rbp),%rdi
  407eff:	48 89 c6             	mov    %rax,%rsi
  407f02:	48 89 ca             	mov    %rcx,%rdx
  407f05:	e8 c6 b4 ff ff       	callq  4033d0 <__cxa_throw@plt>
  407f0a:	48 89 45 f0          	mov    %rax,-0x10(%rbp)
  407f0e:	89 55 ec             	mov    %edx,-0x14(%rbp)
  407f11:	48 8b 7d e0          	mov    -0x20(%rbp),%rdi
  407f15:	e8 86 b2 ff ff       	callq  4031a0 <__cxa_free_exception@plt>
  407f1a:	48 8b 7d f0          	mov    -0x10(%rbp),%rdi
  407f1e:	e8 bd b4 ff ff       	callq  4033e0 <_Unwind_Resume@plt>
  407f23:	66 2e 0f 1f 84 00 00 	nopw   %cs:0x0(%rax,%rax,1)
  407f2a:	00 00 00 
  407f2d:	0f 1f 00             	nopl   (%rax)

0000000000407f30 <_ZN5boost17bad_function_callC2Ev>:
  407f30:	55                   	push   %rbp
  407f31:	48 89 e5             	mov    %rsp,%rbp
  407f34:	48 83 ec 10          	sub    $0x10,%rsp
  407f38:	48 89 7d f8          	mov    %rdi,-0x8(%rbp)
  407f3c:	48 8b 45 f8          	mov    -0x8(%rbp),%rax
  407f40:	48 89 c1             	mov    %rax,%rcx
  407f43:	48 89 cf             	mov    %rcx,%rdi
  407f46:	48 be 28 e0 40 00 00 	movabs $0x40e028,%rsi
  407f4d:	00 00 00 
  407f50:	48 89 45 f0          	mov    %rax,-0x10(%rbp)
  407f54:	e8 c7 b4 ff ff       	callq  403420 <_ZNSt13runtime_errorC2EPKc@plt>
  407f59:	48 b8 a8 e2 40 00 00 	movabs $0x40e2a8,%rax
  407f60:	00 00 00 
  407f63:	48 05 10 00 00 00    	add    $0x10,%rax
  407f69:	48 8b 4d f0          	mov    -0x10(%rbp),%rcx
  407f6d:	48 89 01             	mov    %rax,(%rcx)
  407f70:	48 83 c4 10          	add    $0x10,%rsp
  407f74:	5d                   	pop    %rbp
  407f75:	c3                   	retq   
  407f76:	66 2e 0f 1f 84 00 00 	nopw   %cs:0x0(%rax,%rax,1)
  407f7d:	00 00 00 

0000000000407f80 <_ZN5boost17bad_function_callD2Ev>:
  407f80:	55                   	push   %rbp
  407f81:	48 89 e5             	mov    %rsp,%rbp
  407f84:	48 83 ec 10          	sub    $0x10,%rsp
  407f88:	48 89 7d f8          	mov    %rdi,-0x8(%rbp)
  407f8c:	48 8b 45 f8          	mov    -0x8(%rbp),%rax
  407f90:	48 89 c7             	mov    %rax,%rdi
  407f93:	e8 18 b3 ff ff       	callq  4032b0 <_ZNSt13runtime_errorD2Ev@plt>
  407f98:	48 83 c4 10          	add    $0x10,%rsp
  407f9c:	5d                   	pop    %rbp
  407f9d:	c3                   	retq   
  407f9e:	66 90                	xchg   %ax,%ax

0000000000407fa0 <_ZN5boost36throw_exception_assert_compatibilityERKSt9exception>:
  407fa0:	55                   	push   %rbp
  407fa1:	48 89 e5             	mov    %rsp,%rbp
  407fa4:	48 89 7d f8          	mov    %rdi,-0x8(%rbp)
  407fa8:	5d                   	pop    %rbp
  407fa9:	c3                   	retq   
  407faa:	66 0f 1f 44 00 00    	nopw   0x0(%rax,%rax,1)

0000000000407fb0 <_ZN5boost10wrapexceptINS_17bad_function_callEEC2ERKS1_>:
  407fb0:	55                   	push   %rbp
  407fb1:	48 89 e5             	mov    %rsp,%rbp
  407fb4:	48 83 ec 30          	sub    $0x30,%rsp
  407fb8:	48 89 7d f8          	mov    %rdi,-0x8(%rbp)
  407fbc:	48 89 75 f0          	mov    %rsi,-0x10(%rbp)
  407fc0:	48 8b 45 f8          	mov    -0x8(%rbp),%rax
  407fc4:	48 89 c7             	mov    %rax,%rdi
  407fc7:	48 89 45 d8          	mov    %rax,-0x28(%rbp)
  407fcb:	e8 00 01 00 00       	callq  4080d0 <_ZN5boost16exception_detail10clone_baseC2Ev>
  407fd0:	48 8b 45 d8          	mov    -0x28(%rbp),%rax
  407fd4:	48 83 c0 08          	add    $0x8,%rax
  407fd8:	48 8b 75 f0          	mov    -0x10(%rbp),%rsi
  407fdc:	48 89 c7             	mov    %rax,%rdi
  407fdf:	e8 1c 01 00 00       	callq  408100 <_ZN5boost17bad_function_callC2ERKS0_>
  407fe4:	48 8b 45 d8          	mov    -0x28(%rbp),%rax
  407fe8:	48 83 c0 18          	add    $0x18,%rax
  407fec:	48 89 c7             	mov    %rax,%rdi
  407fef:	e8 5c 01 00 00       	callq  408150 <_ZN5boost9exceptionC2Ev>
  407ff4:	e9 00 00 00 00       	jmpq   407ff9 <_ZN5boost10wrapexceptINS_17bad_function_callEEC2ERKS1_+0x49>
  407ff9:	48 8b 45 d8          	mov    -0x28(%rbp),%rax
  407ffd:	48 c7 00 10 e2 40 00 	movq   $0x40e210,(%rax)
  408004:	48 c7 40 08 40 e2 40 	movq   $0x40e240,0x8(%rax)
  40800b:	00 
  40800c:	48 c7 40 18 68 e2 40 	movq   $0x40e268,0x18(%rax)
  408013:	00 
  408014:	48 8b 75 f0          	mov    -0x10(%rbp),%rsi
  408018:	48 89 c7             	mov    %rax,%rdi
  40801b:	e8 90 01 00 00       	callq  4081b0 <_ZN5boost10wrapexceptINS_17bad_function_callEE9copy_fromEPKv>
  408020:	e9 00 00 00 00       	jmpq   408025 <_ZN5boost10wrapexceptINS_17bad_function_callEEC2ERKS1_+0x75>
  408025:	48 83 c4 30          	add    $0x30,%rsp
  408029:	5d                   	pop    %rbp
  40802a:	c3                   	retq   
  40802b:	48 89 45 e8          	mov    %rax,-0x18(%rbp)
  40802f:	89 55 e4             	mov    %edx,-0x1c(%rbp)
  408032:	e9 19 00 00 00       	jmpq   408050 <_ZN5boost10wrapexceptINS_17bad_function_callEEC2ERKS1_+0xa0>
  408037:	48 89 45 e8          	mov    %rax,-0x18(%rbp)
  40803b:	89 55 e4             	mov    %edx,-0x1c(%rbp)
  40803e:	48 8b 45 d8          	mov    -0x28(%rbp),%rax
  408042:	48 05 18 00 00 00    	add    $0x18,%rax
  408048:	48 89 c7             	mov    %rax,%rdi
  40804b:	e8 70 01 00 00       	callq  4081c0 <_ZN5boost9exceptionD2Ev>
  408050:	48 8b 45 d8          	mov    -0x28(%rbp),%rax
  408054:	48 05 08 00 00 00    	add    $0x8,%rax
  40805a:	48 89 c7             	mov    %rax,%rdi
  40805d:	e8 1e ff ff ff       	callq  407f80 <_ZN5boost17bad_function_callD2Ev>
  408062:	48 8b 45 d8          	mov    -0x28(%rbp),%rax
  408066:	48 89 c7             	mov    %rax,%rdi
  408069:	e8 b2 03 00 00       	callq  408420 <_ZN5boost16exception_detail10clone_baseD2Ev>
  40806e:	48 8b 7d e8          	mov    -0x18(%rbp),%rdi
  408072:	e8 69 b3 ff ff       	callq  4033e0 <_Unwind_Resume@plt>
  408077:	66 0f 1f 84 00 00 00 	nopw   0x0(%rax,%rax,1)
  40807e:	00 00 

0000000000408080 <_ZN5boost10wrapexceptINS_17bad_function_callEED2Ev>:
  408080:	55                   	push   %rbp
  408081:	48 89 e5             	mov    %rsp,%rbp
  408084:	48 83 ec 10          	sub    $0x10,%rsp
  408088:	48 89 7d f8          	mov    %rdi,-0x8(%rbp)
  40808c:	48 8b 45 f8          	mov    -0x8(%rbp),%rax
  408090:	48 89 c1             	mov    %rax,%rcx
  408093:	48 81 c1 18 00 00 00 	add    $0x18,%rcx
  40809a:	48 89 cf             	mov    %rcx,%rdi
  40809d:	48 89 45 f0          	mov    %rax,-0x10(%rbp)
  4080a1:	e8 1a 01 00 00       	callq  4081c0 <_ZN5boost9exceptionD2Ev>
  4080a6:	48 8b 45 f0          	mov    -0x10(%rbp),%rax
  4080aa:	48 05 08 00 00 00    	add    $0x8,%rax
  4080b0:	48 89 c7             	mov    %rax,%rdi
  4080b3:	e8 c8 fe ff ff       	callq  407f80 <_ZN5boost17bad_function_callD2Ev>
  4080b8:	48 8b 45 f0          	mov    -0x10(%rbp),%rax
  4080bc:	48 89 c7             	mov    %rax,%rdi
  4080bf:	e8 5c 03 00 00       	callq  408420 <_ZN5boost16exception_detail10clone_baseD2Ev>
  4080c4:	48 83 c4 10          	add    $0x10,%rsp
  4080c8:	5d                   	pop    %rbp
  4080c9:	c3                   	retq   
  4080ca:	66 0f 1f 44 00 00    	nopw   0x0(%rax,%rax,1)

00000000004080d0 <_ZN5boost16exception_detail10clone_baseC2Ev>:
  4080d0:	55                   	push   %rbp
  4080d1:	48 89 e5             	mov    %rsp,%rbp
  4080d4:	48 b8 78 e2 40 00 00 	movabs $0x40e278,%rax
  4080db:	00 00 00 
  4080de:	48 05 10 00 00 00    	add    $0x10,%rax
  4080e4:	48 89 7d f8          	mov    %rdi,-0x8(%rbp)
  4080e8:	48 8b 4d f8          	mov    -0x8(%rbp),%rcx
  4080ec:	48 89 01             	mov    %rax,(%rcx)
  4080ef:	5d                   	pop    %rbp
  4080f0:	c3                   	retq   
  4080f1:	66 2e 0f 1f 84 00 00 	nopw   %cs:0x0(%rax,%rax,1)
  4080f8:	00 00 00 
  4080fb:	0f 1f 44 00 00       	nopl   0x0(%rax,%rax,1)

0000000000408100 <_ZN5boost17bad_function_callC2ERKS0_>:
  408100:	55                   	push   %rbp
  408101:	48 89 e5             	mov    %rsp,%rbp
  408104:	48 83 ec 20          	sub    $0x20,%rsp
  408108:	48 89 7d f8          	mov    %rdi,-0x8(%rbp)
  40810c:	48 89 75 f0          	mov    %rsi,-0x10(%rbp)
  408110:	48 8b 45 f8          	mov    -0x8(%rbp),%rax
  408114:	48 89 c1             	mov    %rax,%rcx
  408117:	48 8b 55 f0          	mov    -0x10(%rbp),%rdx
  40811b:	48 89 cf             	mov    %rcx,%rdi
  40811e:	48 89 d6             	mov    %rdx,%rsi
  408121:	48 89 45 e8          	mov    %rax,-0x18(%rbp)
  408125:	e8 e6 b1 ff ff       	callq  403310 <_ZNSt13runtime_errorC2ERKS_@plt>
  40812a:	48 b8 a8 e2 40 00 00 	movabs $0x40e2a8,%rax
  408131:	00 00 00 
  408134:	48 05 10 00 00 00    	add    $0x10,%rax
  40813a:	48 8b 4d e8          	mov    -0x18(%rbp),%rcx
  40813e:	48 89 01             	mov    %rax,(%rcx)
  408141:	48 83 c4 20          	add    $0x20,%rsp
  408145:	5d                   	pop    %rbp
  408146:	c3                   	retq   
  408147:	66 0f 1f 84 00 00 00 	nopw   0x0(%rax,%rax,1)
  40814e:	00 00 

0000000000408150 <_ZN5boost9exceptionC2Ev>:
  408150:	55                   	push   %rbp
  408151:	48 89 e5             	mov    %rsp,%rbp
  408154:	48 83 ec 10          	sub    $0x10,%rsp
  408158:	48 b8 d0 e2 40 00 00 	movabs $0x40e2d0,%rax
  40815f:	00 00 00 
  408162:	48 05 10 00 00 00    	add    $0x10,%rax
  408168:	48 89 7d f8          	mov    %rdi,-0x8(%rbp)
  40816c:	48 8b 4d f8          	mov    -0x8(%rbp),%rcx
  408170:	48 89 01             	mov    %rax,(%rcx)
  408173:	48 89 c8             	mov    %rcx,%rax
  408176:	48 05 08 00 00 00    	add    $0x8,%rax
  40817c:	48 89 c7             	mov    %rax,%rdi
  40817f:	48 89 4d f0          	mov    %rcx,-0x10(%rbp)
  408183:	e8 e8 02 00 00       	callq  408470 <_ZN5boost16exception_detail12refcount_ptrINS0_20error_info_containerEEC2Ev>
  408188:	48 8b 45 f0          	mov    -0x10(%rbp),%rax
  40818c:	48 c7 40 10 00 00 00 	movq   $0x0,0x10(%rax)
  408193:	00 
  408194:	48 c7 40 18 00 00 00 	movq   $0x0,0x18(%rax)
  40819b:	00 
  40819c:	c7 40 20 ff ff ff ff 	movl   $0xffffffff,0x20(%rax)
  4081a3:	48 83 c4 10          	add    $0x10,%rsp
  4081a7:	5d                   	pop    %rbp
  4081a8:	c3                   	retq   
  4081a9:	0f 1f 80 00 00 00 00 	nopl   0x0(%rax)

00000000004081b0 <_ZN5boost10wrapexceptINS_17bad_function_callEE9copy_fromEPKv>:
  4081b0:	55                   	push   %rbp
  4081b1:	48 89 e5             	mov    %rsp,%rbp
  4081b4:	48 89 7d f8          	mov    %rdi,-0x8(%rbp)
  4081b8:	48 89 75 f0          	mov    %rsi,-0x10(%rbp)
  4081bc:	5d                   	pop    %rbp
  4081bd:	c3                   	retq   
  4081be:	66 90                	xchg   %ax,%ax

00000000004081c0 <_ZN5boost9exceptionD2Ev>:
  4081c0:	55                   	push   %rbp
  4081c1:	48 89 e5             	mov    %rsp,%rbp
  4081c4:	48 83 ec 10          	sub    $0x10,%rsp
  4081c8:	48 b8 d0 e2 40 00 00 	movabs $0x40e2d0,%rax
  4081cf:	00 00 00 
  4081d2:	48 05 10 00 00 00    	add    $0x10,%rax
  4081d8:	48 89 7d f8          	mov    %rdi,-0x8(%rbp)
  4081dc:	48 8b 4d f8          	mov    -0x8(%rbp),%rcx
  4081e0:	48 89 01             	mov    %rax,(%rcx)
  4081e3:	48 81 c1 08 00 00 00 	add    $0x8,%rcx
  4081ea:	48 89 cf             	mov    %rcx,%rdi
  4081ed:	e8 9e 02 00 00       	callq  408490 <_ZN5boost16exception_detail12refcount_ptrINS0_20error_info_containerEED2Ev>
  4081f2:	48 83 c4 10          	add    $0x10,%rsp
  4081f6:	5d                   	pop    %rbp
  4081f7:	c3                   	retq   
  4081f8:	0f 1f 84 00 00 00 00 	nopl   0x0(%rax,%rax,1)
  4081ff:	00 

0000000000408200 <_ZNK5boost10wrapexceptINS_17bad_function_callEE5cloneEv>:
  408200:	55                   	push   %rbp
  408201:	48 89 e5             	mov    %rsp,%rbp
  408204:	48 83 ec 60          	sub    $0x60,%rsp
  408208:	48 89 7d f8          	mov    %rdi,-0x8(%rbp)
  40820c:	48 8b 45 f8          	mov    -0x8(%rbp),%rax
  408210:	bf 40 00 00 00       	mov    $0x40,%edi
  408215:	48 89 45 d0          	mov    %rax,-0x30(%rbp)
  408219:	e8 32 b0 ff ff       	callq  403250 <_Znwm@plt>
  40821e:	48 89 c1             	mov    %rax,%rcx
  408221:	48 89 c2             	mov    %rax,%rdx
  408224:	48 89 c7             	mov    %rax,%rdi
  408227:	48 8b 75 d0          	mov    -0x30(%rbp),%rsi
  40822b:	48 89 4d c8          	mov    %rcx,-0x38(%rbp)
  40822f:	48 89 55 c0          	mov    %rdx,-0x40(%rbp)
  408233:	e8 d8 02 00 00       	callq  408510 <_ZN5boost10wrapexceptINS_17bad_function_callEEC2ERKS2_>
  408238:	e9 00 00 00 00       	jmpq   40823d <_ZNK5boost10wrapexceptINS_17bad_function_callEE5cloneEv+0x3d>
  40823d:	31 c0                	xor    %eax,%eax
  40823f:	89 c1                	mov    %eax,%ecx
  408241:	48 8b 55 c0          	mov    -0x40(%rbp),%rdx
  408245:	48 89 55 f0          	mov    %rdx,-0x10(%rbp)
  408249:	48 8b 75 f0          	mov    -0x10(%rbp),%rsi
  40824d:	48 89 75 d8          	mov    %rsi,-0x28(%rbp)
  408251:	48 8b 75 f0          	mov    -0x10(%rbp),%rsi
  408255:	48 83 fe 00          	cmp    $0x0,%rsi
  408259:	48 89 75 b8          	mov    %rsi,-0x48(%rbp)
  40825d:	48 89 4d b0          	mov    %rcx,-0x50(%rbp)
  408261:	0f 84 0e 00 00 00    	je     408275 <_ZNK5boost10wrapexceptINS_17bad_function_callEE5cloneEv+0x75>
  408267:	48 8b 45 b8          	mov    -0x48(%rbp),%rax
  40826b:	48 05 18 00 00 00    	add    $0x18,%rax
  408271:	48 89 45 b0          	mov    %rax,-0x50(%rbp)
  408275:	48 8b 45 b0          	mov    -0x50(%rbp),%rax
  408279:	48 8b 4d d0          	mov    -0x30(%rbp),%rcx
  40827d:	48 83 c1 18          	add    $0x18,%rcx
  408281:	48 89 c7             	mov    %rax,%rdi
  408284:	48 89 ce             	mov    %rcx,%rsi
  408287:	e8 54 03 00 00       	callq  4085e0 <_ZN5boost16exception_detail20copy_boost_exceptionEPNS_9exceptionEPKS1_>
  40828c:	e9 00 00 00 00       	jmpq   408291 <_ZNK5boost10wrapexceptINS_17bad_function_callEE5cloneEv+0x91>
  408291:	48 c7 45 d8 00 00 00 	movq   $0x0,-0x28(%rbp)
  408298:	00 
  408299:	48 8b 45 f0          	mov    -0x10(%rbp),%rax
  40829d:	48 8d 7d d8          	lea    -0x28(%rbp),%rdi
  4082a1:	48 89 45 a8          	mov    %rax,-0x58(%rbp)
  4082a5:	e8 46 04 00 00       	callq  4086f0 <_ZN5boost10wrapexceptINS_17bad_function_callEE7deleterD2Ev>
  4082aa:	48 8b 45 a8          	mov    -0x58(%rbp),%rax
  4082ae:	48 83 c4 60          	add    $0x60,%rsp
  4082b2:	5d                   	pop    %rbp
  4082b3:	c3                   	retq   
  4082b4:	48 89 45 e8          	mov    %rax,-0x18(%rbp)
  4082b8:	89 55 e4             	mov    %edx,-0x1c(%rbp)
  4082bb:	48 8b 7d c8          	mov    -0x38(%rbp),%rdi
  4082bf:	e8 5c af ff ff       	callq  403220 <_ZdlPv@plt>
  4082c4:	e9 10 00 00 00       	jmpq   4082d9 <_ZNK5boost10wrapexceptINS_17bad_function_callEE5cloneEv+0xd9>
  4082c9:	48 89 45 e8          	mov    %rax,-0x18(%rbp)
  4082cd:	89 55 e4             	mov    %edx,-0x1c(%rbp)
  4082d0:	48 8d 7d d8          	lea    -0x28(%rbp),%rdi
  4082d4:	e8 17 04 00 00       	callq  4086f0 <_ZN5boost10wrapexceptINS_17bad_function_callEE7deleterD2Ev>
  4082d9:	48 8b 7d e8          	mov    -0x18(%rbp),%rdi
  4082dd:	e8 fe b0 ff ff       	callq  4033e0 <_Unwind_Resume@plt>
  4082e2:	66 2e 0f 1f 84 00 00 	nopw   %cs:0x0(%rax,%rax,1)
  4082e9:	00 00 00 
  4082ec:	0f 1f 40 00          	nopl   0x0(%rax)

00000000004082f0 <_ZNK5boost10wrapexceptINS_17bad_function_callEE7rethrowEv>:
  4082f0:	55                   	push   %rbp
  4082f1:	48 89 e5             	mov    %rsp,%rbp
  4082f4:	48 83 ec 30          	sub    $0x30,%rsp
  4082f8:	48 89 7d f8          	mov    %rdi,-0x8(%rbp)
  4082fc:	48 8b 75 f8          	mov    -0x8(%rbp),%rsi
  408300:	bf 40 00 00 00       	mov    $0x40,%edi
  408305:	48 89 75 e0          	mov    %rsi,-0x20(%rbp)
  408309:	e8 f2 ad ff ff       	callq  403100 <__cxa_allocate_exception@plt>
  40830e:	48 89 c1             	mov    %rax,%rcx
  408311:	48 89 c7             	mov    %rax,%rdi
  408314:	48 8b 75 e0          	mov    -0x20(%rbp),%rsi
  408318:	48 89 4d d8          	mov    %rcx,-0x28(%rbp)
  40831c:	e8 ef 01 00 00       	callq  408510 <_ZN5boost10wrapexceptINS_17bad_function_callEEC2ERKS2_>
  408321:	e9 00 00 00 00       	jmpq   408326 <_ZNK5boost10wrapexceptINS_17bad_function_callEE7rethrowEv+0x36>
  408326:	48 b8 b8 e1 40 00 00 	movabs $0x40e1b8,%rax
  40832d:	00 00 00 
  408330:	48 b9 80 80 40 00 00 	movabs $0x408080,%rcx
  408337:	00 00 00 
  40833a:	48 8b 7d d8          	mov    -0x28(%rbp),%rdi
  40833e:	48 89 c6             	mov    %rax,%rsi
  408341:	48 89 ca             	mov    %rcx,%rdx
  408344:	e8 87 b0 ff ff       	callq  4033d0 <__cxa_throw@plt>
  408349:	48 89 45 f0          	mov    %rax,-0x10(%rbp)
  40834d:	89 55 ec             	mov    %edx,-0x14(%rbp)
  408350:	48 8b 7d d8          	mov    -0x28(%rbp),%rdi
  408354:	e8 47 ae ff ff       	callq  4031a0 <__cxa_free_exception@plt>
  408359:	48 8b 7d f0          	mov    -0x10(%rbp),%rdi
  40835d:	e8 7e b0 ff ff       	callq  4033e0 <_Unwind_Resume@plt>
  408362:	66 2e 0f 1f 84 00 00 	nopw   %cs:0x0(%rax,%rax,1)
  408369:	00 00 00 
  40836c:	0f 1f 40 00          	nopl   0x0(%rax)

0000000000408370 <_ZN5boost10wrapexceptINS_17bad_function_callEED0Ev>:
  408370:	55                   	push   %rbp
  408371:	48 89 e5             	mov    %rsp,%rbp
  408374:	48 83 ec 10          	sub    $0x10,%rsp
  408378:	48 89 7d f8          	mov    %rdi,-0x8(%rbp)
  40837c:	48 8b 45 f8          	mov    -0x8(%rbp),%rax
  408380:	48 89 c7             	mov    %rax,%rdi
  408383:	48 89 45 f0          	mov    %rax,-0x10(%rbp)
  408387:	e8 f4 fc ff ff       	callq  408080 <_ZN5boost10wrapexceptINS_17bad_function_callEED2Ev>
  40838c:	48 8b 45 f0          	mov    -0x10(%rbp),%rax
  408390:	48 89 c7             	mov    %rax,%rdi
  408393:	e8 88 ae ff ff       	callq  403220 <_ZdlPv@plt>
  408398:	48 83 c4 10          	add    $0x10,%rsp
  40839c:	5d                   	pop    %rbp
  40839d:	c3                   	retq   
  40839e:	66 90                	xchg   %ax,%ax

00000000004083a0 <_ZThn8_N5boost10wrapexceptINS_17bad_function_callEED1Ev>:
  4083a0:	55                   	push   %rbp
  4083a1:	48 89 e5             	mov    %rsp,%rbp
  4083a4:	48 89 7d f8          	mov    %rdi,-0x8(%rbp)
  4083a8:	48 8b 45 f8          	mov    -0x8(%rbp),%rax
  4083ac:	48 83 c0 f8          	add    $0xfffffffffffffff8,%rax
  4083b0:	48 89 c7             	mov    %rax,%rdi
  4083b3:	5d                   	pop    %rbp
  4083b4:	e9 c7 fc ff ff       	jmpq   408080 <_ZN5boost10wrapexceptINS_17bad_function_callEED2Ev>
  4083b9:	0f 1f 80 00 00 00 00 	nopl   0x0(%rax)

00000000004083c0 <_ZThn8_N5boost10wrapexceptINS_17bad_function_callEED0Ev>:
  4083c0:	55                   	push   %rbp
  4083c1:	48 89 e5             	mov    %rsp,%rbp
  4083c4:	48 89 7d f8          	mov    %rdi,-0x8(%rbp)
  4083c8:	48 8b 45 f8          	mov    -0x8(%rbp),%rax
  4083cc:	48 83 c0 f8          	add    $0xfffffffffffffff8,%rax
  4083d0:	48 89 c7             	mov    %rax,%rdi
  4083d3:	5d                   	pop    %rbp
  4083d4:	e9 97 ff ff ff       	jmpq   408370 <_ZN5boost10wrapexceptINS_17bad_function_callEED0Ev>
  4083d9:	0f 1f 80 00 00 00 00 	nopl   0x0(%rax)

00000000004083e0 <_ZThn24_N5boost10wrapexceptINS_17bad_function_callEED1Ev>:
  4083e0:	55                   	push   %rbp
  4083e1:	48 89 e5             	mov    %rsp,%rbp
  4083e4:	48 89 7d f8          	mov    %rdi,-0x8(%rbp)
  4083e8:	48 8b 45 f8          	mov    -0x8(%rbp),%rax
  4083ec:	48 83 c0 e8          	add    $0xffffffffffffffe8,%rax
  4083f0:	48 89 c7             	mov    %rax,%rdi
  4083f3:	5d                   	pop    %rbp
  4083f4:	e9 87 fc ff ff       	jmpq   408080 <_ZN5boost10wrapexceptINS_17bad_function_callEED2Ev>
  4083f9:	0f 1f 80 00 00 00 00 	nopl   0x0(%rax)

0000000000408400 <_ZThn24_N5boost10wrapexceptINS_17bad_function_callEED0Ev>:
  408400:	55                   	push   %rbp
  408401:	48 89 e5             	mov    %rsp,%rbp
  408404:	48 89 7d f8          	mov    %rdi,-0x8(%rbp)
  408408:	48 8b 45 f8          	mov    -0x8(%rbp),%rax
  40840c:	48 83 c0 e8          	add    $0xffffffffffffffe8,%rax
  408410:	48 89 c7             	mov    %rax,%rdi
  408413:	5d                   	pop    %rbp
  408414:	e9 57 ff ff ff       	jmpq   408370 <_ZN5boost10wrapexceptINS_17bad_function_callEED0Ev>
  408419:	0f 1f 80 00 00 00 00 	nopl   0x0(%rax)

0000000000408420 <_ZN5boost16exception_detail10clone_baseD2Ev>:
  408420:	55                   	push   %rbp
  408421:	48 89 e5             	mov    %rsp,%rbp
  408424:	48 89 7d f8          	mov    %rdi,-0x8(%rbp)
  408428:	5d                   	pop    %rbp
  408429:	c3                   	retq   
  40842a:	66 0f 1f 44 00 00    	nopw   0x0(%rax,%rax,1)

0000000000408430 <_ZN5boost16exception_detail10clone_baseD0Ev>:
  408430:	55                   	push   %rbp
  408431:	48 89 e5             	mov    %rsp,%rbp
  408434:	48 89 7d f8          	mov    %rdi,-0x8(%rbp)
  408438:	0f 0b                	ud2    
  40843a:	66 0f 1f 44 00 00    	nopw   0x0(%rax,%rax,1)

0000000000408440 <_ZN5boost17bad_function_callD0Ev>:
  408440:	55                   	push   %rbp
  408441:	48 89 e5             	mov    %rsp,%rbp
  408444:	48 83 ec 10          	sub    $0x10,%rsp
  408448:	48 89 7d f8          	mov    %rdi,-0x8(%rbp)
  40844c:	48 8b 45 f8          	mov    -0x8(%rbp),%rax
  408450:	48 89 c7             	mov    %rax,%rdi
  408453:	48 89 45 f0          	mov    %rax,-0x10(%rbp)
  408457:	e8 24 fb ff ff       	callq  407f80 <_ZN5boost17bad_function_callD2Ev>
  40845c:	48 8b 45 f0          	mov    -0x10(%rbp),%rax
  408460:	48 89 c7             	mov    %rax,%rdi
  408463:	e8 b8 ad ff ff       	callq  403220 <_ZdlPv@plt>
  408468:	48 83 c4 10          	add    $0x10,%rsp
  40846c:	5d                   	pop    %rbp
  40846d:	c3                   	retq   
  40846e:	66 90                	xchg   %ax,%ax

0000000000408470 <_ZN5boost16exception_detail12refcount_ptrINS0_20error_info_containerEEC2Ev>:
  408470:	55                   	push   %rbp
  408471:	48 89 e5             	mov    %rsp,%rbp
  408474:	48 89 7d f8          	mov    %rdi,-0x8(%rbp)
  408478:	48 8b 45 f8          	mov    -0x8(%rbp),%rax
  40847c:	48 c7 00 00 00 00 00 	movq   $0x0,(%rax)
  408483:	5d                   	pop    %rbp
  408484:	c3                   	retq   
  408485:	66 2e 0f 1f 84 00 00 	nopw   %cs:0x0(%rax,%rax,1)
  40848c:	00 00 00 
  40848f:	90                   	nop

0000000000408490 <_ZN5boost16exception_detail12refcount_ptrINS0_20error_info_containerEED2Ev>:
  408490:	55                   	push   %rbp
  408491:	48 89 e5             	mov    %rsp,%rbp
  408494:	48 83 ec 10          	sub    $0x10,%rsp
  408498:	48 89 7d f8          	mov    %rdi,-0x8(%rbp)
  40849c:	48 8b 7d f8          	mov    -0x8(%rbp),%rdi
  4084a0:	e8 1b 00 00 00       	callq  4084c0 <_ZN5boost16exception_detail12refcount_ptrINS0_20error_info_containerEE7releaseEv>
  4084a5:	e9 00 00 00 00       	jmpq   4084aa <_ZN5boost16exception_detail12refcount_ptrINS0_20error_info_containerEED2Ev+0x1a>
  4084aa:	48 83 c4 10          	add    $0x10,%rsp
  4084ae:	5d                   	pop    %rbp
  4084af:	c3                   	retq   
  4084b0:	48 89 c7             	mov    %rax,%rdi
  4084b3:	89 55 f4             	mov    %edx,-0xc(%rbp)
  4084b6:	e8 95 bb ff ff       	callq  404050 <__clang_call_terminate>
  4084bb:	0f 1f 44 00 00       	nopl   0x0(%rax,%rax,1)

00000000004084c0 <_ZN5boost16exception_detail12refcount_ptrINS0_20error_info_containerEE7releaseEv>:
  4084c0:	55                   	push   %rbp
  4084c1:	48 89 e5             	mov    %rsp,%rbp
  4084c4:	48 83 ec 10          	sub    $0x10,%rsp
  4084c8:	48 89 7d f8          	mov    %rdi,-0x8(%rbp)
  4084cc:	48 8b 45 f8          	mov    -0x8(%rbp),%rax
  4084d0:	48 83 38 00          	cmpq   $0x0,(%rax)
  4084d4:	48 89 45 f0          	mov    %rax,-0x10(%rbp)
  4084d8:	0f 84 28 00 00 00    	je     408506 <_ZN5boost16exception_detail12refcount_ptrINS0_20error_info_containerEE7releaseEv+0x46>
  4084de:	48 8b 45 f0          	mov    -0x10(%rbp),%rax
  4084e2:	48 8b 08             	mov    (%rax),%rcx
  4084e5:	48 8b 11             	mov    (%rcx),%rdx
  4084e8:	48 89 cf             	mov    %rcx,%rdi
  4084eb:	ff 52 20             	callq  *0x20(%rdx)
  4084ee:	a8 01                	test   $0x1,%al
  4084f0:	0f 85 05 00 00 00    	jne    4084fb <_ZN5boost16exception_detail12refcount_ptrINS0_20error_info_containerEE7releaseEv+0x3b>
  4084f6:	e9 0b 00 00 00       	jmpq   408506 <_ZN5boost16exception_detail12refcount_ptrINS0_20error_info_containerEE7releaseEv+0x46>
  4084fb:	48 8b 45 f0          	mov    -0x10(%rbp),%rax
  4084ff:	48 c7 00 00 00 00 00 	movq   $0x0,(%rax)
  408506:	48 83 c4 10          	add    $0x10,%rsp
  40850a:	5d                   	pop    %rbp
  40850b:	c3                   	retq   
  40850c:	0f 1f 40 00          	nopl   0x0(%rax)

0000000000408510 <_ZN5boost10wrapexceptINS_17bad_function_callEEC2ERKS2_>:
  408510:	55                   	push   %rbp
  408511:	48 89 e5             	mov    %rsp,%rbp
  408514:	48 83 ec 30          	sub    $0x30,%rsp
  408518:	48 89 7d f8          	mov    %rdi,-0x8(%rbp)
  40851c:	48 89 75 f0          	mov    %rsi,-0x10(%rbp)
  408520:	48 8b 45 f8          	mov    -0x8(%rbp),%rax
  408524:	48 8b 75 f0          	mov    -0x10(%rbp),%rsi
  408528:	48 89 c7             	mov    %rax,%rdi
  40852b:	48 89 45 d8          	mov    %rax,-0x28(%rbp)
  40852f:	e8 fc 01 00 00       	callq  408730 <_ZN5boost16exception_detail10clone_baseC2ERKS1_>
  408534:	48 8b 45 d8          	mov    -0x28(%rbp),%rax
  408538:	48 83 c0 08          	add    $0x8,%rax
  40853c:	48 8b 4d f0          	mov    -0x10(%rbp),%rcx
  408540:	48 83 c1 08          	add    $0x8,%rcx
  408544:	48 89 c7             	mov    %rax,%rdi
  408547:	48 89 ce             	mov    %rcx,%rsi
  40854a:	e8 b1 fb ff ff       	callq  408100 <_ZN5boost17bad_function_callC2ERKS0_>
  40854f:	48 8b 45 d8          	mov    -0x28(%rbp),%rax
  408553:	48 83 c0 18          	add    $0x18,%rax
  408557:	48 8b 4d f0          	mov    -0x10(%rbp),%rcx
  40855b:	48 83 c1 18          	add    $0x18,%rcx
  40855f:	48 89 c7             	mov    %rax,%rdi
  408562:	48 89 ce             	mov    %rcx,%rsi
  408565:	e8 f6 01 00 00       	callq  408760 <_ZN5boost9exceptionC2ERKS0_>
  40856a:	e9 00 00 00 00       	jmpq   40856f <_ZN5boost10wrapexceptINS_17bad_function_callEEC2ERKS2_+0x5f>
  40856f:	48 b8 00 e2 40 00 00 	movabs $0x40e200,%rax
  408576:	00 00 00 
  408579:	48 89 c1             	mov    %rax,%rcx
  40857c:	48 81 c1 68 00 00 00 	add    $0x68,%rcx
  408583:	48 89 c2             	mov    %rax,%rdx
  408586:	48 81 c2 40 00 00 00 	add    $0x40,%rdx
  40858d:	48 05 10 00 00 00    	add    $0x10,%rax
  408593:	48 8b 75 d8          	mov    -0x28(%rbp),%rsi
  408597:	48 89 06             	mov    %rax,(%rsi)
  40859a:	48 89 56 08          	mov    %rdx,0x8(%rsi)
  40859e:	48 89 4e 18          	mov    %rcx,0x18(%rsi)
  4085a2:	48 83 c4 30          	add    $0x30,%rsp
  4085a6:	5d                   	pop    %rbp
  4085a7:	c3                   	retq   
  4085a8:	48 89 45 e8          	mov    %rax,-0x18(%rbp)
  4085ac:	89 55 e4             	mov    %edx,-0x1c(%rbp)
  4085af:	48 8b 45 d8          	mov    -0x28(%rbp),%rax
  4085b3:	48 05 08 00 00 00    	add    $0x8,%rax
  4085b9:	48 89 c7             	mov    %rax,%rdi
  4085bc:	e8 bf f9 ff ff       	callq  407f80 <_ZN5boost17bad_function_callD2Ev>
  4085c1:	48 8b 45 d8          	mov    -0x28(%rbp),%rax
  4085c5:	48 89 c7             	mov    %rax,%rdi
  4085c8:	e8 53 fe ff ff       	callq  408420 <_ZN5boost16exception_detail10clone_baseD2Ev>
  4085cd:	48 8b 7d e8          	mov    -0x18(%rbp),%rdi
  4085d1:	e8 0a ae ff ff       	callq  4033e0 <_Unwind_Resume@plt>
  4085d6:	66 2e 0f 1f 84 00 00 	nopw   %cs:0x0(%rax,%rax,1)
  4085dd:	00 00 00 

00000000004085e0 <_ZN5boost16exception_detail20copy_boost_exceptionEPNS_9exceptionEPKS1_>:
  4085e0:	55                   	push   %rbp
  4085e1:	48 89 e5             	mov    %rsp,%rbp
  4085e4:	48 83 ec 40          	sub    $0x40,%rsp
  4085e8:	48 89 7d f8          	mov    %rdi,-0x8(%rbp)
  4085ec:	48 89 75 f0          	mov    %rsi,-0x10(%rbp)
  4085f0:	48 8d 7d e8          	lea    -0x18(%rbp),%rdi
  4085f4:	e8 77 fe ff ff       	callq  408470 <_ZN5boost16exception_detail12refcount_ptrINS0_20error_info_containerEEC2Ev>
  4085f9:	48 8b 45 f0          	mov    -0x10(%rbp),%rax
  4085fd:	48 83 c0 08          	add    $0x8,%rax
  408601:	48 89 c7             	mov    %rax,%rdi
  408604:	e8 37 02 00 00       	callq  408840 <_ZNK5boost16exception_detail12refcount_ptrINS0_20error_info_containerEE3getEv>
  408609:	48 89 45 c0          	mov    %rax,-0x40(%rbp)
  40860d:	e9 00 00 00 00       	jmpq   408612 <_ZN5boost16exception_detail20copy_boost_exceptionEPNS_9exceptionEPKS1_+0x32>
  408612:	48 8b 45 c0          	mov    -0x40(%rbp),%rax
  408616:	48 89 45 e0          	mov    %rax,-0x20(%rbp)
  40861a:	48 83 7d e0 00       	cmpq   $0x0,-0x20(%rbp)
  40861f:	0f 84 5a 00 00 00    	je     40867f <_ZN5boost16exception_detail20copy_boost_exceptionEPNS_9exceptionEPKS1_+0x9f>
  408625:	48 8b 45 e0          	mov    -0x20(%rbp),%rax
  408629:	48 8b 08             	mov    (%rax),%rcx
  40862c:	48 8b 49 28          	mov    0x28(%rcx),%rcx
  408630:	48 8d 7d c8          	lea    -0x38(%rbp),%rdi
  408634:	48 89 c6             	mov    %rax,%rsi
  408637:	ff d1                	callq  *%rcx
  408639:	e9 00 00 00 00       	jmpq   40863e <_ZN5boost16exception_detail20copy_boost_exceptionEPNS_9exceptionEPKS1_+0x5e>
  40863e:	48 8d 7d e8          	lea    -0x18(%rbp),%rdi
  408642:	48 8d 75 c8          	lea    -0x38(%rbp),%rsi
  408646:	e8 15 02 00 00       	callq  408860 <_ZN5boost16exception_detail12refcount_ptrINS0_20error_info_containerEEaSERKS3_>
  40864b:	e9 00 00 00 00       	jmpq   408650 <_ZN5boost16exception_detail20copy_boost_exceptionEPNS_9exceptionEPKS1_+0x70>
  408650:	48 8d 7d c8          	lea    -0x38(%rbp),%rdi
  408654:	e8 37 fe ff ff       	callq  408490 <_ZN5boost16exception_detail12refcount_ptrINS0_20error_info_containerEED2Ev>
  408659:	e9 21 00 00 00       	jmpq   40867f <_ZN5boost16exception_detail20copy_boost_exceptionEPNS_9exceptionEPKS1_+0x9f>
  40865e:	48 89 45 d8          	mov    %rax,-0x28(%rbp)
  408662:	89 55 d4             	mov    %edx,-0x2c(%rbp)
  408665:	e9 6b 00 00 00       	jmpq   4086d5 <_ZN5boost16exception_detail20copy_boost_exceptionEPNS_9exceptionEPKS1_+0xf5>
  40866a:	48 89 45 d8          	mov    %rax,-0x28(%rbp)
  40866e:	89 55 d4             	mov    %edx,-0x2c(%rbp)
  408671:	48 8d 7d c8          	lea    -0x38(%rbp),%rdi
  408675:	e8 16 fe ff ff       	callq  408490 <_ZN5boost16exception_detail12refcount_ptrINS0_20error_info_containerEED2Ev>
  40867a:	e9 56 00 00 00       	jmpq   4086d5 <_ZN5boost16exception_detail20copy_boost_exceptionEPNS_9exceptionEPKS1_+0xf5>
  40867f:	48 8b 45 f0          	mov    -0x10(%rbp),%rax
  408683:	48 8b 40 18          	mov    0x18(%rax),%rax
  408687:	48 8b 4d f8          	mov    -0x8(%rbp),%rcx
  40868b:	48 89 41 18          	mov    %rax,0x18(%rcx)
  40868f:	48 8b 45 f0          	mov    -0x10(%rbp),%rax
  408693:	8b 50 20             	mov    0x20(%rax),%edx
  408696:	48 8b 45 f8          	mov    -0x8(%rbp),%rax
  40869a:	89 50 20             	mov    %edx,0x20(%rax)
  40869d:	48 8b 45 f0          	mov    -0x10(%rbp),%rax
  4086a1:	48 8b 40 10          	mov    0x10(%rax),%rax
  4086a5:	48 8b 4d f8          	mov    -0x8(%rbp),%rcx
  4086a9:	48 89 41 10          	mov    %rax,0x10(%rcx)
  4086ad:	48 8b 45 f8          	mov    -0x8(%rbp),%rax
  4086b1:	48 83 c0 08          	add    $0x8,%rax
  4086b5:	48 8d 75 e8          	lea    -0x18(%rbp),%rsi
  4086b9:	48 89 c7             	mov    %rax,%rdi
  4086bc:	e8 9f 01 00 00       	callq  408860 <_ZN5boost16exception_detail12refcount_ptrINS0_20error_info_containerEEaSERKS3_>
  4086c1:	e9 00 00 00 00       	jmpq   4086c6 <_ZN5boost16exception_detail20copy_boost_exceptionEPNS_9exceptionEPKS1_+0xe6>
  4086c6:	48 8d 7d e8          	lea    -0x18(%rbp),%rdi
  4086ca:	e8 c1 fd ff ff       	callq  408490 <_ZN5boost16exception_detail12refcount_ptrINS0_20error_info_containerEED2Ev>
  4086cf:	48 83 c4 40          	add    $0x40,%rsp
  4086d3:	5d                   	pop    %rbp
  4086d4:	c3                   	retq   
  4086d5:	48 8d 7d e8          	lea    -0x18(%rbp),%rdi
  4086d9:	e8 b2 fd ff ff       	callq  408490 <_ZN5boost16exception_detail12refcount_ptrINS0_20error_info_containerEED2Ev>
  4086de:	48 8b 7d d8          	mov    -0x28(%rbp),%rdi
  4086e2:	e8 f9 ac ff ff       	callq  4033e0 <_Unwind_Resume@plt>
  4086e7:	66 0f 1f 84 00 00 00 	nopw   0x0(%rax,%rax,1)
  4086ee:	00 00 

00000000004086f0 <_ZN5boost10wrapexceptINS_17bad_function_callEE7deleterD2Ev>:
  4086f0:	55                   	push   %rbp
  4086f1:	48 89 e5             	mov    %rsp,%rbp
  4086f4:	48 83 ec 10          	sub    $0x10,%rsp
  4086f8:	48 89 7d f8          	mov    %rdi,-0x8(%rbp)
  4086fc:	48 8b 45 f8          	mov    -0x8(%rbp),%rax
  408700:	48 8b 00             	mov    (%rax),%rax
  408703:	48 83 f8 00          	cmp    $0x0,%rax
  408707:	48 89 45 f0          	mov    %rax,-0x10(%rbp)
  40870b:	0f 84 0d 00 00 00    	je     40871e <_ZN5boost10wrapexceptINS_17bad_function_callEE7deleterD2Ev+0x2e>
  408711:	48 8b 45 f0          	mov    -0x10(%rbp),%rax
  408715:	48 8b 08             	mov    (%rax),%rcx
  408718:	48 89 c7             	mov    %rax,%rdi
  40871b:	ff 51 18             	callq  *0x18(%rcx)
  40871e:	48 83 c4 10          	add    $0x10,%rsp
  408722:	5d                   	pop    %rbp
  408723:	c3                   	retq   
  408724:	66 2e 0f 1f 84 00 00 	nopw   %cs:0x0(%rax,%rax,1)
  40872b:	00 00 00 
  40872e:	66 90                	xchg   %ax,%ax

0000000000408730 <_ZN5boost16exception_detail10clone_baseC2ERKS1_>:
  408730:	55                   	push   %rbp
  408731:	48 89 e5             	mov    %rsp,%rbp
  408734:	48 b8 78 e2 40 00 00 	movabs $0x40e278,%rax
  40873b:	00 00 00 
  40873e:	48 05 10 00 00 00    	add    $0x10,%rax
  408744:	48 89 7d f8          	mov    %rdi,-0x8(%rbp)
  408748:	48 89 75 f0          	mov    %rsi,-0x10(%rbp)
  40874c:	48 8b 4d f8          	mov    -0x8(%rbp),%rcx
  408750:	48 89 01             	mov    %rax,(%rcx)
  408753:	5d                   	pop    %rbp
  408754:	c3                   	retq   
  408755:	66 2e 0f 1f 84 00 00 	nopw   %cs:0x0(%rax,%rax,1)
  40875c:	00 00 00 
  40875f:	90                   	nop

0000000000408760 <_ZN5boost9exceptionC2ERKS0_>:
  408760:	55                   	push   %rbp
  408761:	48 89 e5             	mov    %rsp,%rbp
  408764:	48 83 ec 20          	sub    $0x20,%rsp
  408768:	48 b8 d0 e2 40 00 00 	movabs $0x40e2d0,%rax
  40876f:	00 00 00 
  408772:	48 05 10 00 00 00    	add    $0x10,%rax
  408778:	48 89 7d f8          	mov    %rdi,-0x8(%rbp)
  40877c:	48 89 75 f0          	mov    %rsi,-0x10(%rbp)
  408780:	48 8b 4d f8          	mov    -0x8(%rbp),%rcx
  408784:	48 89 01             	mov    %rax,(%rcx)
  408787:	48 89 c8             	mov    %rcx,%rax
  40878a:	48 05 08 00 00 00    	add    $0x8,%rax
  408790:	48 8b 55 f0          	mov    -0x10(%rbp),%rdx
  408794:	48 81 c2 08 00 00 00 	add    $0x8,%rdx
  40879b:	48 89 c7             	mov    %rax,%rdi
  40879e:	48 89 d6             	mov    %rdx,%rsi
  4087a1:	48 89 4d e8          	mov    %rcx,-0x18(%rbp)
  4087a5:	e8 26 00 00 00       	callq  4087d0 <_ZN5boost16exception_detail12refcount_ptrINS0_20error_info_containerEEC2ERKS3_>
  4087aa:	48 8b 45 f0          	mov    -0x10(%rbp),%rax
  4087ae:	48 8b 48 10          	mov    0x10(%rax),%rcx
  4087b2:	48 8b 55 e8          	mov    -0x18(%rbp),%rdx
  4087b6:	48 89 4a 10          	mov    %rcx,0x10(%rdx)
  4087ba:	48 8b 48 18          	mov    0x18(%rax),%rcx
  4087be:	48 89 4a 18          	mov    %rcx,0x18(%rdx)
  4087c2:	44 8b 40 20          	mov    0x20(%rax),%r8d
  4087c6:	44 89 42 20          	mov    %r8d,0x20(%rdx)
  4087ca:	48 83 c4 20          	add    $0x20,%rsp
  4087ce:	5d                   	pop    %rbp
  4087cf:	c3                   	retq   

00000000004087d0 <_ZN5boost16exception_detail12refcount_ptrINS0_20error_info_containerEEC2ERKS3_>:
  4087d0:	55                   	push   %rbp
  4087d1:	48 89 e5             	mov    %rsp,%rbp
  4087d4:	48 83 ec 10          	sub    $0x10,%rsp
  4087d8:	48 89 7d f8          	mov    %rdi,-0x8(%rbp)
  4087dc:	48 89 75 f0          	mov    %rsi,-0x10(%rbp)
  4087e0:	48 8b 45 f8          	mov    -0x8(%rbp),%rax
  4087e4:	48 8b 4d f0          	mov    -0x10(%rbp),%rcx
  4087e8:	48 8b 09             	mov    (%rcx),%rcx
  4087eb:	48 89 08             	mov    %rcx,(%rax)
  4087ee:	48 89 c7             	mov    %rax,%rdi
  4087f1:	e8 0a 00 00 00       	callq  408800 <_ZN5boost16exception_detail12refcount_ptrINS0_20error_info_containerEE7add_refEv>
  4087f6:	48 83 c4 10          	add    $0x10,%rsp
  4087fa:	5d                   	pop    %rbp
  4087fb:	c3                   	retq   
  4087fc:	0f 1f 40 00          	nopl   0x0(%rax)

0000000000408800 <_ZN5boost16exception_detail12refcount_ptrINS0_20error_info_containerEE7add_refEv>:
  408800:	55                   	push   %rbp
  408801:	48 89 e5             	mov    %rsp,%rbp
  408804:	48 83 ec 10          	sub    $0x10,%rsp
  408808:	48 89 7d f8          	mov    %rdi,-0x8(%rbp)
  40880c:	48 8b 45 f8          	mov    -0x8(%rbp),%rax
  408810:	48 83 38 00          	cmpq   $0x0,(%rax)
  408814:	48 89 45 f0          	mov    %rax,-0x10(%rbp)
  408818:	0f 84 10 00 00 00    	je     40882e <_ZN5boost16exception_detail12refcount_ptrINS0_20error_info_containerEE7add_refEv+0x2e>
  40881e:	48 8b 45 f0          	mov    -0x10(%rbp),%rax
  408822:	48 8b 08             	mov    (%rax),%rcx
  408825:	48 8b 11             	mov    (%rcx),%rdx
  408828:	48 89 cf             	mov    %rcx,%rdi
  40882b:	ff 52 18             	callq  *0x18(%rdx)
  40882e:	48 83 c4 10          	add    $0x10,%rsp
  408832:	5d                   	pop    %rbp
  408833:	c3                   	retq   
  408834:	66 2e 0f 1f 84 00 00 	nopw   %cs:0x0(%rax,%rax,1)
  40883b:	00 00 00 
  40883e:	66 90                	xchg   %ax,%ax

0000000000408840 <_ZNK5boost16exception_detail12refcount_ptrINS0_20error_info_containerEE3getEv>:
  408840:	55                   	push   %rbp
  408841:	48 89 e5             	mov    %rsp,%rbp
  408844:	48 89 7d f8          	mov    %rdi,-0x8(%rbp)
  408848:	48 8b 45 f8          	mov    -0x8(%rbp),%rax
  40884c:	48 8b 00             	mov    (%rax),%rax
  40884f:	5d                   	pop    %rbp
  408850:	c3                   	retq   
  408851:	66 2e 0f 1f 84 00 00 	nopw   %cs:0x0(%rax,%rax,1)
  408858:	00 00 00 
  40885b:	0f 1f 44 00 00       	nopl   0x0(%rax,%rax,1)

0000000000408860 <_ZN5boost16exception_detail12refcount_ptrINS0_20error_info_containerEEaSERKS3_>:
  408860:	55                   	push   %rbp
  408861:	48 89 e5             	mov    %rsp,%rbp
  408864:	48 83 ec 20          	sub    $0x20,%rsp
  408868:	48 89 7d f8          	mov    %rdi,-0x8(%rbp)
  40886c:	48 89 75 f0          	mov    %rsi,-0x10(%rbp)
  408870:	48 8b 45 f8          	mov    -0x8(%rbp),%rax
  408874:	48 8b 4d f0          	mov    -0x10(%rbp),%rcx
  408878:	48 8b 31             	mov    (%rcx),%rsi
  40887b:	48 89 c7             	mov    %rax,%rdi
  40887e:	48 89 45 e8          	mov    %rax,-0x18(%rbp)
  408882:	e8 19 00 00 00       	callq  4088a0 <_ZN5boost16exception_detail12refcount_ptrINS0_20error_info_containerEE5adoptEPS2_>
  408887:	48 8b 45 e8          	mov    -0x18(%rbp),%rax
  40888b:	48 83 c4 20          	add    $0x20,%rsp
  40888f:	5d                   	pop    %rbp
  408890:	c3                   	retq   
  408891:	66 2e 0f 1f 84 00 00 	nopw   %cs:0x0(%rax,%rax,1)
  408898:	00 00 00 
  40889b:	0f 1f 44 00 00       	nopl   0x0(%rax,%rax,1)

00000000004088a0 <_ZN5boost16exception_detail12refcount_ptrINS0_20error_info_containerEE5adoptEPS2_>:
  4088a0:	55                   	push   %rbp
  4088a1:	48 89 e5             	mov    %rsp,%rbp
  4088a4:	48 83 ec 20          	sub    $0x20,%rsp
  4088a8:	48 89 7d f8          	mov    %rdi,-0x8(%rbp)
  4088ac:	48 89 75 f0          	mov    %rsi,-0x10(%rbp)
  4088b0:	48 8b 45 f8          	mov    -0x8(%rbp),%rax
  4088b4:	48 89 c7             	mov    %rax,%rdi
  4088b7:	48 89 45 e8          	mov    %rax,-0x18(%rbp)
  4088bb:	e8 00 fc ff ff       	callq  4084c0 <_ZN5boost16exception_detail12refcount_ptrINS0_20error_info_containerEE7releaseEv>
  4088c0:	48 8b 45 f0          	mov    -0x10(%rbp),%rax
  4088c4:	48 8b 4d e8          	mov    -0x18(%rbp),%rcx
  4088c8:	48 89 01             	mov    %rax,(%rcx)
  4088cb:	48 89 cf             	mov    %rcx,%rdi
  4088ce:	e8 2d ff ff ff       	callq  408800 <_ZN5boost16exception_detail12refcount_ptrINS0_20error_info_containerEE7add_refEv>
  4088d3:	48 83 c4 20          	add    $0x20,%rsp
  4088d7:	5d                   	pop    %rbp
  4088d8:	c3                   	retq   
  4088d9:	0f 1f 80 00 00 00 00 	nopl   0x0(%rax)

00000000004088e0 <_ZN5boost9function2INS_14iterator_rangeIN9__gnu_cxx17__normal_iteratorIPcNSt7__cxx1112basic_stringIcSt11char_traitsIcESaIcEEEEEEESB_SB_ED2Ev>:
  4088e0:	55                   	push   %rbp
  4088e1:	48 89 e5             	mov    %rsp,%rbp
  4088e4:	48 83 ec 10          	sub    $0x10,%rsp
  4088e8:	48 89 7d f8          	mov    %rdi,-0x8(%rbp)
  4088ec:	48 8b 7d f8          	mov    -0x8(%rbp),%rdi
  4088f0:	e8 1b 00 00 00       	callq  408910 <_ZN5boost9function2INS_14iterator_rangeIN9__gnu_cxx17__normal_iteratorIPcNSt7__cxx1112basic_stringIcSt11char_traitsIcESaIcEEEEEEESB_SB_E5clearEv>
  4088f5:	e9 00 00 00 00       	jmpq   4088fa <_ZN5boost9function2INS_14iterator_rangeIN9__gnu_cxx17__normal_iteratorIPcNSt7__cxx1112basic_stringIcSt11char_traitsIcESaIcEEEEEEESB_SB_ED2Ev+0x1a>
  4088fa:	48 83 c4 10          	add    $0x10,%rsp
  4088fe:	5d                   	pop    %rbp
  4088ff:	c3                   	retq   
  408900:	48 89 c7             	mov    %rax,%rdi
  408903:	89 55 f4             	mov    %edx,-0xc(%rbp)
  408906:	e8 45 b7 ff ff       	callq  404050 <__clang_call_terminate>
  40890b:	0f 1f 44 00 00       	nopl   0x0(%rax,%rax,1)

0000000000408910 <_ZN5boost9function2INS_14iterator_rangeIN9__gnu_cxx17__normal_iteratorIPcNSt7__cxx1112basic_stringIcSt11char_traitsIcESaIcEEEEEEESB_SB_E5clearEv>:
  408910:	55                   	push   %rbp
  408911:	48 89 e5             	mov    %rsp,%rbp
  408914:	48 83 ec 10          	sub    $0x10,%rsp
  408918:	48 89 7d f8          	mov    %rdi,-0x8(%rbp)
  40891c:	48 8b 45 f8          	mov    -0x8(%rbp),%rax
  408920:	48 83 38 00          	cmpq   $0x0,(%rax)
  408924:	48 89 45 f0          	mov    %rax,-0x10(%rbp)
  408928:	0f 84 3e 00 00 00    	je     40896c <_ZN5boost9function2INS_14iterator_rangeIN9__gnu_cxx17__normal_iteratorIPcNSt7__cxx1112basic_stringIcSt11char_traitsIcESaIcEEEEEEESB_SB_E5clearEv+0x5c>
  40892e:	48 8b 45 f0          	mov    -0x10(%rbp),%rax
  408932:	48 89 c7             	mov    %rax,%rdi
  408935:	e8 36 df ff ff       	callq  406870 <_ZNK5boost13function_base28has_trivial_copy_and_destroyEv>
  40893a:	a8 01                	test   $0x1,%al
  40893c:	0f 85 1f 00 00 00    	jne    408961 <_ZN5boost9function2INS_14iterator_rangeIN9__gnu_cxx17__normal_iteratorIPcNSt7__cxx1112basic_stringIcSt11char_traitsIcESaIcEEEEEEESB_SB_E5clearEv+0x51>
  408942:	48 8b 7d f0          	mov    -0x10(%rbp),%rdi
  408946:	e8 55 df ff ff       	callq  4068a0 <_ZNK5boost9function2INS_14iterator_rangeIN9__gnu_cxx17__normal_iteratorIPcNSt7__cxx1112basic_stringIcSt11char_traitsIcESaIcEEEEEEESB_SB_E10get_vtableEv>
  40894b:	48 8b 4d f0          	mov    -0x10(%rbp),%rcx
  40894f:	48 81 c1 08 00 00 00 	add    $0x8,%rcx
  408956:	48 89 c7             	mov    %rax,%rdi
  408959:	48 89 ce             	mov    %rcx,%rsi
  40895c:	e8 1f 00 00 00       	callq  408980 <_ZNK5boost6detail8function13basic_vtable2INS_14iterator_rangeIN9__gnu_cxx17__normal_iteratorIPcNSt7__cxx1112basic_stringIcSt11char_traitsIcESaIcEEEEEEESD_SD_E5clearERNS1_15function_bufferE>
  408961:	48 8b 45 f0          	mov    -0x10(%rbp),%rax
  408965:	48 c7 00 00 00 00 00 	movq   $0x0,(%rax)
  40896c:	48 83 c4 10          	add    $0x10,%rsp
  408970:	5d                   	pop    %rbp
  408971:	c3                   	retq   
  408972:	66 2e 0f 1f 84 00 00 	nopw   %cs:0x0(%rax,%rax,1)
  408979:	00 00 00 
  40897c:	0f 1f 40 00          	nopl   0x0(%rax)

0000000000408980 <_ZNK5boost6detail8function13basic_vtable2INS_14iterator_rangeIN9__gnu_cxx17__normal_iteratorIPcNSt7__cxx1112basic_stringIcSt11char_traitsIcESaIcEEEEEEESD_SD_E5clearERNS1_15function_bufferE>:
  408980:	55                   	push   %rbp
  408981:	48 89 e5             	mov    %rsp,%rbp
  408984:	48 83 ec 20          	sub    $0x20,%rsp
  408988:	48 89 7d f8          	mov    %rdi,-0x8(%rbp)
  40898c:	48 89 75 f0          	mov    %rsi,-0x10(%rbp)
  408990:	48 8b 45 f8          	mov    -0x8(%rbp),%rax
  408994:	48 83 38 00          	cmpq   $0x0,(%rax)
  408998:	48 89 45 e8          	mov    %rax,-0x18(%rbp)
  40899c:	0f 84 16 00 00 00    	je     4089b8 <_ZNK5boost6detail8function13basic_vtable2INS_14iterator_rangeIN9__gnu_cxx17__normal_iteratorIPcNSt7__cxx1112basic_stringIcSt11char_traitsIcESaIcEEEEEEESD_SD_E5clearERNS1_15function_bufferE+0x38>
  4089a2:	48 8b 45 e8          	mov    -0x18(%rbp),%rax
  4089a6:	48 8b 08             	mov    (%rax),%rcx
  4089a9:	48 8b 7d f0          	mov    -0x10(%rbp),%rdi
  4089ad:	48 8b 75 f0          	mov    -0x10(%rbp),%rsi
  4089b1:	ba 02 00 00 00       	mov    $0x2,%edx
  4089b6:	ff d1                	callq  *%rcx
  4089b8:	48 83 c4 20          	add    $0x20,%rsp
  4089bc:	5d                   	pop    %rbp
  4089bd:	c3                   	retq   
  4089be:	66 90                	xchg   %ax,%ax

00000000004089c0 <_ZN5boost9algorithm6detail18find_iterator_baseIN9__gnu_cxx17__normal_iteratorIPcNSt7__cxx1112basic_stringIcSt11char_traitsIcESaIcEEEEEEC2Ev>:
  4089c0:	55                   	push   %rbp
  4089c1:	48 89 e5             	mov    %rsp,%rbp
  4089c4:	48 83 ec 10          	sub    $0x10,%rsp
  4089c8:	48 89 7d f8          	mov    %rdi,-0x8(%rbp)
  4089cc:	48 8b 7d f8          	mov    -0x8(%rbp),%rdi
  4089d0:	e8 4b 00 00 00       	callq  408a20 <_ZN5boost9function2INS_14iterator_rangeIN9__gnu_cxx17__normal_iteratorIPcNSt7__cxx1112basic_stringIcSt11char_traitsIcESaIcEEEEEEESB_SB_EC2Ev>
  4089d5:	48 83 c4 10          	add    $0x10,%rsp
  4089d9:	5d                   	pop    %rbp
  4089da:	c3                   	retq   
  4089db:	0f 1f 44 00 00       	nopl   0x0(%rax,%rax,1)

00000000004089e0 <_ZN5boost14iterator_rangeIN9__gnu_cxx17__normal_iteratorIPcNSt7__cxx1112basic_stringIcSt11char_traitsIcESaIcEEEEEEC2Ev>:
  4089e0:	55                   	push   %rbp
  4089e1:	48 89 e5             	mov    %rsp,%rbp
  4089e4:	48 83 ec 10          	sub    $0x10,%rsp
  4089e8:	48 89 7d f8          	mov    %rdi,-0x8(%rbp)
  4089ec:	48 8b 45 f8          	mov    -0x8(%rbp),%rax
  4089f0:	48 89 c7             	mov    %rax,%rdi
  4089f3:	e8 48 00 00 00       	callq  408a40 <_ZN5boost21iterator_range_detail19iterator_range_baseIN9__gnu_cxx17__normal_iteratorIPcNSt7__cxx1112basic_stringIcSt11char_traitsIcESaIcEEEEENS_9iterators27random_access_traversal_tagEEC2Ev>
  4089f8:	48 83 c4 10          	add    $0x10,%rsp
  4089fc:	5d                   	pop    %rbp
  4089fd:	c3                   	retq   
  4089fe:	66 90                	xchg   %ax,%ax

0000000000408a00 <_ZN9__gnu_cxx17__normal_iteratorIPcNSt7__cxx1112basic_stringIcSt11char_traitsIcESaIcEEEEC2Ev>:
  408a00:	55                   	push   %rbp
  408a01:	48 89 e5             	mov    %rsp,%rbp
  408a04:	48 89 7d f8          	mov    %rdi,-0x8(%rbp)
  408a08:	48 8b 45 f8          	mov    -0x8(%rbp),%rax
  408a0c:	48 c7 00 00 00 00 00 	movq   $0x0,(%rax)
  408a13:	5d                   	pop    %rbp
  408a14:	c3                   	retq   
  408a15:	66 2e 0f 1f 84 00 00 	nopw   %cs:0x0(%rax,%rax,1)
  408a1c:	00 00 00 
  408a1f:	90                   	nop

0000000000408a20 <_ZN5boost9function2INS_14iterator_rangeIN9__gnu_cxx17__normal_iteratorIPcNSt7__cxx1112basic_stringIcSt11char_traitsIcESaIcEEEEEEESB_SB_EC2Ev>:
  408a20:	55                   	push   %rbp
  408a21:	48 89 e5             	mov    %rsp,%rbp
  408a24:	48 83 ec 10          	sub    $0x10,%rsp
  408a28:	48 89 7d f8          	mov    %rdi,-0x8(%rbp)
  408a2c:	48 8b 45 f8          	mov    -0x8(%rbp),%rax
  408a30:	48 89 c7             	mov    %rax,%rdi
  408a33:	e8 48 dd ff ff       	callq  406780 <_ZN5boost13function_baseC2Ev>
  408a38:	48 83 c4 10          	add    $0x10,%rsp
  408a3c:	5d                   	pop    %rbp
  408a3d:	c3                   	retq   
  408a3e:	66 90                	xchg   %ax,%ax

0000000000408a40 <_ZN5boost21iterator_range_detail19iterator_range_baseIN9__gnu_cxx17__normal_iteratorIPcNSt7__cxx1112basic_stringIcSt11char_traitsIcESaIcEEEEENS_9iterators27random_access_traversal_tagEEC2Ev>:
  408a40:	55                   	push   %rbp
  408a41:	48 89 e5             	mov    %rsp,%rbp
  408a44:	48 83 ec 10          	sub    $0x10,%rsp
  408a48:	48 89 7d f8          	mov    %rdi,-0x8(%rbp)
  408a4c:	48 8b 45 f8          	mov    -0x8(%rbp),%rax
  408a50:	48 89 c7             	mov    %rax,%rdi
  408a53:	e8 08 00 00 00       	callq  408a60 <_ZN5boost21iterator_range_detail19iterator_range_baseIN9__gnu_cxx17__normal_iteratorIPcNSt7__cxx1112basic_stringIcSt11char_traitsIcESaIcEEEEENS_9iterators27bidirectional_traversal_tagEEC2Ev>
  408a58:	48 83 c4 10          	add    $0x10,%rsp
  408a5c:	5d                   	pop    %rbp
  408a5d:	c3                   	retq   
  408a5e:	66 90                	xchg   %ax,%ax

0000000000408a60 <_ZN5boost21iterator_range_detail19iterator_range_baseIN9__gnu_cxx17__normal_iteratorIPcNSt7__cxx1112basic_stringIcSt11char_traitsIcESaIcEEEEENS_9iterators27bidirectional_traversal_tagEEC2Ev>:
  408a60:	55                   	push   %rbp
  408a61:	48 89 e5             	mov    %rsp,%rbp
  408a64:	48 83 ec 10          	sub    $0x10,%rsp
  408a68:	48 89 7d f8          	mov    %rdi,-0x8(%rbp)
  408a6c:	48 8b 45 f8          	mov    -0x8(%rbp),%rax
  408a70:	48 89 c7             	mov    %rax,%rdi
  408a73:	e8 08 00 00 00       	callq  408a80 <_ZN5boost21iterator_range_detail19iterator_range_baseIN9__gnu_cxx17__normal_iteratorIPcNSt7__cxx1112basic_stringIcSt11char_traitsIcESaIcEEEEENS_9iterators27incrementable_traversal_tagEEC2Ev>
  408a78:	48 83 c4 10          	add    $0x10,%rsp
  408a7c:	5d                   	pop    %rbp
  408a7d:	c3                   	retq   
  408a7e:	66 90                	xchg   %ax,%ax

0000000000408a80 <_ZN5boost21iterator_range_detail19iterator_range_baseIN9__gnu_cxx17__normal_iteratorIPcNSt7__cxx1112basic_stringIcSt11char_traitsIcESaIcEEEEENS_9iterators27incrementable_traversal_tagEEC2Ev>:
  408a80:	55                   	push   %rbp
  408a81:	48 89 e5             	mov    %rsp,%rbp
  408a84:	48 83 ec 10          	sub    $0x10,%rsp
  408a88:	48 89 7d f8          	mov    %rdi,-0x8(%rbp)
  408a8c:	48 8b 45 f8          	mov    -0x8(%rbp),%rax
  408a90:	48 89 c7             	mov    %rax,%rdi
  408a93:	48 89 45 f0          	mov    %rax,-0x10(%rbp)
  408a97:	e8 64 ff ff ff       	callq  408a00 <_ZN9__gnu_cxx17__normal_iteratorIPcNSt7__cxx1112basic_stringIcSt11char_traitsIcESaIcEEEEC2Ev>
  408a9c:	48 8b 45 f0          	mov    -0x10(%rbp),%rax
  408aa0:	48 05 08 00 00 00    	add    $0x8,%rax
  408aa6:	48 89 c7             	mov    %rax,%rdi
  408aa9:	e8 52 ff ff ff       	callq  408a00 <_ZN9__gnu_cxx17__normal_iteratorIPcNSt7__cxx1112basic_stringIcSt11char_traitsIcESaIcEEEEC2Ev>
  408aae:	48 83 c4 10          	add    $0x10,%rsp
  408ab2:	5d                   	pop    %rbp
  408ab3:	c3                   	retq   
  408ab4:	66 2e 0f 1f 84 00 00 	nopw   %cs:0x0(%rax,%rax,1)
  408abb:	00 00 00 
  408abe:	66 90                	xchg   %ax,%ax

0000000000408ac0 <_ZN5boost9iterators16iterator_adaptorINS0_18transform_iteratorINS_9algorithm6detail20copy_iterator_rangeFINSt7__cxx1112basic_stringIcSt11char_traitsIcESaIcEEEN9__gnu_cxx17__normal_iteratorIPcSB_EEEENS3_14split_iteratorISF_EENS_11use_defaultESJ_EESI_SB_SJ_SB_SJ_EC2ERKSL_>:
  408ac0:	55                   	push   %rbp
  408ac1:	48 89 e5             	mov    %rsp,%rbp
  408ac4:	48 83 ec 10          	sub    $0x10,%rsp
  408ac8:	48 89 7d f8          	mov    %rdi,-0x8(%rbp)
  408acc:	48 89 75 f0          	mov    %rsi,-0x10(%rbp)
  408ad0:	48 8b 7d f8          	mov    -0x8(%rbp),%rdi
  408ad4:	48 8b 75 f0          	mov    -0x10(%rbp),%rsi
  408ad8:	e8 c3 db ff ff       	callq  4066a0 <_ZN5boost9algorithm14split_iteratorIN9__gnu_cxx17__normal_iteratorIPcNSt7__cxx1112basic_stringIcSt11char_traitsIcESaIcEEEEEEC2ERKSC_>
  408add:	48 83 c4 10          	add    $0x10,%rsp
  408ae1:	5d                   	pop    %rbp
  408ae2:	c3                   	retq   
  408ae3:	66 2e 0f 1f 84 00 00 	nopw   %cs:0x0(%rax,%rax,1)
  408aea:	00 00 00 
  408aed:	0f 1f 00             	nopl   (%rax)

0000000000408af0 <_ZNSt12_Vector_baseINSt7__cxx1112basic_stringIcSt11char_traitsIcESaIcEEESaIS5_EEC2ERKS6_>:
  408af0:	55                   	push   %rbp
  408af1:	48 89 e5             	mov    %rsp,%rbp
  408af4:	48 83 ec 10          	sub    $0x10,%rsp
  408af8:	48 89 7d f8          	mov    %rdi,-0x8(%rbp)
  408afc:	48 89 75 f0          	mov    %rsi,-0x10(%rbp)
  408b00:	48 8b 7d f8          	mov    -0x8(%rbp),%rdi
  408b04:	48 8b 75 f0          	mov    -0x10(%rbp),%rsi
  408b08:	e8 23 01 00 00       	callq  408c30 <_ZNSt12_Vector_baseINSt7__cxx1112basic_stringIcSt11char_traitsIcESaIcEEESaIS5_EE12_Vector_implC2ERKS6_>
  408b0d:	48 83 c4 10          	add    $0x10,%rsp
  408b11:	5d                   	pop    %rbp
  408b12:	c3                   	retq   
  408b13:	66 2e 0f 1f 84 00 00 	nopw   %cs:0x0(%rax,%rax,1)
  408b1a:	00 00 00 
  408b1d:	0f 1f 00             	nopl   (%rax)

0000000000408b20 <_ZNSt6vectorINSt7__cxx1112basic_stringIcSt11char_traitsIcESaIcEEESaIS5_EE19_M_range_initializeIN5boost9iterators18transform_iteratorINS9_9algorithm6detail20copy_iterator_rangeFIS5_N9__gnu_cxx17__normal_iteratorIPcS5_EEEENSC_14split_iteratorISI_EENS9_11use_defaultESM_EEEEvT_SO_St18input_iterator_tag>:
  408b20:	55                   	push   %rbp
  408b21:	48 89 e5             	mov    %rsp,%rbp
  408b24:	48 83 ec 70          	sub    $0x70,%rsp
  408b28:	48 89 7d f0          	mov    %rdi,-0x10(%rbp)
  408b2c:	48 8b 45 f0          	mov    -0x10(%rbp),%rax
  408b30:	48 89 75 b8          	mov    %rsi,-0x48(%rbp)
  408b34:	48 89 55 b0          	mov    %rdx,-0x50(%rbp)
  408b38:	48 89 45 a8          	mov    %rax,-0x58(%rbp)
  408b3c:	48 8b 7d b8          	mov    -0x48(%rbp),%rdi
  408b40:	48 8b 75 b0          	mov    -0x50(%rbp),%rsi
  408b44:	e8 37 01 00 00       	callq  408c80 <_ZN5boost9iteratorsneINS0_18transform_iteratorINS_9algorithm6detail20copy_iterator_rangeFINSt7__cxx1112basic_stringIcSt11char_traitsIcESaIcEEEN9__gnu_cxx17__normal_iteratorIPcSB_EEEENS3_14split_iteratorISF_EENS_11use_defaultESJ_EESB_NS0_21forward_traversal_tagESB_lSK_SB_SL_SB_lEENS0_6detail23enable_if_interoperableIT_T4_NS_3mpl6apply2INSM_12always_bool2ESO_SP_E4typeEE4typeERKNS0_15iterator_facadeISO_T0_T1_T2_T3_EERKNSX_ISP_T5_T6_T7_T8_EE>
  408b49:	88 45 a7             	mov    %al,-0x59(%rbp)
  408b4c:	e9 00 00 00 00       	jmpq   408b51 <_ZNSt6vectorINSt7__cxx1112basic_stringIcSt11char_traitsIcESaIcEEESaIS5_EE19_M_range_initializeIN5boost9iterators18transform_iteratorINS9_9algorithm6detail20copy_iterator_rangeFIS5_N9__gnu_cxx17__normal_iteratorIPcS5_EEEENSC_14split_iteratorISI_EENS9_11use_defaultESM_EEEEvT_SO_St18input_iterator_tag+0x31>
  408b51:	8a 45 a7             	mov    -0x59(%rbp),%al
  408b54:	a8 01                	test   $0x1,%al
  408b56:	0f 85 05 00 00 00    	jne    408b61 <_ZNSt6vectorINSt7__cxx1112basic_stringIcSt11char_traitsIcESaIcEEESaIS5_EE19_M_range_initializeIN5boost9iterators18transform_iteratorINS9_9algorithm6detail20copy_iterator_rangeFIS5_N9__gnu_cxx17__normal_iteratorIPcS5_EEEENSC_14split_iteratorISI_EENS9_11use_defaultESM_EEEEvT_SO_St18input_iterator_tag+0x41>
  408b5c:	e9 7c 00 00 00       	jmpq   408bdd <_ZNSt6vectorINSt7__cxx1112basic_stringIcSt11char_traitsIcESaIcEEESaIS5_EE19_M_range_initializeIN5boost9iterators18transform_iteratorINS9_9algorithm6detail20copy_iterator_rangeFIS5_N9__gnu_cxx17__normal_iteratorIPcS5_EEEENSC_14split_iteratorISI_EENS9_11use_defaultESM_EEEEvT_SO_St18input_iterator_tag+0xbd>
  408b61:	48 8d 7d c0          	lea    -0x40(%rbp),%rdi
  408b65:	48 8b 75 b8          	mov    -0x48(%rbp),%rsi
  408b69:	e8 02 02 00 00       	callq  408d70 <_ZNK5boost9iterators6detail20iterator_facade_baseINS0_18transform_iteratorINS_9algorithm6detail20copy_iterator_rangeFINSt7__cxx1112basic_stringIcSt11char_traitsIcESaIcEEEN9__gnu_cxx17__normal_iteratorIPcSC_EEEENS4_14split_iteratorISG_EENS_11use_defaultESK_EESC_NS0_21forward_traversal_tagESC_lLb0ELb0EEdeEv>
  408b6e:	e9 00 00 00 00       	jmpq   408b73 <_ZNSt6vectorINSt7__cxx1112basic_stringIcSt11char_traitsIcESaIcEEESaIS5_EE19_M_range_initializeIN5boost9iterators18transform_iteratorINS9_9algorithm6detail20copy_iterator_rangeFIS5_N9__gnu_cxx17__normal_iteratorIPcS5_EEEENSC_14split_iteratorISI_EENS9_11use_defaultESM_EEEEvT_SO_St18input_iterator_tag+0x53>
  408b73:	48 8d 75 c0          	lea    -0x40(%rbp),%rsi
  408b77:	48 8b 7d a8          	mov    -0x58(%rbp),%rdi
  408b7b:	e8 50 01 00 00       	callq  408cd0 <_ZNSt6vectorINSt7__cxx1112basic_stringIcSt11char_traitsIcESaIcEEESaIS5_EE12emplace_backIJS5_EEEvDpOT_>
  408b80:	e9 00 00 00 00       	jmpq   408b85 <_ZNSt6vectorINSt7__cxx1112basic_stringIcSt11char_traitsIcESaIcEEESaIS5_EE19_M_range_initializeIN5boost9iterators18transform_iteratorINS9_9algorithm6detail20copy_iterator_rangeFIS5_N9__gnu_cxx17__normal_iteratorIPcS5_EEEENSC_14split_iteratorISI_EENS9_11use_defaultESM_EEEEvT_SO_St18input_iterator_tag+0x65>
  408b85:	48 8d 7d c0          	lea    -0x40(%rbp),%rdi
  408b89:	e8 b2 a5 ff ff       	callq  403140 <_ZNSt7__cxx1112basic_stringIcSt11char_traitsIcESaIcEED1Ev@plt>
  408b8e:	48 8b 7d b8          	mov    -0x48(%rbp),%rdi
  408b92:	e8 19 02 00 00       	callq  408db0 <_ZN5boost9iterators6detail20iterator_facade_baseINS0_18transform_iteratorINS_9algorithm6detail20copy_iterator_rangeFINSt7__cxx1112basic_stringIcSt11char_traitsIcESaIcEEEN9__gnu_cxx17__normal_iteratorIPcSC_EEEENS4_14split_iteratorISG_EENS_11use_defaultESK_EESC_NS0_21forward_traversal_tagESC_lLb0ELb0EEppEv>
  408b97:	e9 00 00 00 00       	jmpq   408b9c <_ZNSt6vectorINSt7__cxx1112basic_stringIcSt11char_traitsIcESaIcEEESaIS5_EE19_M_range_initializeIN5boost9iterators18transform_iteratorINS9_9algorithm6detail20copy_iterator_rangeFIS5_N9__gnu_cxx17__normal_iteratorIPcS5_EEEENSC_14split_iteratorISI_EENS9_11use_defaultESM_EEEEvT_SO_St18input_iterator_tag+0x7c>
  408b9c:	e9 9b ff ff ff       	jmpq   408b3c <_ZNSt6vectorINSt7__cxx1112basic_stringIcSt11char_traitsIcESaIcEEESaIS5_EE19_M_range_initializeIN5boost9iterators18transform_iteratorINS9_9algorithm6detail20copy_iterator_rangeFIS5_N9__gnu_cxx17__normal_iteratorIPcS5_EEEENSC_14split_iteratorISI_EENS9_11use_defaultESM_EEEEvT_SO_St18input_iterator_tag+0x1c>
  408ba1:	48 89 45 e8          	mov    %rax,-0x18(%rbp)
  408ba5:	89 55 e4             	mov    %edx,-0x1c(%rbp)
  408ba8:	e9 10 00 00 00       	jmpq   408bbd <_ZNSt6vectorINSt7__cxx1112basic_stringIcSt11char_traitsIcESaIcEEESaIS5_EE19_M_range_initializeIN5boost9iterators18transform_iteratorINS9_9algorithm6detail20copy_iterator_rangeFIS5_N9__gnu_cxx17__normal_iteratorIPcS5_EEEENSC_14split_iteratorISI_EENS9_11use_defaultESM_EEEEvT_SO_St18input_iterator_tag+0x9d>
  408bad:	48 89 45 e8          	mov    %rax,-0x18(%rbp)
  408bb1:	89 55 e4             	mov    %edx,-0x1c(%rbp)
  408bb4:	48 8d 7d c0          	lea    -0x40(%rbp),%rdi
  408bb8:	e8 83 a5 ff ff       	callq  403140 <_ZNSt7__cxx1112basic_stringIcSt11char_traitsIcESaIcEED1Ev@plt>
  408bbd:	48 8b 7d e8          	mov    -0x18(%rbp),%rdi
  408bc1:	e8 da a4 ff ff       	callq  4030a0 <__cxa_begin_catch@plt>
  408bc6:	48 8b 7d a8          	mov    -0x58(%rbp),%rdi
  408bca:	48 89 45 98          	mov    %rax,-0x68(%rbp)
  408bce:	e8 1d 02 00 00       	callq  408df0 <_ZNSt6vectorINSt7__cxx1112basic_stringIcSt11char_traitsIcESaIcEEESaIS5_EE5clearEv>
  408bd3:	e8 88 a7 ff ff       	callq  403360 <__cxa_rethrow@plt>
  408bd8:	e9 35 00 00 00       	jmpq   408c12 <_ZNSt6vectorINSt7__cxx1112basic_stringIcSt11char_traitsIcESaIcEEESaIS5_EE19_M_range_initializeIN5boost9iterators18transform_iteratorINS9_9algorithm6detail20copy_iterator_rangeFIS5_N9__gnu_cxx17__normal_iteratorIPcS5_EEEENSC_14split_iteratorISI_EENS9_11use_defaultESM_EEEEvT_SO_St18input_iterator_tag+0xf2>
  408bdd:	e9 16 00 00 00       	jmpq   408bf8 <_ZNSt6vectorINSt7__cxx1112basic_stringIcSt11char_traitsIcESaIcEEESaIS5_EE19_M_range_initializeIN5boost9iterators18transform_iteratorINS9_9algorithm6detail20copy_iterator_rangeFIS5_N9__gnu_cxx17__normal_iteratorIPcS5_EEEENSC_14split_iteratorISI_EENS9_11use_defaultESM_EEEEvT_SO_St18input_iterator_tag+0xd8>
  408be2:	48 89 45 e8          	mov    %rax,-0x18(%rbp)
  408be6:	89 55 e4             	mov    %edx,-0x1c(%rbp)
  408be9:	e8 c2 a7 ff ff       	callq  4033b0 <__cxa_end_catch@plt>
  408bee:	e9 00 00 00 00       	jmpq   408bf3 <_ZNSt6vectorINSt7__cxx1112basic_stringIcSt11char_traitsIcESaIcEEESaIS5_EE19_M_range_initializeIN5boost9iterators18transform_iteratorINS9_9algorithm6detail20copy_iterator_rangeFIS5_N9__gnu_cxx17__normal_iteratorIPcS5_EEEENSC_14split_iteratorISI_EENS9_11use_defaultESM_EEEEvT_SO_St18input_iterator_tag+0xd3>
  408bf3:	e9 06 00 00 00       	jmpq   408bfe <_ZNSt6vectorINSt7__cxx1112basic_stringIcSt11char_traitsIcESaIcEEESaIS5_EE19_M_range_initializeIN5boost9iterators18transform_iteratorINS9_9algorithm6detail20copy_iterator_rangeFIS5_N9__gnu_cxx17__normal_iteratorIPcS5_EEEENSC_14split_iteratorISI_EENS9_11use_defaultESM_EEEEvT_SO_St18input_iterator_tag+0xde>
  408bf8:	48 83 c4 70          	add    $0x70,%rsp
  408bfc:	5d                   	pop    %rbp
  408bfd:	c3                   	retq   
  408bfe:	48 8b 7d e8          	mov    -0x18(%rbp),%rdi
  408c02:	e8 d9 a7 ff ff       	callq  4033e0 <_Unwind_Resume@plt>
  408c07:	48 89 c7             	mov    %rax,%rdi
  408c0a:	89 55 94             	mov    %edx,-0x6c(%rbp)
  408c0d:	e8 3e b4 ff ff       	callq  404050 <__clang_call_terminate>
  408c12:	66 2e 0f 1f 84 00 00 	nopw   %cs:0x0(%rax,%rax,1)
  408c19:	00 00 00 
  408c1c:	0f 1f 40 00          	nopl   0x0(%rax)

0000000000408c20 <_ZSt19__iterator_categoryIN5boost9iterators18transform_iteratorINS0_9algorithm6detail20copy_iterator_rangeFINSt7__cxx1112basic_stringIcSt11char_traitsIcESaIcEEEN9__gnu_cxx17__normal_iteratorIPcSB_EEEENS3_14split_iteratorISF_EENS0_11use_defaultESJ_EEENSt15iterator_traitsIT_E17iterator_categoryERKSM_>:
  408c20:	55                   	push   %rbp
  408c21:	48 89 e5             	mov    %rsp,%rbp
  408c24:	48 89 7d f8          	mov    %rdi,-0x8(%rbp)
  408c28:	5d                   	pop    %rbp
  408c29:	c3                   	retq   
  408c2a:	66 0f 1f 44 00 00    	nopw   0x0(%rax,%rax,1)

0000000000408c30 <_ZNSt12_Vector_baseINSt7__cxx1112basic_stringIcSt11char_traitsIcESaIcEEESaIS5_EE12_Vector_implC2ERKS6_>:
  408c30:	55                   	push   %rbp
  408c31:	48 89 e5             	mov    %rsp,%rbp
  408c34:	48 83 ec 20          	sub    $0x20,%rsp
  408c38:	48 89 7d f8          	mov    %rdi,-0x8(%rbp)
  408c3c:	48 89 75 f0          	mov    %rsi,-0x10(%rbp)
  408c40:	48 8b 45 f8          	mov    -0x8(%rbp),%rax
  408c44:	48 89 c1             	mov    %rax,%rcx
  408c47:	48 8b 75 f0          	mov    -0x10(%rbp),%rsi
  408c4b:	48 89 cf             	mov    %rcx,%rdi
  408c4e:	48 89 45 e8          	mov    %rax,-0x18(%rbp)
  408c52:	e8 49 1e 00 00       	callq  40aaa0 <_ZNSaINSt7__cxx1112basic_stringIcSt11char_traitsIcESaIcEEEEC2ERKS5_>
  408c57:	48 8b 45 e8          	mov    -0x18(%rbp),%rax
  408c5b:	48 89 c7             	mov    %rax,%rdi
  408c5e:	e8 8d 17 00 00       	callq  40a3f0 <_ZNSt12_Vector_baseINSt7__cxx1112basic_stringIcSt11char_traitsIcESaIcEEESaIS5_EE17_Vector_impl_dataC2Ev>
  408c63:	48 83 c4 20          	add    $0x20,%rsp
  408c67:	5d                   	pop    %rbp
  408c68:	c3                   	retq   
  408c69:	0f 1f 80 00 00 00 00 	nopl   0x0(%rax)

0000000000408c70 <_ZN9__gnu_cxx13new_allocatorINSt7__cxx1112basic_stringIcSt11char_traitsIcESaIcEEEEC2ERKS7_>:
  408c70:	55                   	push   %rbp
  408c71:	48 89 e5             	mov    %rsp,%rbp
  408c74:	48 89 7d f8          	mov    %rdi,-0x8(%rbp)
  408c78:	48 89 75 f0          	mov    %rsi,-0x10(%rbp)
  408c7c:	5d                   	pop    %rbp
  408c7d:	c3                   	retq   
  408c7e:	66 90                	xchg   %ax,%ax

0000000000408c80 <_ZN5boost9iteratorsneINS0_18transform_iteratorINS_9algorithm6detail20copy_iterator_rangeFINSt7__cxx1112basic_stringIcSt11char_traitsIcESaIcEEEN9__gnu_cxx17__normal_iteratorIPcSB_EEEENS3_14split_iteratorISF_EENS_11use_defaultESJ_EESB_NS0_21forward_traversal_tagESB_lSK_SB_SL_SB_lEENS0_6detail23enable_if_interoperableIT_T4_NS_3mpl6apply2INSM_12always_bool2ESO_SP_E4typeEE4typeERKNS0_15iterator_facadeISO_T0_T1_T2_T3_EERKNSX_ISP_T5_T6_T7_T8_EE>:
  408c80:	55                   	push   %rbp
  408c81:	48 89 e5             	mov    %rsp,%rbp
  408c84:	48 83 ec 40          	sub    $0x40,%rsp
  408c88:	48 89 7d f8          	mov    %rdi,-0x8(%rbp)
  408c8c:	48 89 75 f0          	mov    %rsi,-0x10(%rbp)
  408c90:	48 8b 45 f8          	mov    -0x8(%rbp),%rax
  408c94:	48 8b 4d f0          	mov    -0x10(%rbp),%rcx
  408c98:	48 8d 55 e0          	lea    -0x20(%rbp),%rdx
  408c9c:	48 89 d7             	mov    %rdx,%rdi
  408c9f:	48 89 45 d8          	mov    %rax,-0x28(%rbp)
  408ca3:	48 89 4d d0          	mov    %rcx,-0x30(%rbp)
  408ca7:	e8 a4 01 00 00       	callq  408e50 <_ZNK5boost17integral_constantIbLb1EEcvRKN4mpl_5bool_ILb1EEEEv>
  408cac:	48 8b 7d d8          	mov    -0x28(%rbp),%rdi
  408cb0:	48 8b 75 d0          	mov    -0x30(%rbp),%rsi
  408cb4:	48 89 45 c8          	mov    %rax,-0x38(%rbp)
  408cb8:	e8 63 01 00 00       	callq  408e20 <_ZN5boost9iterators20iterator_core_access5equalINS0_18transform_iteratorINS_9algorithm6detail20copy_iterator_rangeFINSt7__cxx1112basic_stringIcSt11char_traitsIcESaIcEEEN9__gnu_cxx17__normal_iteratorIPcSC_EEEENS4_14split_iteratorISG_EENS_11use_defaultESK_EESL_EEbRKT_RKT0_N4mpl_5bool_ILb1EEE>
  408cbd:	34 ff                	xor    $0xff,%al
  408cbf:	24 01                	and    $0x1,%al
  408cc1:	0f b6 c0             	movzbl %al,%eax
  408cc4:	48 83 c4 40          	add    $0x40,%rsp
  408cc8:	5d                   	pop    %rbp
  408cc9:	c3                   	retq   
  408cca:	66 0f 1f 44 00 00    	nopw   0x0(%rax,%rax,1)

0000000000408cd0 <_ZNSt6vectorINSt7__cxx1112basic_stringIcSt11char_traitsIcESaIcEEESaIS5_EE12emplace_backIJS5_EEEvDpOT_>:
  408cd0:	55                   	push   %rbp
  408cd1:	48 89 e5             	mov    %rsp,%rbp
  408cd4:	48 83 ec 30          	sub    $0x30,%rsp
  408cd8:	48 89 7d f8          	mov    %rdi,-0x8(%rbp)
  408cdc:	48 89 75 f0          	mov    %rsi,-0x10(%rbp)
  408ce0:	48 8b 45 f8          	mov    -0x8(%rbp),%rax
  408ce4:	48 8b 48 08          	mov    0x8(%rax),%rcx
  408ce8:	48 3b 48 10          	cmp    0x10(%rax),%rcx
  408cec:	48 89 45 e0          	mov    %rax,-0x20(%rbp)
  408cf0:	0f 84 45 00 00 00    	je     408d3b <_ZNSt6vectorINSt7__cxx1112basic_stringIcSt11char_traitsIcESaIcEEESaIS5_EE12emplace_backIJS5_EEEvDpOT_+0x6b>
  408cf6:	48 8b 45 e0          	mov    -0x20(%rbp),%rax
  408cfa:	48 8b 4d e0          	mov    -0x20(%rbp),%rcx
  408cfe:	48 8b 71 08          	mov    0x8(%rcx),%rsi
  408d02:	48 8b 7d f0          	mov    -0x10(%rbp),%rdi
  408d06:	48 89 45 d8          	mov    %rax,-0x28(%rbp)
  408d0a:	48 89 75 d0          	mov    %rsi,-0x30(%rbp)
  408d0e:	e8 8d 07 00 00       	callq  4094a0 <_ZSt7forwardINSt7__cxx1112basic_stringIcSt11char_traitsIcESaIcEEEEOT_RNSt16remove_referenceIS6_E4typeE>
  408d13:	48 8b 7d d8          	mov    -0x28(%rbp),%rdi
  408d17:	48 8b 75 d0          	mov    -0x30(%rbp),%rsi
  408d1b:	48 89 c2             	mov    %rax,%rdx
  408d1e:	e8 2d 07 00 00       	callq  409450 <_ZNSt16allocator_traitsISaINSt7__cxx1112basic_stringIcSt11char_traitsIcESaIcEEEEE9constructIS5_JS5_EEEvRS6_PT_DpOT0_>
  408d23:	48 8b 45 e0          	mov    -0x20(%rbp),%rax
  408d27:	48 8b 48 08          	mov    0x8(%rax),%rcx
  408d2b:	48 81 c1 20 00 00 00 	add    $0x20,%rcx
  408d32:	48 89 48 08          	mov    %rcx,0x8(%rax)
  408d36:	e9 26 00 00 00       	jmpq   408d61 <_ZNSt6vectorINSt7__cxx1112basic_stringIcSt11char_traitsIcESaIcEEESaIS5_EE12emplace_backIJS5_EEEvDpOT_+0x91>
  408d3b:	48 8b 7d e0          	mov    -0x20(%rbp),%rdi
  408d3f:	e8 2c 09 00 00       	callq  409670 <_ZNSt6vectorINSt7__cxx1112basic_stringIcSt11char_traitsIcESaIcEEESaIS5_EE3endEv>
  408d44:	48 89 45 e8          	mov    %rax,-0x18(%rbp)
  408d48:	48 8b 7d f0          	mov    -0x10(%rbp),%rdi
  408d4c:	e8 4f 07 00 00       	callq  4094a0 <_ZSt7forwardINSt7__cxx1112basic_stringIcSt11char_traitsIcESaIcEEEEOT_RNSt16remove_referenceIS6_E4typeE>
  408d51:	48 8b 75 e8          	mov    -0x18(%rbp),%rsi
  408d55:	48 8b 7d e0          	mov    -0x20(%rbp),%rdi
  408d59:	48 89 c2             	mov    %rax,%rdx
  408d5c:	e8 4f 07 00 00       	callq  4094b0 <_ZNSt6vectorINSt7__cxx1112basic_stringIcSt11char_traitsIcESaIcEEESaIS5_EE17_M_realloc_insertIJS5_EEEvN9__gnu_cxx17__normal_iteratorIPS5_S7_EEDpOT_>
  408d61:	48 83 c4 30          	add    $0x30,%rsp
  408d65:	5d                   	pop    %rbp
  408d66:	c3                   	retq   
  408d67:	66 0f 1f 84 00 00 00 	nopw   0x0(%rax,%rax,1)
  408d6e:	00 00 

0000000000408d70 <_ZNK5boost9iterators6detail20iterator_facade_baseINS0_18transform_iteratorINS_9algorithm6detail20copy_iterator_rangeFINSt7__cxx1112basic_stringIcSt11char_traitsIcESaIcEEEN9__gnu_cxx17__normal_iteratorIPcSC_EEEENS4_14split_iteratorISG_EENS_11use_defaultESK_EESC_NS0_21forward_traversal_tagESC_lLb0ELb0EEdeEv>:
  408d70:	55                   	push   %rbp
  408d71:	48 89 e5             	mov    %rsp,%rbp
  408d74:	48 83 ec 20          	sub    $0x20,%rsp
  408d78:	48 89 f8             	mov    %rdi,%rax
  408d7b:	48 89 f9             	mov    %rdi,%rcx
  408d7e:	48 89 4d f8          	mov    %rcx,-0x8(%rbp)
  408d82:	48 89 75 f0          	mov    %rsi,-0x10(%rbp)
  408d86:	48 8b 4d f0          	mov    -0x10(%rbp),%rcx
  408d8a:	48 89 7d e8          	mov    %rdi,-0x18(%rbp)
  408d8e:	48 89 cf             	mov    %rcx,%rdi
  408d91:	48 89 45 e0          	mov    %rax,-0x20(%rbp)
  408d95:	e8 96 0f 00 00       	callq  409d30 <_ZNK5boost9iterators6detail20iterator_facade_baseINS0_18transform_iteratorINS_9algorithm6detail20copy_iterator_rangeFINSt7__cxx1112basic_stringIcSt11char_traitsIcESaIcEEEN9__gnu_cxx17__normal_iteratorIPcSC_EEEENS4_14split_iteratorISG_EENS_11use_defaultESK_EESC_NS0_21forward_traversal_tagESC_lLb0ELb0EE7derivedEv>
  408d9a:	48 8b 7d e8          	mov    -0x18(%rbp),%rdi
  408d9e:	48 89 c6             	mov    %rax,%rsi
  408da1:	e8 5a 0f 00 00       	callq  409d00 <_ZN5boost9iterators20iterator_core_access11dereferenceINS0_18transform_iteratorINS_9algorithm6detail20copy_iterator_rangeFINSt7__cxx1112basic_stringIcSt11char_traitsIcESaIcEEEN9__gnu_cxx17__normal_iteratorIPcSC_EEEENS4_14split_iteratorISG_EENS_11use_defaultESK_EEEENT_9referenceERKSM_>
  408da6:	48 8b 45 e0          	mov    -0x20(%rbp),%rax
  408daa:	48 83 c4 20          	add    $0x20,%rsp
  408dae:	5d                   	pop    %rbp
  408daf:	c3                   	retq   

0000000000408db0 <_ZN5boost9iterators6detail20iterator_facade_baseINS0_18transform_iteratorINS_9algorithm6detail20copy_iterator_rangeFINSt7__cxx1112basic_stringIcSt11char_traitsIcESaIcEEEN9__gnu_cxx17__normal_iteratorIPcSC_EEEENS4_14split_iteratorISG_EENS_11use_defaultESK_EESC_NS0_21forward_traversal_tagESC_lLb0ELb0EEppEv>:
  408db0:	55                   	push   %rbp
  408db1:	48 89 e5             	mov    %rsp,%rbp
  408db4:	48 83 ec 10          	sub    $0x10,%rsp
  408db8:	48 89 7d f8          	mov    %rdi,-0x8(%rbp)
  408dbc:	48 8b 45 f8          	mov    -0x8(%rbp),%rax
  408dc0:	48 89 c7             	mov    %rax,%rdi
  408dc3:	48 89 45 f0          	mov    %rax,-0x10(%rbp)
  408dc7:	e8 54 14 00 00       	callq  40a220 <_ZN5boost9iterators6detail20iterator_facade_baseINS0_18transform_iteratorINS_9algorithm6detail20copy_iterator_rangeFINSt7__cxx1112basic_stringIcSt11char_traitsIcESaIcEEEN9__gnu_cxx17__normal_iteratorIPcSC_EEEENS4_14split_iteratorISG_EENS_11use_defaultESK_EESC_NS0_21forward_traversal_tagESC_lLb0ELb0EE7derivedEv>
  408dcc:	48 89 c7             	mov    %rax,%rdi
  408dcf:	e8 2c 14 00 00       	callq  40a200 <_ZN5boost9iterators20iterator_core_access9incrementINS0_18transform_iteratorINS_9algorithm6detail20copy_iterator_rangeFINSt7__cxx1112basic_stringIcSt11char_traitsIcESaIcEEEN9__gnu_cxx17__normal_iteratorIPcSC_EEEENS4_14split_iteratorISG_EENS_11use_defaultESK_EEEEvRT_>
  408dd4:	48 8b 7d f0          	mov    -0x10(%rbp),%rdi
  408dd8:	e8 43 14 00 00       	callq  40a220 <_ZN5boost9iterators6detail20iterator_facade_baseINS0_18transform_iteratorINS_9algorithm6detail20copy_iterator_rangeFINSt7__cxx1112basic_stringIcSt11char_traitsIcESaIcEEEN9__gnu_cxx17__normal_iteratorIPcSC_EEEENS4_14split_iteratorISG_EENS_11use_defaultESK_EESC_NS0_21forward_traversal_tagESC_lLb0ELb0EE7derivedEv>
  408ddd:	48 83 c4 10          	add    $0x10,%rsp
  408de1:	5d                   	pop    %rbp
  408de2:	c3                   	retq   
  408de3:	66 2e 0f 1f 84 00 00 	nopw   %cs:0x0(%rax,%rax,1)
  408dea:	00 00 00 
  408ded:	0f 1f 00             	nopl   (%rax)

0000000000408df0 <_ZNSt6vectorINSt7__cxx1112basic_stringIcSt11char_traitsIcESaIcEEESaIS5_EE5clearEv>:
  408df0:	55                   	push   %rbp
  408df1:	48 89 e5             	mov    %rsp,%rbp
  408df4:	48 83 ec 10          	sub    $0x10,%rsp
  408df8:	48 89 7d f8          	mov    %rdi,-0x8(%rbp)
  408dfc:	48 8b 45 f8          	mov    -0x8(%rbp),%rax
  408e00:	48 8b 30             	mov    (%rax),%rsi
  408e03:	48 89 c7             	mov    %rax,%rdi
  408e06:	e8 b5 14 00 00       	callq  40a2c0 <_ZNSt6vectorINSt7__cxx1112basic_stringIcSt11char_traitsIcESaIcEEESaIS5_EE15_M_erase_at_endEPS5_>
  408e0b:	48 83 c4 10          	add    $0x10,%rsp
  408e0f:	5d                   	pop    %rbp
  408e10:	c3                   	retq   
  408e11:	66 2e 0f 1f 84 00 00 	nopw   %cs:0x0(%rax,%rax,1)
  408e18:	00 00 00 
  408e1b:	0f 1f 44 00 00       	nopl   0x0(%rax,%rax,1)

0000000000408e20 <_ZN5boost9iterators20iterator_core_access5equalINS0_18transform_iteratorINS_9algorithm6detail20copy_iterator_rangeFINSt7__cxx1112basic_stringIcSt11char_traitsIcESaIcEEEN9__gnu_cxx17__normal_iteratorIPcSC_EEEENS4_14split_iteratorISG_EENS_11use_defaultESK_EESL_EEbRKT_RKT0_N4mpl_5bool_ILb1EEE>:
  408e20:	55                   	push   %rbp
  408e21:	48 89 e5             	mov    %rsp,%rbp
  408e24:	48 83 ec 20          	sub    $0x20,%rsp
  408e28:	48 89 7d f0          	mov    %rdi,-0x10(%rbp)
  408e2c:	48 89 75 e8          	mov    %rsi,-0x18(%rbp)
  408e30:	48 8b 45 f0          	mov    -0x10(%rbp),%rax
  408e34:	48 8b 4d e8          	mov    -0x18(%rbp),%rcx
  408e38:	48 89 c7             	mov    %rax,%rdi
  408e3b:	48 89 ce             	mov    %rcx,%rsi
  408e3e:	e8 2d 00 00 00       	callq  408e70 <_ZNK5boost9iterators16iterator_adaptorINS0_18transform_iteratorINS_9algorithm6detail20copy_iterator_rangeFINSt7__cxx1112basic_stringIcSt11char_traitsIcESaIcEEEN9__gnu_cxx17__normal_iteratorIPcSB_EEEENS3_14split_iteratorISF_EENS_11use_defaultESJ_EESI_SB_SJ_SB_SJ_E5equalISK_SI_SB_SJ_SB_SJ_EEbRKNS1_IT_T0_T1_T2_T3_T4_EE>
  408e43:	24 01                	and    $0x1,%al
  408e45:	0f b6 c0             	movzbl %al,%eax
  408e48:	48 83 c4 20          	add    $0x20,%rsp
  408e4c:	5d                   	pop    %rbp
  408e4d:	c3                   	retq   
  408e4e:	66 90                	xchg   %ax,%ax

0000000000408e50 <_ZNK5boost17integral_constantIbLb1EEcvRKN4mpl_5bool_ILb1EEEEv>:
  408e50:	55                   	push   %rbp
  408e51:	48 89 e5             	mov    %rsp,%rbp
  408e54:	48 89 7d f8          	mov    %rdi,-0x8(%rbp)
  408e58:	48 8b 04 25 50 62 41 	mov    0x416250,%rax
  408e5f:	00 
  408e60:	5d                   	pop    %rbp
  408e61:	c3                   	retq   
  408e62:	66 2e 0f 1f 84 00 00 	nopw   %cs:0x0(%rax,%rax,1)
  408e69:	00 00 00 
  408e6c:	0f 1f 40 00          	nopl   0x0(%rax)

0000000000408e70 <_ZNK5boost9iterators16iterator_adaptorINS0_18transform_iteratorINS_9algorithm6detail20copy_iterator_rangeFINSt7__cxx1112basic_stringIcSt11char_traitsIcESaIcEEEN9__gnu_cxx17__normal_iteratorIPcSB_EEEENS3_14split_iteratorISF_EENS_11use_defaultESJ_EESI_SB_SJ_SB_SJ_E5equalISK_SI_SB_SJ_SB_SJ_EEbRKNS1_IT_T0_T1_T2_T3_T4_EE>:
  408e70:	55                   	push   %rbp
  408e71:	48 89 e5             	mov    %rsp,%rbp
  408e74:	48 83 ec 20          	sub    $0x20,%rsp
  408e78:	48 89 7d f8          	mov    %rdi,-0x8(%rbp)
  408e7c:	48 89 75 f0          	mov    %rsi,-0x10(%rbp)
  408e80:	48 8b 45 f8          	mov    -0x8(%rbp),%rax
  408e84:	48 8b 7d f0          	mov    -0x10(%rbp),%rdi
  408e88:	48 89 45 e8          	mov    %rax,-0x18(%rbp)
  408e8c:	e8 6f 00 00 00       	callq  408f00 <_ZNK5boost9iterators16iterator_adaptorINS0_18transform_iteratorINS_9algorithm6detail20copy_iterator_rangeFINSt7__cxx1112basic_stringIcSt11char_traitsIcESaIcEEEN9__gnu_cxx17__normal_iteratorIPcSB_EEEENS3_14split_iteratorISF_EENS_11use_defaultESJ_EESI_SB_SJ_SB_SJ_E4baseEv>
  408e91:	48 8b 7d e8          	mov    -0x18(%rbp),%rdi
  408e95:	48 89 c6             	mov    %rax,%rsi
  408e98:	e8 13 00 00 00       	callq  408eb0 <_ZN5boost9iteratorseqINS_9algorithm14split_iteratorIN9__gnu_cxx17__normal_iteratorIPcNSt7__cxx1112basic_stringIcSt11char_traitsIcESaIcEEEEEEEKNS_14iterator_rangeISD_EENS0_21forward_traversal_tagERSH_lSE_SH_SI_SJ_lEENS0_6detail23enable_if_interoperableIT_T4_NS_3mpl6apply2INSK_12always_bool2ESM_SN_E4typeEE4typeERKNS0_15iterator_facadeISM_T0_T1_T2_T3_EERKNSV_ISN_T5_T6_T7_T8_EE>
  408e9d:	24 01                	and    $0x1,%al
  408e9f:	0f b6 c0             	movzbl %al,%eax
  408ea2:	48 83 c4 20          	add    $0x20,%rsp
  408ea6:	5d                   	pop    %rbp
  408ea7:	c3                   	retq   
  408ea8:	0f 1f 84 00 00 00 00 	nopl   0x0(%rax,%rax,1)
  408eaf:	00 

0000000000408eb0 <_ZN5boost9iteratorseqINS_9algorithm14split_iteratorIN9__gnu_cxx17__normal_iteratorIPcNSt7__cxx1112basic_stringIcSt11char_traitsIcESaIcEEEEEEEKNS_14iterator_rangeISD_EENS0_21forward_traversal_tagERSH_lSE_SH_SI_SJ_lEENS0_6detail23enable_if_interoperableIT_T4_NS_3mpl6apply2INSK_12always_bool2ESM_SN_E4typeEE4typeERKNS0_15iterator_facadeISM_T0_T1_T2_T3_EERKNSV_ISN_T5_T6_T7_T8_EE>:
  408eb0:	55                   	push   %rbp
  408eb1:	48 89 e5             	mov    %rsp,%rbp
  408eb4:	48 83 ec 40          	sub    $0x40,%rsp
  408eb8:	48 89 7d f8          	mov    %rdi,-0x8(%rbp)
  408ebc:	48 89 75 f0          	mov    %rsi,-0x10(%rbp)
  408ec0:	48 8b 45 f8          	mov    -0x8(%rbp),%rax
  408ec4:	48 8b 4d f0          	mov    -0x10(%rbp),%rcx
  408ec8:	48 8d 55 e0          	lea    -0x20(%rbp),%rdx
  408ecc:	48 89 d7             	mov    %rdx,%rdi
  408ecf:	48 89 45 d8          	mov    %rax,-0x28(%rbp)
  408ed3:	48 89 4d d0          	mov    %rcx,-0x30(%rbp)
  408ed7:	e8 74 ff ff ff       	callq  408e50 <_ZNK5boost17integral_constantIbLb1EEcvRKN4mpl_5bool_ILb1EEEEv>
  408edc:	48 8b 7d d8          	mov    -0x28(%rbp),%rdi
  408ee0:	48 8b 75 d0          	mov    -0x30(%rbp),%rsi
  408ee4:	48 89 45 c8          	mov    %rax,-0x38(%rbp)
  408ee8:	e8 23 00 00 00       	callq  408f10 <_ZN5boost9iterators20iterator_core_access5equalINS_9algorithm14split_iteratorIN9__gnu_cxx17__normal_iteratorIPcNSt7__cxx1112basic_stringIcSt11char_traitsIcESaIcEEEEEEESF_EEbRKT_RKT0_N4mpl_5bool_ILb1EEE>
  408eed:	24 01                	and    $0x1,%al
  408eef:	0f b6 c0             	movzbl %al,%eax
  408ef2:	48 83 c4 40          	add    $0x40,%rsp
  408ef6:	5d                   	pop    %rbp
  408ef7:	c3                   	retq   
  408ef8:	0f 1f 84 00 00 00 00 	nopl   0x0(%rax,%rax,1)
  408eff:	00 

0000000000408f00 <_ZNK5boost9iterators16iterator_adaptorINS0_18transform_iteratorINS_9algorithm6detail20copy_iterator_rangeFINSt7__cxx1112basic_stringIcSt11char_traitsIcESaIcEEEN9__gnu_cxx17__normal_iteratorIPcSB_EEEENS3_14split_iteratorISF_EENS_11use_defaultESJ_EESI_SB_SJ_SB_SJ_E4baseEv>:
  408f00:	55                   	push   %rbp
  408f01:	48 89 e5             	mov    %rsp,%rbp
  408f04:	48 89 7d f8          	mov    %rdi,-0x8(%rbp)
  408f08:	48 8b 45 f8          	mov    -0x8(%rbp),%rax
  408f0c:	5d                   	pop    %rbp
  408f0d:	c3                   	retq   
  408f0e:	66 90                	xchg   %ax,%ax

0000000000408f10 <_ZN5boost9iterators20iterator_core_access5equalINS_9algorithm14split_iteratorIN9__gnu_cxx17__normal_iteratorIPcNSt7__cxx1112basic_stringIcSt11char_traitsIcESaIcEEEEEEESF_EEbRKT_RKT0_N4mpl_5bool_ILb1EEE>:
  408f10:	55                   	push   %rbp
  408f11:	48 89 e5             	mov    %rsp,%rbp
  408f14:	48 83 ec 20          	sub    $0x20,%rsp
  408f18:	48 89 7d f0          	mov    %rdi,-0x10(%rbp)
  408f1c:	48 89 75 e8          	mov    %rsi,-0x18(%rbp)
  408f20:	48 8b 7d f0          	mov    -0x10(%rbp),%rdi
  408f24:	48 8b 75 e8          	mov    -0x18(%rbp),%rsi
  408f28:	e8 13 00 00 00       	callq  408f40 <_ZNK5boost9algorithm14split_iteratorIN9__gnu_cxx17__normal_iteratorIPcNSt7__cxx1112basic_stringIcSt11char_traitsIcESaIcEEEEEE5equalERKSC_>
  408f2d:	24 01                	and    $0x1,%al
  408f2f:	0f b6 c0             	movzbl %al,%eax
  408f32:	48 83 c4 20          	add    $0x20,%rsp
  408f36:	5d                   	pop    %rbp
  408f37:	c3                   	retq   
  408f38:	0f 1f 84 00 00 00 00 	nopl   0x0(%rax,%rax,1)
  408f3f:	00 

0000000000408f40 <_ZNK5boost9algorithm14split_iteratorIN9__gnu_cxx17__normal_iteratorIPcNSt7__cxx1112basic_stringIcSt11char_traitsIcESaIcEEEEEE5equalERKSC_>:
  408f40:	55                   	push   %rbp
  408f41:	48 89 e5             	mov    %rsp,%rbp
  408f44:	48 83 ec 30          	sub    $0x30,%rsp
  408f48:	48 89 7d f8          	mov    %rdi,-0x8(%rbp)
  408f4c:	48 89 75 f0          	mov    %rsi,-0x10(%rbp)
  408f50:	48 8b 45 f8          	mov    -0x8(%rbp),%rax
  408f54:	48 89 c7             	mov    %rax,%rdi
  408f57:	48 89 45 e0          	mov    %rax,-0x20(%rbp)
  408f5b:	e8 e0 00 00 00       	callq  409040 <_ZNK5boost9algorithm14split_iteratorIN9__gnu_cxx17__normal_iteratorIPcNSt7__cxx1112basic_stringIcSt11char_traitsIcESaIcEEEEEE3eofEv>
  408f60:	24 01                	and    $0x1,%al
  408f62:	88 45 ef             	mov    %al,-0x11(%rbp)
  408f65:	48 8b 7d f0          	mov    -0x10(%rbp),%rdi
  408f69:	e8 d2 00 00 00       	callq  409040 <_ZNK5boost9algorithm14split_iteratorIN9__gnu_cxx17__normal_iteratorIPcNSt7__cxx1112basic_stringIcSt11char_traitsIcESaIcEEEEEE3eofEv>
  408f6e:	24 01                	and    $0x1,%al
  408f70:	88 45 ee             	mov    %al,-0x12(%rbp)
  408f73:	f6 45 ef 01          	testb  $0x1,-0x11(%rbp)
  408f77:	0f 85 0a 00 00 00    	jne    408f87 <_ZNK5boost9algorithm14split_iteratorIN9__gnu_cxx17__normal_iteratorIPcNSt7__cxx1112basic_stringIcSt11char_traitsIcESaIcEEEEEE5equalERKSC_+0x47>
  408f7d:	f6 45 ee 01          	testb  $0x1,-0x12(%rbp)
  408f81:	0f 84 1d 00 00 00    	je     408fa4 <_ZNK5boost9algorithm14split_iteratorIN9__gnu_cxx17__normal_iteratorIPcNSt7__cxx1112basic_stringIcSt11char_traitsIcESaIcEEEEEE5equalERKSC_+0x64>
  408f87:	8a 45 ef             	mov    -0x11(%rbp),%al
  408f8a:	24 01                	and    $0x1,%al
  408f8c:	0f b6 c8             	movzbl %al,%ecx
  408f8f:	8a 45 ee             	mov    -0x12(%rbp),%al
  408f92:	24 01                	and    $0x1,%al
  408f94:	0f b6 d0             	movzbl %al,%edx
  408f97:	39 d1                	cmp    %edx,%ecx
  408f99:	0f 94 c0             	sete   %al
  408f9c:	88 45 df             	mov    %al,-0x21(%rbp)
  408f9f:	e9 8d 00 00 00       	jmpq   409031 <_ZNK5boost9algorithm14split_iteratorIN9__gnu_cxx17__normal_iteratorIPcNSt7__cxx1112basic_stringIcSt11char_traitsIcESaIcEEEEEE5equalERKSC_+0xf1>
  408fa4:	48 8b 45 e0          	mov    -0x20(%rbp),%rax
  408fa8:	48 05 20 00 00 00    	add    $0x20,%rax
  408fae:	48 8b 4d f0          	mov    -0x10(%rbp),%rcx
  408fb2:	48 81 c1 20 00 00 00 	add    $0x20,%rcx
  408fb9:	48 89 c7             	mov    %rax,%rdi
  408fbc:	48 89 ce             	mov    %rcx,%rsi
  408fbf:	e8 cc 00 00 00       	callq  409090 <_ZN5boosteqIN9__gnu_cxx17__normal_iteratorIPcNSt7__cxx1112basic_stringIcSt11char_traitsIcESaIcEEEEESA_EEbRKNS_14iterator_rangeIT_EERKNSB_IT0_EE>
  408fc4:	31 d2                	xor    %edx,%edx
  408fc6:	a8 01                	test   $0x1,%al
  408fc8:	88 55 de             	mov    %dl,-0x22(%rbp)
  408fcb:	0f 85 05 00 00 00    	jne    408fd6 <_ZNK5boost9algorithm14split_iteratorIN9__gnu_cxx17__normal_iteratorIPcNSt7__cxx1112basic_stringIcSt11char_traitsIcESaIcEEEEEE5equalERKSC_+0x96>
  408fd1:	e9 55 00 00 00       	jmpq   40902b <_ZNK5boost9algorithm14split_iteratorIN9__gnu_cxx17__normal_iteratorIPcNSt7__cxx1112basic_stringIcSt11char_traitsIcESaIcEEEEEE5equalERKSC_+0xeb>
  408fd6:	48 8b 45 e0          	mov    -0x20(%rbp),%rax
  408fda:	48 05 30 00 00 00    	add    $0x30,%rax
  408fe0:	48 8b 4d f0          	mov    -0x10(%rbp),%rcx
  408fe4:	48 81 c1 30 00 00 00 	add    $0x30,%rcx
  408feb:	48 89 c7             	mov    %rax,%rdi
  408fee:	48 89 ce             	mov    %rcx,%rsi
  408ff1:	e8 4a e4 ff ff       	callq  407440 <_ZN9__gnu_cxxeqIPcNSt7__cxx1112basic_stringIcSt11char_traitsIcESaIcEEEEEbRKNS_17__normal_iteratorIT_T0_EESD_>
  408ff6:	31 d2                	xor    %edx,%edx
  408ff8:	a8 01                	test   $0x1,%al
  408ffa:	88 55 de             	mov    %dl,-0x22(%rbp)
  408ffd:	0f 85 05 00 00 00    	jne    409008 <_ZNK5boost9algorithm14split_iteratorIN9__gnu_cxx17__normal_iteratorIPcNSt7__cxx1112basic_stringIcSt11char_traitsIcESaIcEEEEEE5equalERKSC_+0xc8>
  409003:	e9 23 00 00 00       	jmpq   40902b <_ZNK5boost9algorithm14split_iteratorIN9__gnu_cxx17__normal_iteratorIPcNSt7__cxx1112basic_stringIcSt11char_traitsIcESaIcEEEEEE5equalERKSC_+0xeb>
  409008:	48 8b 45 e0          	mov    -0x20(%rbp),%rax
  40900c:	48 05 38 00 00 00    	add    $0x38,%rax
  409012:	48 8b 4d f0          	mov    -0x10(%rbp),%rcx
  409016:	48 81 c1 38 00 00 00 	add    $0x38,%rcx
  40901d:	48 89 c7             	mov    %rax,%rdi
  409020:	48 89 ce             	mov    %rcx,%rsi
  409023:	e8 18 e4 ff ff       	callq  407440 <_ZN9__gnu_cxxeqIPcNSt7__cxx1112basic_stringIcSt11char_traitsIcESaIcEEEEEbRKNS_17__normal_iteratorIT_T0_EESD_>
  409028:	88 45 de             	mov    %al,-0x22(%rbp)
  40902b:	8a 45 de             	mov    -0x22(%rbp),%al
  40902e:	88 45 df             	mov    %al,-0x21(%rbp)
  409031:	8a 45 df             	mov    -0x21(%rbp),%al
  409034:	24 01                	and    $0x1,%al
  409036:	0f b6 c0             	movzbl %al,%eax
  409039:	48 83 c4 30          	add    $0x30,%rsp
  40903d:	5d                   	pop    %rbp
  40903e:	c3                   	retq   
  40903f:	90                   	nop

0000000000409040 <_ZNK5boost9algorithm14split_iteratorIN9__gnu_cxx17__normal_iteratorIPcNSt7__cxx1112basic_stringIcSt11char_traitsIcESaIcEEEEEE3eofEv>:
  409040:	55                   	push   %rbp
  409041:	48 89 e5             	mov    %rsp,%rbp
  409044:	48 83 ec 20          	sub    $0x20,%rsp
  409048:	48 89 7d f8          	mov    %rdi,-0x8(%rbp)
  40904c:	48 8b 45 f8          	mov    -0x8(%rbp),%rax
  409050:	48 89 c1             	mov    %rax,%rcx
  409053:	48 89 cf             	mov    %rcx,%rdi
  409056:	48 89 45 f0          	mov    %rax,-0x10(%rbp)
  40905a:	e8 61 00 00 00       	callq  4090c0 <_ZNK5boost9algorithm6detail18find_iterator_baseIN9__gnu_cxx17__normal_iteratorIPcNSt7__cxx1112basic_stringIcSt11char_traitsIcESaIcEEEEEE7is_nullEv>
  40905f:	a8 01                	test   $0x1,%al
  409061:	b0 01                	mov    $0x1,%al
  409063:	88 45 ef             	mov    %al,-0x11(%rbp)
  409066:	0f 85 0a 00 00 00    	jne    409076 <_ZNK5boost9algorithm14split_iteratorIN9__gnu_cxx17__normal_iteratorIPcNSt7__cxx1112basic_stringIcSt11char_traitsIcESaIcEEEEEE3eofEv+0x36>
  40906c:	48 8b 45 f0          	mov    -0x10(%rbp),%rax
  409070:	8a 48 40             	mov    0x40(%rax),%cl
  409073:	88 4d ef             	mov    %cl,-0x11(%rbp)
  409076:	8a 45 ef             	mov    -0x11(%rbp),%al
  409079:	24 01                	and    $0x1,%al
  40907b:	0f b6 c0             	movzbl %al,%eax
  40907e:	48 83 c4 20          	add    $0x20,%rsp
  409082:	5d                   	pop    %rbp
  409083:	c3                   	retq   
  409084:	66 2e 0f 1f 84 00 00 	nopw   %cs:0x0(%rax,%rax,1)
  40908b:	00 00 00 
  40908e:	66 90                	xchg   %ax,%ax

0000000000409090 <_ZN5boosteqIN9__gnu_cxx17__normal_iteratorIPcNSt7__cxx1112basic_stringIcSt11char_traitsIcESaIcEEEEESA_EEbRKNS_14iterator_rangeIT_EERKNSB_IT0_EE>:
  409090:	55                   	push   %rbp
  409091:	48 89 e5             	mov    %rsp,%rbp
  409094:	48 83 ec 10          	sub    $0x10,%rsp
  409098:	48 89 7d f8          	mov    %rdi,-0x8(%rbp)
  40909c:	48 89 75 f0          	mov    %rsi,-0x10(%rbp)
  4090a0:	48 8b 7d f8          	mov    -0x8(%rbp),%rdi
  4090a4:	48 8b 75 f0          	mov    -0x10(%rbp),%rsi
  4090a8:	e8 43 00 00 00       	callq  4090f0 <_ZN5boost5range5equalINS_14iterator_rangeIN9__gnu_cxx17__normal_iteratorIPcNSt7__cxx1112basic_stringIcSt11char_traitsIcESaIcEEEEEEESD_EEbRKT_RKT0_>
  4090ad:	24 01                	and    $0x1,%al
  4090af:	0f b6 c0             	movzbl %al,%eax
  4090b2:	48 83 c4 10          	add    $0x10,%rsp
  4090b6:	5d                   	pop    %rbp
  4090b7:	c3                   	retq   
  4090b8:	0f 1f 84 00 00 00 00 	nopl   0x0(%rax,%rax,1)
  4090bf:	00 

00000000004090c0 <_ZNK5boost9algorithm6detail18find_iterator_baseIN9__gnu_cxx17__normal_iteratorIPcNSt7__cxx1112basic_stringIcSt11char_traitsIcESaIcEEEEEE7is_nullEv>:
  4090c0:	55                   	push   %rbp
  4090c1:	48 89 e5             	mov    %rsp,%rbp
  4090c4:	48 83 ec 10          	sub    $0x10,%rsp
  4090c8:	48 89 7d f8          	mov    %rdi,-0x8(%rbp)
  4090cc:	48 8b 45 f8          	mov    -0x8(%rbp),%rax
  4090d0:	48 89 c7             	mov    %rax,%rdi
  4090d3:	e8 78 d7 ff ff       	callq  406850 <_ZNK5boost13function_base5emptyEv>
  4090d8:	24 01                	and    $0x1,%al
  4090da:	0f b6 c0             	movzbl %al,%eax
  4090dd:	48 83 c4 10          	add    $0x10,%rsp
  4090e1:	5d                   	pop    %rbp
  4090e2:	c3                   	retq   
  4090e3:	66 2e 0f 1f 84 00 00 	nopw   %cs:0x0(%rax,%rax,1)
  4090ea:	00 00 00 
  4090ed:	0f 1f 00             	nopl   (%rax)

00000000004090f0 <_ZN5boost5range5equalINS_14iterator_rangeIN9__gnu_cxx17__normal_iteratorIPcNSt7__cxx1112basic_stringIcSt11char_traitsIcESaIcEEEEEEESD_EEbRKT_RKT0_>:
  4090f0:	55                   	push   %rbp
  4090f1:	48 89 e5             	mov    %rsp,%rbp
  4090f4:	48 83 ec 30          	sub    $0x30,%rsp
  4090f8:	48 89 7d f8          	mov    %rdi,-0x8(%rbp)
  4090fc:	48 89 75 f0          	mov    %rsi,-0x10(%rbp)
  409100:	48 8b 7d f8          	mov    -0x8(%rbp),%rdi
  409104:	e8 b7 00 00 00       	callq  4091c0 <_ZN5boost17range_adl_barrier5beginINS_14iterator_rangeIN9__gnu_cxx17__normal_iteratorIPcNSt7__cxx1112basic_stringIcSt11char_traitsIcESaIcEEEEEEEEENS_14range_iteratorIKT_vE4typeERSG_>
  409109:	48 89 45 e8          	mov    %rax,-0x18(%rbp)
  40910d:	48 8b 7d f8          	mov    -0x8(%rbp),%rdi
  409111:	e8 da 00 00 00       	callq  4091f0 <_ZN5boost17range_adl_barrier3endINS_14iterator_rangeIN9__gnu_cxx17__normal_iteratorIPcNSt7__cxx1112basic_stringIcSt11char_traitsIcESaIcEEEEEEEEENS_14range_iteratorIKT_vE4typeERSG_>
  409116:	48 89 45 e0          	mov    %rax,-0x20(%rbp)
  40911a:	48 8b 7d f0          	mov    -0x10(%rbp),%rdi
  40911e:	e8 9d 00 00 00       	callq  4091c0 <_ZN5boost17range_adl_barrier5beginINS_14iterator_rangeIN9__gnu_cxx17__normal_iteratorIPcNSt7__cxx1112basic_stringIcSt11char_traitsIcESaIcEEEEEEEEENS_14range_iteratorIKT_vE4typeERSG_>
  409123:	48 89 45 d8          	mov    %rax,-0x28(%rbp)
  409127:	48 8b 7d f0          	mov    -0x10(%rbp),%rdi
  40912b:	e8 c0 00 00 00       	callq  4091f0 <_ZN5boost17range_adl_barrier3endINS_14iterator_rangeIN9__gnu_cxx17__normal_iteratorIPcNSt7__cxx1112basic_stringIcSt11char_traitsIcESaIcEEEEEEEEENS_14range_iteratorIKT_vE4typeERSG_>
  409130:	48 89 45 d0          	mov    %rax,-0x30(%rbp)
  409134:	48 8b 7d e8          	mov    -0x18(%rbp),%rdi
  409138:	48 8b 75 e0          	mov    -0x20(%rbp),%rsi
  40913c:	48 8b 55 d8          	mov    -0x28(%rbp),%rdx
  409140:	48 8b 4d d0          	mov    -0x30(%rbp),%rcx
  409144:	e8 17 00 00 00       	callq  409160 <_ZN5boost12range_detail5equalIN9__gnu_cxx17__normal_iteratorIPcNSt7__cxx1112basic_stringIcSt11char_traitsIcESaIcEEEEESB_EEbT_SC_T0_SD_>
  409149:	24 01                	and    $0x1,%al
  40914b:	0f b6 c0             	movzbl %al,%eax
  40914e:	48 83 c4 30          	add    $0x30,%rsp
  409152:	5d                   	pop    %rbp
  409153:	c3                   	retq   
  409154:	66 2e 0f 1f 84 00 00 	nopw   %cs:0x0(%rax,%rax,1)
  40915b:	00 00 00 
  40915e:	66 90                	xchg   %ax,%ax

0000000000409160 <_ZN5boost12range_detail5equalIN9__gnu_cxx17__normal_iteratorIPcNSt7__cxx1112basic_stringIcSt11char_traitsIcESaIcEEEEESB_EEbT_SC_T0_SD_>:
  409160:	55                   	push   %rbp
  409161:	48 89 e5             	mov    %rsp,%rbp
  409164:	48 83 ec 60          	sub    $0x60,%rsp
  409168:	48 89 7d f8          	mov    %rdi,-0x8(%rbp)
  40916c:	48 89 75 f0          	mov    %rsi,-0x10(%rbp)
  409170:	48 89 55 e8          	mov    %rdx,-0x18(%rbp)
  409174:	48 89 4d e0          	mov    %rcx,-0x20(%rbp)
  409178:	48 8b 45 f8          	mov    -0x8(%rbp),%rax
  40917c:	48 89 45 c8          	mov    %rax,-0x38(%rbp)
  409180:	48 8b 45 f0          	mov    -0x10(%rbp),%rax
  409184:	48 89 45 c0          	mov    %rax,-0x40(%rbp)
  409188:	48 8b 45 e8          	mov    -0x18(%rbp),%rax
  40918c:	48 89 45 b8          	mov    %rax,-0x48(%rbp)
  409190:	48 8b 45 e0          	mov    -0x20(%rbp),%rax
  409194:	48 89 45 b0          	mov    %rax,-0x50(%rbp)
  409198:	48 8b 7d c8          	mov    -0x38(%rbp),%rdi
  40919c:	48 8b 75 c0          	mov    -0x40(%rbp),%rsi
  4091a0:	48 8b 55 b8          	mov    -0x48(%rbp),%rdx
  4091a4:	48 8b 4d b0          	mov    -0x50(%rbp),%rcx
  4091a8:	e8 73 00 00 00       	callq  409220 <_ZN5boost12range_detail10equal_implIN9__gnu_cxx17__normal_iteratorIPcNSt7__cxx1112basic_stringIcSt11char_traitsIcESaIcEEEEESB_EEbT_SC_T0_SD_St26random_access_iterator_tagSE_>
  4091ad:	24 01                	and    $0x1,%al
  4091af:	0f b6 c0             	movzbl %al,%eax
  4091b2:	48 83 c4 60          	add    $0x60,%rsp
  4091b6:	5d                   	pop    %rbp
  4091b7:	c3                   	retq   
  4091b8:	0f 1f 84 00 00 00 00 	nopl   0x0(%rax,%rax,1)
  4091bf:	00 

00000000004091c0 <_ZN5boost17range_adl_barrier5beginINS_14iterator_rangeIN9__gnu_cxx17__normal_iteratorIPcNSt7__cxx1112basic_stringIcSt11char_traitsIcESaIcEEEEEEEEENS_14range_iteratorIKT_vE4typeERSG_>:
  4091c0:	55                   	push   %rbp
  4091c1:	48 89 e5             	mov    %rsp,%rbp
  4091c4:	48 83 ec 10          	sub    $0x10,%rsp
  4091c8:	48 89 7d f0          	mov    %rdi,-0x10(%rbp)
  4091cc:	48 8b 7d f0          	mov    -0x10(%rbp),%rdi
  4091d0:	e8 1b 02 00 00       	callq  4093f0 <_ZN5boost12range_detail11range_beginIKNS_14iterator_rangeIN9__gnu_cxx17__normal_iteratorIPcNSt7__cxx1112basic_stringIcSt11char_traitsIcESaIcEEEEEEEEENS_14range_iteratorIT_vE4typeERSG_>
  4091d5:	48 89 45 f8          	mov    %rax,-0x8(%rbp)
  4091d9:	48 8b 45 f8          	mov    -0x8(%rbp),%rax
  4091dd:	48 83 c4 10          	add    $0x10,%rsp
  4091e1:	5d                   	pop    %rbp
  4091e2:	c3                   	retq   
  4091e3:	66 2e 0f 1f 84 00 00 	nopw   %cs:0x0(%rax,%rax,1)
  4091ea:	00 00 00 
  4091ed:	0f 1f 00             	nopl   (%rax)

00000000004091f0 <_ZN5boost17range_adl_barrier3endINS_14iterator_rangeIN9__gnu_cxx17__normal_iteratorIPcNSt7__cxx1112basic_stringIcSt11char_traitsIcESaIcEEEEEEEEENS_14range_iteratorIKT_vE4typeERSG_>:
  4091f0:	55                   	push   %rbp
  4091f1:	48 89 e5             	mov    %rsp,%rbp
  4091f4:	48 83 ec 10          	sub    $0x10,%rsp
  4091f8:	48 89 7d f0          	mov    %rdi,-0x10(%rbp)
  4091fc:	48 8b 7d f0          	mov    -0x10(%rbp),%rdi
  409200:	e8 1b 02 00 00       	callq  409420 <_ZN5boost12range_detail9range_endIKNS_14iterator_rangeIN9__gnu_cxx17__normal_iteratorIPcNSt7__cxx1112basic_stringIcSt11char_traitsIcESaIcEEEEEEEEENS_14range_iteratorIT_vE4typeERSG_>
  409205:	48 89 45 f8          	mov    %rax,-0x8(%rbp)
  409209:	48 8b 45 f8          	mov    -0x8(%rbp),%rax
  40920d:	48 83 c4 10          	add    $0x10,%rsp
  409211:	5d                   	pop    %rbp
  409212:	c3                   	retq   
  409213:	66 2e 0f 1f 84 00 00 	nopw   %cs:0x0(%rax,%rax,1)
  40921a:	00 00 00 
  40921d:	0f 1f 00             	nopl   (%rax)

0000000000409220 <_ZN5boost12range_detail10equal_implIN9__gnu_cxx17__normal_iteratorIPcNSt7__cxx1112basic_stringIcSt11char_traitsIcESaIcEEEEESB_EEbT_SC_T0_SD_St26random_access_iterator_tagSE_>:
  409220:	55                   	push   %rbp
  409221:	48 89 e5             	mov    %rsp,%rbp
  409224:	48 83 ec 60          	sub    $0x60,%rsp
  409228:	48 89 7d f8          	mov    %rdi,-0x8(%rbp)
  40922c:	48 89 75 f0          	mov    %rsi,-0x10(%rbp)
  409230:	48 89 55 e8          	mov    %rdx,-0x18(%rbp)
  409234:	48 89 4d e0          	mov    %rcx,-0x20(%rbp)
  409238:	48 8d 7d f0          	lea    -0x10(%rbp),%rdi
  40923c:	48 8d 75 f8          	lea    -0x8(%rbp),%rsi
  409240:	e8 8b e6 ff ff       	callq  4078d0 <_ZN9__gnu_cxxmiIPcNSt7__cxx1112basic_stringIcSt11char_traitsIcESaIcEEEEENS_17__normal_iteratorIT_T0_E15difference_typeERKSB_SE_>
  409245:	48 8d 7d e0          	lea    -0x20(%rbp),%rdi
  409249:	48 8d 75 e8          	lea    -0x18(%rbp),%rsi
  40924d:	48 89 45 b0          	mov    %rax,-0x50(%rbp)
  409251:	e8 7a e6 ff ff       	callq  4078d0 <_ZN9__gnu_cxxmiIPcNSt7__cxx1112basic_stringIcSt11char_traitsIcESaIcEEEEENS_17__normal_iteratorIT_T0_E15difference_typeERKSB_SE_>
  409256:	45 31 c0             	xor    %r8d,%r8d
  409259:	48 8b 4d b0          	mov    -0x50(%rbp),%rcx
  40925d:	48 39 c1             	cmp    %rax,%rcx
  409260:	44 88 45 af          	mov    %r8b,-0x51(%rbp)
  409264:	0f 85 2c 00 00 00    	jne    409296 <_ZN5boost12range_detail10equal_implIN9__gnu_cxx17__normal_iteratorIPcNSt7__cxx1112basic_stringIcSt11char_traitsIcESaIcEEEEESB_EEbT_SC_T0_SD_St26random_access_iterator_tagSE_+0x76>
  40926a:	48 8b 45 f8          	mov    -0x8(%rbp),%rax
  40926e:	48 89 45 c8          	mov    %rax,-0x38(%rbp)
  409272:	48 8b 45 f0          	mov    -0x10(%rbp),%rax
  409276:	48 89 45 c0          	mov    %rax,-0x40(%rbp)
  40927a:	48 8b 45 e8          	mov    -0x18(%rbp),%rax
  40927e:	48 89 45 b8          	mov    %rax,-0x48(%rbp)
  409282:	48 8b 7d c8          	mov    -0x38(%rbp),%rdi
  409286:	48 8b 75 c0          	mov    -0x40(%rbp),%rsi
  40928a:	48 8b 55 b8          	mov    -0x48(%rbp),%rdx
  40928e:	e8 1d 00 00 00       	callq  4092b0 <_ZSt5equalIN9__gnu_cxx17__normal_iteratorIPcNSt7__cxx1112basic_stringIcSt11char_traitsIcESaIcEEEEES9_EbT_SA_T0_>
  409293:	88 45 af             	mov    %al,-0x51(%rbp)
  409296:	8a 45 af             	mov    -0x51(%rbp),%al
  409299:	24 01                	and    $0x1,%al
  40929b:	0f b6 c0             	movzbl %al,%eax
  40929e:	48 83 c4 60          	add    $0x60,%rsp
  4092a2:	5d                   	pop    %rbp
  4092a3:	c3                   	retq   
  4092a4:	66 2e 0f 1f 84 00 00 	nopw   %cs:0x0(%rax,%rax,1)
  4092ab:	00 00 00 
  4092ae:	66 90                	xchg   %ax,%ax

00000000004092b0 <_ZSt5equalIN9__gnu_cxx17__normal_iteratorIPcNSt7__cxx1112basic_stringIcSt11char_traitsIcESaIcEEEEES9_EbT_SA_T0_>:
  4092b0:	55                   	push   %rbp
  4092b1:	48 89 e5             	mov    %rsp,%rbp
  4092b4:	48 83 ec 40          	sub    $0x40,%rsp
  4092b8:	48 89 7d f8          	mov    %rdi,-0x8(%rbp)
  4092bc:	48 89 75 f0          	mov    %rsi,-0x10(%rbp)
  4092c0:	48 89 55 e8          	mov    %rdx,-0x18(%rbp)
  4092c4:	48 8b 45 f8          	mov    -0x8(%rbp),%rax
  4092c8:	48 89 45 e0          	mov    %rax,-0x20(%rbp)
  4092cc:	48 8b 7d e0          	mov    -0x20(%rbp),%rdi
  4092d0:	e8 8b 00 00 00       	callq  409360 <_ZSt12__niter_baseIPcNSt7__cxx1112basic_stringIcSt11char_traitsIcESaIcEEEET_N9__gnu_cxx17__normal_iteratorIS7_T0_EE>
  4092d5:	48 8b 4d f0          	mov    -0x10(%rbp),%rcx
  4092d9:	48 89 4d d8          	mov    %rcx,-0x28(%rbp)
  4092dd:	48 8b 7d d8          	mov    -0x28(%rbp),%rdi
  4092e1:	48 89 45 c8          	mov    %rax,-0x38(%rbp)
  4092e5:	e8 76 00 00 00       	callq  409360 <_ZSt12__niter_baseIPcNSt7__cxx1112basic_stringIcSt11char_traitsIcESaIcEEEET_N9__gnu_cxx17__normal_iteratorIS7_T0_EE>
  4092ea:	48 8b 4d e8          	mov    -0x18(%rbp),%rcx
  4092ee:	48 89 4d d0          	mov    %rcx,-0x30(%rbp)
  4092f2:	48 8b 7d d0          	mov    -0x30(%rbp),%rdi
  4092f6:	48 89 45 c0          	mov    %rax,-0x40(%rbp)
  4092fa:	e8 61 00 00 00       	callq  409360 <_ZSt12__niter_baseIPcNSt7__cxx1112basic_stringIcSt11char_traitsIcESaIcEEEET_N9__gnu_cxx17__normal_iteratorIS7_T0_EE>
  4092ff:	48 8b 7d c8          	mov    -0x38(%rbp),%rdi
  409303:	48 8b 75 c0          	mov    -0x40(%rbp),%rsi
  409307:	48 89 c2             	mov    %rax,%rdx
  40930a:	e8 11 00 00 00       	callq  409320 <_ZSt11__equal_auxIPcS0_EbT_S1_T0_>
  40930f:	24 01                	and    $0x1,%al
  409311:	0f b6 c0             	movzbl %al,%eax
  409314:	48 83 c4 40          	add    $0x40,%rsp
  409318:	5d                   	pop    %rbp
  409319:	c3                   	retq   
  40931a:	66 0f 1f 44 00 00    	nopw   0x0(%rax,%rax,1)

0000000000409320 <_ZSt11__equal_auxIPcS0_EbT_S1_T0_>:
  409320:	55                   	push   %rbp
  409321:	48 89 e5             	mov    %rsp,%rbp
  409324:	48 83 ec 20          	sub    $0x20,%rsp
  409328:	48 89 7d f8          	mov    %rdi,-0x8(%rbp)
  40932c:	48 89 75 f0          	mov    %rsi,-0x10(%rbp)
  409330:	48 89 55 e8          	mov    %rdx,-0x18(%rbp)
  409334:	c6 45 e7 01          	movb   $0x1,-0x19(%rbp)
  409338:	48 8b 7d f8          	mov    -0x8(%rbp),%rdi
  40933c:	48 8b 75 f0          	mov    -0x10(%rbp),%rsi
  409340:	48 8b 55 e8          	mov    -0x18(%rbp),%rdx
  409344:	e8 37 00 00 00       	callq  409380 <_ZNSt7__equalILb1EE5equalIcEEbPKT_S4_S4_>
  409349:	24 01                	and    $0x1,%al
  40934b:	0f b6 c0             	movzbl %al,%eax
  40934e:	48 83 c4 20          	add    $0x20,%rsp
  409352:	5d                   	pop    %rbp
  409353:	c3                   	retq   
  409354:	66 2e 0f 1f 84 00 00 	nopw   %cs:0x0(%rax,%rax,1)
  40935b:	00 00 00 
  40935e:	66 90                	xchg   %ax,%ax

0000000000409360 <_ZSt12__niter_baseIPcNSt7__cxx1112basic_stringIcSt11char_traitsIcESaIcEEEET_N9__gnu_cxx17__normal_iteratorIS7_T0_EE>:
  409360:	55                   	push   %rbp
  409361:	48 89 e5             	mov    %rsp,%rbp
  409364:	48 83 ec 10          	sub    $0x10,%rsp
  409368:	48 89 7d f8          	mov    %rdi,-0x8(%rbp)
  40936c:	48 8d 7d f8          	lea    -0x8(%rbp),%rdi
  409370:	e8 db e5 ff ff       	callq  407950 <_ZNK9__gnu_cxx17__normal_iteratorIPcNSt7__cxx1112basic_stringIcSt11char_traitsIcESaIcEEEE4baseEv>
  409375:	48 8b 00             	mov    (%rax),%rax
  409378:	48 83 c4 10          	add    $0x10,%rsp
  40937c:	5d                   	pop    %rbp
  40937d:	c3                   	retq   
  40937e:	66 90                	xchg   %ax,%ax

0000000000409380 <_ZNSt7__equalILb1EE5equalIcEEbPKT_S4_S4_>:
  409380:	55                   	push   %rbp
  409381:	48 89 e5             	mov    %rsp,%rbp
  409384:	48 83 ec 30          	sub    $0x30,%rsp
  409388:	48 89 7d f0          	mov    %rdi,-0x10(%rbp)
  40938c:	48 89 75 e8          	mov    %rsi,-0x18(%rbp)
  409390:	48 89 55 e0          	mov    %rdx,-0x20(%rbp)
  409394:	48 8b 45 e8          	mov    -0x18(%rbp),%rax
  409398:	48 8b 4d f0          	mov    -0x10(%rbp),%rcx
  40939c:	48 29 c8             	sub    %rcx,%rax
  40939f:	48 89 45 d8          	mov    %rax,-0x28(%rbp)
  4093a3:	48 83 7d d8 00       	cmpq   $0x0,-0x28(%rbp)
  4093a8:	0f 84 2c 00 00 00    	je     4093da <_ZNSt7__equalILb1EE5equalIcEEbPKT_S4_S4_+0x5a>
  4093ae:	48 8b 7d f0          	mov    -0x10(%rbp),%rdi
  4093b2:	48 8b 75 e0          	mov    -0x20(%rbp),%rsi
  4093b6:	48 8b 45 d8          	mov    -0x28(%rbp),%rax
  4093ba:	48 c1 e0 00          	shl    $0x0,%rax
  4093be:	48 89 c2             	mov    %rax,%rdx
  4093c1:	e8 0a 9d ff ff       	callq  4030d0 <memcmp@plt>
  4093c6:	83 f8 00             	cmp    $0x0,%eax
  4093c9:	0f 95 c1             	setne  %cl
  4093cc:	80 f1 ff             	xor    $0xff,%cl
  4093cf:	80 e1 01             	and    $0x1,%cl
  4093d2:	88 4d ff             	mov    %cl,-0x1(%rbp)
  4093d5:	e9 04 00 00 00       	jmpq   4093de <_ZNSt7__equalILb1EE5equalIcEEbPKT_S4_S4_+0x5e>
  4093da:	c6 45 ff 01          	movb   $0x1,-0x1(%rbp)
  4093de:	8a 45 ff             	mov    -0x1(%rbp),%al
  4093e1:	24 01                	and    $0x1,%al
  4093e3:	0f b6 c0             	movzbl %al,%eax
  4093e6:	48 83 c4 30          	add    $0x30,%rsp
  4093ea:	5d                   	pop    %rbp
  4093eb:	c3                   	retq   
  4093ec:	0f 1f 40 00          	nopl   0x0(%rax)

00000000004093f0 <_ZN5boost12range_detail11range_beginIKNS_14iterator_rangeIN9__gnu_cxx17__normal_iteratorIPcNSt7__cxx1112basic_stringIcSt11char_traitsIcESaIcEEEEEEEEENS_14range_iteratorIT_vE4typeERSG_>:
  4093f0:	55                   	push   %rbp
  4093f1:	48 89 e5             	mov    %rsp,%rbp
  4093f4:	48 83 ec 10          	sub    $0x10,%rsp
  4093f8:	48 89 7d f0          	mov    %rdi,-0x10(%rbp)
  4093fc:	48 8b 45 f0          	mov    -0x10(%rbp),%rax
  409400:	48 89 c7             	mov    %rax,%rdi
  409403:	e8 e8 d4 ff ff       	callq  4068f0 <_ZNK5boost21iterator_range_detail19iterator_range_baseIN9__gnu_cxx17__normal_iteratorIPcNSt7__cxx1112basic_stringIcSt11char_traitsIcESaIcEEEEENS_9iterators27incrementable_traversal_tagEE5beginEv>
  409408:	48 89 45 f8          	mov    %rax,-0x8(%rbp)
  40940c:	48 8b 45 f8          	mov    -0x8(%rbp),%rax
  409410:	48 83 c4 10          	add    $0x10,%rsp
  409414:	5d                   	pop    %rbp
  409415:	c3                   	retq   
  409416:	66 2e 0f 1f 84 00 00 	nopw   %cs:0x0(%rax,%rax,1)
  40941d:	00 00 00 

0000000000409420 <_ZN5boost12range_detail9range_endIKNS_14iterator_rangeIN9__gnu_cxx17__normal_iteratorIPcNSt7__cxx1112basic_stringIcSt11char_traitsIcESaIcEEEEEEEEENS_14range_iteratorIT_vE4typeERSG_>:
  409420:	55                   	push   %rbp
  409421:	48 89 e5             	mov    %rsp,%rbp
  409424:	48 83 ec 10          	sub    $0x10,%rsp
  409428:	48 89 7d f0          	mov    %rdi,-0x10(%rbp)
  40942c:	48 8b 45 f0          	mov    -0x10(%rbp),%rax
  409430:	48 89 c7             	mov    %rax,%rdi
  409433:	e8 e8 d1 ff ff       	callq  406620 <_ZNK5boost21iterator_range_detail19iterator_range_baseIN9__gnu_cxx17__normal_iteratorIPcNSt7__cxx1112basic_stringIcSt11char_traitsIcESaIcEEEEENS_9iterators27incrementable_traversal_tagEE3endEv>
  409438:	48 89 45 f8          	mov    %rax,-0x8(%rbp)
  40943c:	48 8b 45 f8          	mov    -0x8(%rbp),%rax
  409440:	48 83 c4 10          	add    $0x10,%rsp
  409444:	5d                   	pop    %rbp
  409445:	c3                   	retq   
  409446:	66 2e 0f 1f 84 00 00 	nopw   %cs:0x0(%rax,%rax,1)
  40944d:	00 00 00 

0000000000409450 <_ZNSt16allocator_traitsISaINSt7__cxx1112basic_stringIcSt11char_traitsIcESaIcEEEEE9constructIS5_JS5_EEEvRS6_PT_DpOT0_>:
  409450:	55                   	push   %rbp
  409451:	48 89 e5             	mov    %rsp,%rbp
  409454:	48 83 ec 30          	sub    $0x30,%rsp
  409458:	48 89 7d f8          	mov    %rdi,-0x8(%rbp)
  40945c:	48 89 75 f0          	mov    %rsi,-0x10(%rbp)
  409460:	48 89 55 e8          	mov    %rdx,-0x18(%rbp)
  409464:	48 8b 45 f8          	mov    -0x8(%rbp),%rax
  409468:	48 8b 75 f0          	mov    -0x10(%rbp),%rsi
  40946c:	48 8b 7d e8          	mov    -0x18(%rbp),%rdi
  409470:	48 89 45 e0          	mov    %rax,-0x20(%rbp)
  409474:	48 89 75 d8          	mov    %rsi,-0x28(%rbp)
  409478:	e8 23 00 00 00       	callq  4094a0 <_ZSt7forwardINSt7__cxx1112basic_stringIcSt11char_traitsIcESaIcEEEEOT_RNSt16remove_referenceIS6_E4typeE>
  40947d:	48 8b 7d e0          	mov    -0x20(%rbp),%rdi
  409481:	48 8b 75 d8          	mov    -0x28(%rbp),%rsi
  409485:	48 89 c2             	mov    %rax,%rdx
  409488:	e8 13 02 00 00       	callq  4096a0 <_ZN9__gnu_cxx13new_allocatorINSt7__cxx1112basic_stringIcSt11char_traitsIcESaIcEEEE9constructIS6_JS6_EEEvPT_DpOT0_>
  40948d:	48 83 c4 30          	add    $0x30,%rsp
  409491:	5d                   	pop    %rbp
  409492:	c3                   	retq   
  409493:	66 2e 0f 1f 84 00 00 	nopw   %cs:0x0(%rax,%rax,1)
  40949a:	00 00 00 
  40949d:	0f 1f 00             	nopl   (%rax)

00000000004094a0 <_ZSt7forwardINSt7__cxx1112basic_stringIcSt11char_traitsIcESaIcEEEEOT_RNSt16remove_referenceIS6_E4typeE>:
  4094a0:	55                   	push   %rbp
  4094a1:	48 89 e5             	mov    %rsp,%rbp
  4094a4:	48 89 7d f8          	mov    %rdi,-0x8(%rbp)
  4094a8:	48 8b 45 f8          	mov    -0x8(%rbp),%rax
  4094ac:	5d                   	pop    %rbp
  4094ad:	c3                   	retq   
  4094ae:	66 90                	xchg   %ax,%ax

00000000004094b0 <_ZNSt6vectorINSt7__cxx1112basic_stringIcSt11char_traitsIcESaIcEEESaIS5_EE17_M_realloc_insertIJS5_EEEvN9__gnu_cxx17__normal_iteratorIPS5_S7_EEDpOT_>:
  4094b0:	55                   	push   %rbp
  4094b1:	48 89 e5             	mov    %rsp,%rbp
  4094b4:	48 81 ec a0 00 00 00 	sub    $0xa0,%rsp
  4094bb:	48 89 75 f8          	mov    %rsi,-0x8(%rbp)
  4094bf:	48 89 7d f0          	mov    %rdi,-0x10(%rbp)
  4094c3:	48 89 55 e8          	mov    %rdx,-0x18(%rbp)
  4094c7:	48 8b 45 f0          	mov    -0x10(%rbp),%rax
  4094cb:	48 89 c7             	mov    %rax,%rdi
  4094ce:	be 01 00 00 00       	mov    $0x1,%esi
  4094d3:	48 ba 46 e0 40 00 00 	movabs $0x40e046,%rdx
  4094da:	00 00 00 
  4094dd:	48 89 45 a8          	mov    %rax,-0x58(%rbp)
  4094e1:	e8 fa 01 00 00       	callq  4096e0 <_ZNKSt6vectorINSt7__cxx1112basic_stringIcSt11char_traitsIcESaIcEEESaIS5_EE12_M_check_lenEmPKc>
  4094e6:	48 89 45 e0          	mov    %rax,-0x20(%rbp)
  4094ea:	48 8b 45 a8          	mov    -0x58(%rbp),%rax
  4094ee:	48 8b 08             	mov    (%rax),%rcx
  4094f1:	48 89 4d d8          	mov    %rcx,-0x28(%rbp)
  4094f5:	48 8b 48 08          	mov    0x8(%rax),%rcx
  4094f9:	48 89 4d d0          	mov    %rcx,-0x30(%rbp)
  4094fd:	48 89 c7             	mov    %rax,%rdi
  409500:	e8 fb 02 00 00       	callq  409800 <_ZNSt6vectorINSt7__cxx1112basic_stringIcSt11char_traitsIcESaIcEEESaIS5_EE5beginEv>
  409505:	48 89 45 c0          	mov    %rax,-0x40(%rbp)
  409509:	48 8d 7d f8          	lea    -0x8(%rbp),%rdi
  40950d:	48 8d 75 c0          	lea    -0x40(%rbp),%rsi
  409511:	e8 aa 02 00 00       	callq  4097c0 <_ZN9__gnu_cxxmiIPNSt7__cxx1112basic_stringIcSt11char_traitsIcESaIcEEESt6vectorIS6_SaIS6_EEEENS_17__normal_iteratorIT_T0_E15difference_typeERKSE_SH_>
  409516:	48 89 45 c8          	mov    %rax,-0x38(%rbp)
  40951a:	48 8b 45 a8          	mov    -0x58(%rbp),%rax
  40951e:	48 8b 75 e0          	mov    -0x20(%rbp),%rsi
  409522:	48 89 c7             	mov    %rax,%rdi
  409525:	e8 06 03 00 00       	callq  409830 <_ZNSt12_Vector_baseINSt7__cxx1112basic_stringIcSt11char_traitsIcESaIcEEESaIS5_EE11_M_allocateEm>
  40952a:	48 89 45 b8          	mov    %rax,-0x48(%rbp)
  40952e:	48 8b 45 b8          	mov    -0x48(%rbp),%rax
  409532:	48 89 45 b0          	mov    %rax,-0x50(%rbp)
  409536:	48 8b 45 a8          	mov    -0x58(%rbp),%rax
  40953a:	48 8b 4d b8          	mov    -0x48(%rbp),%rcx
  40953e:	48 8b 55 c8          	mov    -0x38(%rbp),%rdx
  409542:	48 c1 e2 05          	shl    $0x5,%rdx
  409546:	48 01 d1             	add    %rdx,%rcx
  409549:	48 8b 7d e8          	mov    -0x18(%rbp),%rdi
  40954d:	48 89 45 a0          	mov    %rax,-0x60(%rbp)
  409551:	48 89 4d 98          	mov    %rcx,-0x68(%rbp)
  409555:	e8 46 ff ff ff       	callq  4094a0 <_ZSt7forwardINSt7__cxx1112basic_stringIcSt11char_traitsIcESaIcEEEEOT_RNSt16remove_referenceIS6_E4typeE>
  40955a:	48 8b 7d a0          	mov    -0x60(%rbp),%rdi
  40955e:	48 8b 75 98          	mov    -0x68(%rbp),%rsi
  409562:	48 89 c2             	mov    %rax,%rdx
  409565:	e8 e6 fe ff ff       	callq  409450 <_ZNSt16allocator_traitsISaINSt7__cxx1112basic_stringIcSt11char_traitsIcESaIcEEEEE9constructIS5_JS5_EEEvRS6_PT_DpOT0_>
  40956a:	48 c7 45 b0 00 00 00 	movq   $0x0,-0x50(%rbp)
  409571:	00 
  409572:	48 8b 7d d8          	mov    -0x28(%rbp),%rdi
  409576:	48 8d 45 f8          	lea    -0x8(%rbp),%rax
  40957a:	48 89 7d 90          	mov    %rdi,-0x70(%rbp)
  40957e:	48 89 c7             	mov    %rax,%rdi
  409581:	e8 4a 03 00 00       	callq  4098d0 <_ZNK9__gnu_cxx17__normal_iteratorIPNSt7__cxx1112basic_stringIcSt11char_traitsIcESaIcEEESt6vectorIS6_SaIS6_EEE4baseEv>
  409586:	48 8b 30             	mov    (%rax),%rsi
  409589:	48 8b 55 b8          	mov    -0x48(%rbp),%rdx
  40958d:	48 8b 45 a8          	mov    -0x58(%rbp),%rax
  409591:	48 89 c7             	mov    %rax,%rdi
  409594:	48 89 75 88          	mov    %rsi,-0x78(%rbp)
  409598:	48 89 55 80          	mov    %rdx,-0x80(%rbp)
  40959c:	e8 8f ad ff ff       	callq  404330 <_ZNSt12_Vector_baseINSt7__cxx1112basic_stringIcSt11char_traitsIcESaIcEEESaIS5_EE19_M_get_Tp_allocatorEv>
  4095a1:	48 8b 7d 90          	mov    -0x70(%rbp),%rdi
  4095a5:	48 8b 75 88          	mov    -0x78(%rbp),%rsi
  4095a9:	48 8b 55 80          	mov    -0x80(%rbp),%rdx
  4095ad:	48 89 c1             	mov    %rax,%rcx
  4095b0:	e8 db 02 00 00       	callq  409890 <_ZNSt6vectorINSt7__cxx1112basic_stringIcSt11char_traitsIcESaIcEEESaIS5_EE11_S_relocateEPS5_S8_S8_RS6_>
  4095b5:	48 89 45 b0          	mov    %rax,-0x50(%rbp)
  4095b9:	48 8b 45 b0          	mov    -0x50(%rbp),%rax
  4095bd:	48 05 20 00 00 00    	add    $0x20,%rax
  4095c3:	48 89 45 b0          	mov    %rax,-0x50(%rbp)
  4095c7:	48 8d 7d f8          	lea    -0x8(%rbp),%rdi
  4095cb:	e8 00 03 00 00       	callq  4098d0 <_ZNK9__gnu_cxx17__normal_iteratorIPNSt7__cxx1112basic_stringIcSt11char_traitsIcESaIcEEESt6vectorIS6_SaIS6_EEE4baseEv>
  4095d0:	48 8b 38             	mov    (%rax),%rdi
  4095d3:	48 8b 75 d0          	mov    -0x30(%rbp),%rsi
  4095d7:	48 8b 55 b0          	mov    -0x50(%rbp),%rdx
  4095db:	48 8b 45 a8          	mov    -0x58(%rbp),%rax
  4095df:	48 89 bd 78 ff ff ff 	mov    %rdi,-0x88(%rbp)
  4095e6:	48 89 c7             	mov    %rax,%rdi
  4095e9:	48 89 b5 70 ff ff ff 	mov    %rsi,-0x90(%rbp)
  4095f0:	48 89 95 68 ff ff ff 	mov    %rdx,-0x98(%rbp)
  4095f7:	e8 34 ad ff ff       	callq  404330 <_ZNSt12_Vector_baseINSt7__cxx1112basic_stringIcSt11char_traitsIcESaIcEEESaIS5_EE19_M_get_Tp_allocatorEv>
  4095fc:	48 8b bd 78 ff ff ff 	mov    -0x88(%rbp),%rdi
  409603:	48 8b b5 70 ff ff ff 	mov    -0x90(%rbp),%rsi
  40960a:	48 8b 95 68 ff ff ff 	mov    -0x98(%rbp),%rdx
  409611:	48 89 c1             	mov    %rax,%rcx
  409614:	e8 77 02 00 00       	callq  409890 <_ZNSt6vectorINSt7__cxx1112basic_stringIcSt11char_traitsIcESaIcEEESaIS5_EE11_S_relocateEPS5_S8_S8_RS6_>
  409619:	48 89 45 b0          	mov    %rax,-0x50(%rbp)
  40961d:	48 8b 45 a8          	mov    -0x58(%rbp),%rax
  409621:	48 8b 75 d8          	mov    -0x28(%rbp),%rsi
  409625:	48 8b 4d a8          	mov    -0x58(%rbp),%rcx
  409629:	48 8b 51 10          	mov    0x10(%rcx),%rdx
  40962d:	48 8b 7d d8          	mov    -0x28(%rbp),%rdi
  409631:	48 29 fa             	sub    %rdi,%rdx
  409634:	48 c1 fa 05          	sar    $0x5,%rdx
  409638:	48 89 c7             	mov    %rax,%rdi
  40963b:	e8 10 ae ff ff       	callq  404450 <_ZNSt12_Vector_baseINSt7__cxx1112basic_stringIcSt11char_traitsIcESaIcEEESaIS5_EE13_M_deallocateEPS5_m>
  409640:	48 8b 45 b8          	mov    -0x48(%rbp),%rax
  409644:	48 8b 4d a8          	mov    -0x58(%rbp),%rcx
  409648:	48 89 01             	mov    %rax,(%rcx)
  40964b:	48 8b 45 b0          	mov    -0x50(%rbp),%rax
  40964f:	48 89 41 08          	mov    %rax,0x8(%rcx)
  409653:	48 8b 45 b8          	mov    -0x48(%rbp),%rax
  409657:	48 8b 55 e0          	mov    -0x20(%rbp),%rdx
  40965b:	48 c1 e2 05          	shl    $0x5,%rdx
  40965f:	48 01 d0             	add    %rdx,%rax
  409662:	48 89 41 10          	mov    %rax,0x10(%rcx)
  409666:	48 81 c4 a0 00 00 00 	add    $0xa0,%rsp
  40966d:	5d                   	pop    %rbp
  40966e:	c3                   	retq   
  40966f:	90                   	nop

0000000000409670 <_ZNSt6vectorINSt7__cxx1112basic_stringIcSt11char_traitsIcESaIcEEESaIS5_EE3endEv>:
  409670:	55                   	push   %rbp
  409671:	48 89 e5             	mov    %rsp,%rbp
  409674:	48 83 ec 10          	sub    $0x10,%rsp
  409678:	48 89 7d f0          	mov    %rdi,-0x10(%rbp)
  40967c:	48 8b 45 f0          	mov    -0x10(%rbp),%rax
  409680:	48 05 08 00 00 00    	add    $0x8,%rax
  409686:	48 8d 7d f8          	lea    -0x8(%rbp),%rdi
  40968a:	48 89 c6             	mov    %rax,%rsi
  40968d:	e8 ce 03 00 00       	callq  409a60 <_ZN9__gnu_cxx17__normal_iteratorIPNSt7__cxx1112basic_stringIcSt11char_traitsIcESaIcEEESt6vectorIS6_SaIS6_EEEC2ERKS7_>
  409692:	48 8b 45 f8          	mov    -0x8(%rbp),%rax
  409696:	48 83 c4 10          	add    $0x10,%rsp
  40969a:	5d                   	pop    %rbp
  40969b:	c3                   	retq   
  40969c:	0f 1f 40 00          	nopl   0x0(%rax)

00000000004096a0 <_ZN9__gnu_cxx13new_allocatorINSt7__cxx1112basic_stringIcSt11char_traitsIcESaIcEEEE9constructIS6_JS6_EEEvPT_DpOT0_>:
  4096a0:	55                   	push   %rbp
  4096a1:	48 89 e5             	mov    %rsp,%rbp
  4096a4:	48 83 ec 20          	sub    $0x20,%rsp
  4096a8:	48 89 7d f8          	mov    %rdi,-0x8(%rbp)
  4096ac:	48 89 75 f0          	mov    %rsi,-0x10(%rbp)
  4096b0:	48 89 55 e8          	mov    %rdx,-0x18(%rbp)
  4096b4:	48 8b 45 f0          	mov    -0x10(%rbp),%rax
  4096b8:	48 8b 7d e8          	mov    -0x18(%rbp),%rdi
  4096bc:	48 89 45 e0          	mov    %rax,-0x20(%rbp)
  4096c0:	e8 db fd ff ff       	callq  4094a0 <_ZSt7forwardINSt7__cxx1112basic_stringIcSt11char_traitsIcESaIcEEEEOT_RNSt16remove_referenceIS6_E4typeE>
  4096c5:	48 8b 7d e0          	mov    -0x20(%rbp),%rdi
  4096c9:	48 89 c6             	mov    %rax,%rsi
  4096cc:	e8 5f 9a ff ff       	callq  403130 <_ZNSt7__cxx1112basic_stringIcSt11char_traitsIcESaIcEEC1EOS4_@plt>
  4096d1:	48 83 c4 20          	add    $0x20,%rsp
  4096d5:	5d                   	pop    %rbp
  4096d6:	c3                   	retq   
  4096d7:	66 0f 1f 84 00 00 00 	nopw   0x0(%rax,%rax,1)
  4096de:	00 00 

00000000004096e0 <_ZNKSt6vectorINSt7__cxx1112basic_stringIcSt11char_traitsIcESaIcEEESaIS5_EE12_M_check_lenEmPKc>:
  4096e0:	55                   	push   %rbp
  4096e1:	48 89 e5             	mov    %rsp,%rbp
  4096e4:	48 83 ec 60          	sub    $0x60,%rsp
  4096e8:	48 89 7d f8          	mov    %rdi,-0x8(%rbp)
  4096ec:	48 89 75 f0          	mov    %rsi,-0x10(%rbp)
  4096f0:	48 89 55 e8          	mov    %rdx,-0x18(%rbp)
  4096f4:	48 8b 45 f8          	mov    -0x8(%rbp),%rax
  4096f8:	48 89 c7             	mov    %rax,%rdi
  4096fb:	48 89 45 d0          	mov    %rax,-0x30(%rbp)
  4096ff:	e8 dc 01 00 00       	callq  4098e0 <_ZNKSt6vectorINSt7__cxx1112basic_stringIcSt11char_traitsIcESaIcEEESaIS5_EE8max_sizeEv>
  409704:	48 8b 7d d0          	mov    -0x30(%rbp),%rdi
  409708:	48 89 45 c8          	mov    %rax,-0x38(%rbp)
  40970c:	e8 ff 01 00 00       	callq  409910 <_ZNKSt6vectorINSt7__cxx1112basic_stringIcSt11char_traitsIcESaIcEEESaIS5_EE4sizeEv>
  409711:	48 8b 4d c8          	mov    -0x38(%rbp),%rcx
  409715:	48 29 c1             	sub    %rax,%rcx
  409718:	48 3b 4d f0          	cmp    -0x10(%rbp),%rcx
  40971c:	0f 83 09 00 00 00    	jae    40972b <_ZNKSt6vectorINSt7__cxx1112basic_stringIcSt11char_traitsIcESaIcEEESaIS5_EE12_M_check_lenEmPKc+0x4b>
  409722:	48 8b 7d e8          	mov    -0x18(%rbp),%rdi
  409726:	e8 e5 99 ff ff       	callq  403110 <_ZSt20__throw_length_errorPKc@plt>
  40972b:	48 8b 7d d0          	mov    -0x30(%rbp),%rdi
  40972f:	e8 dc 01 00 00       	callq  409910 <_ZNKSt6vectorINSt7__cxx1112basic_stringIcSt11char_traitsIcESaIcEEESaIS5_EE4sizeEv>
  409734:	48 8b 7d d0          	mov    -0x30(%rbp),%rdi
  409738:	48 89 45 c0          	mov    %rax,-0x40(%rbp)
  40973c:	e8 cf 01 00 00       	callq  409910 <_ZNKSt6vectorINSt7__cxx1112basic_stringIcSt11char_traitsIcESaIcEEESaIS5_EE4sizeEv>
  409741:	48 89 45 d8          	mov    %rax,-0x28(%rbp)
  409745:	48 8d 7d d8          	lea    -0x28(%rbp),%rdi
  409749:	48 8d 75 f0          	lea    -0x10(%rbp),%rsi
  40974d:	e8 de 01 00 00       	callq  409930 <_ZSt3maxImERKT_S2_S2_>
  409752:	48 8b 4d c0          	mov    -0x40(%rbp),%rcx
  409756:	48 03 08             	add    (%rax),%rcx
  409759:	48 89 4d e0          	mov    %rcx,-0x20(%rbp)
  40975d:	48 8b 45 e0          	mov    -0x20(%rbp),%rax
  409761:	48 8b 7d d0          	mov    -0x30(%rbp),%rdi
  409765:	48 89 45 b8          	mov    %rax,-0x48(%rbp)
  409769:	e8 a2 01 00 00       	callq  409910 <_ZNKSt6vectorINSt7__cxx1112basic_stringIcSt11char_traitsIcESaIcEEESaIS5_EE4sizeEv>
  40976e:	48 8b 4d b8          	mov    -0x48(%rbp),%rcx
  409772:	48 39 c1             	cmp    %rax,%rcx
  409775:	0f 82 1e 00 00 00    	jb     409799 <_ZNKSt6vectorINSt7__cxx1112basic_stringIcSt11char_traitsIcESaIcEEESaIS5_EE12_M_check_lenEmPKc+0xb9>
  40977b:	48 8b 45 e0          	mov    -0x20(%rbp),%rax
  40977f:	48 8b 7d d0          	mov    -0x30(%rbp),%rdi
  409783:	48 89 45 b0          	mov    %rax,-0x50(%rbp)
  409787:	e8 54 01 00 00       	callq  4098e0 <_ZNKSt6vectorINSt7__cxx1112basic_stringIcSt11char_traitsIcESaIcEEESaIS5_EE8max_sizeEv>
  40978c:	48 8b 4d b0          	mov    -0x50(%rbp),%rcx
  409790:	48 39 c1             	cmp    %rax,%rcx
  409793:	0f 86 12 00 00 00    	jbe    4097ab <_ZNKSt6vectorINSt7__cxx1112basic_stringIcSt11char_traitsIcESaIcEEESaIS5_EE12_M_check_lenEmPKc+0xcb>
  409799:	48 8b 7d d0          	mov    -0x30(%rbp),%rdi
  40979d:	e8 3e 01 00 00       	callq  4098e0 <_ZNKSt6vectorINSt7__cxx1112basic_stringIcSt11char_traitsIcESaIcEEESaIS5_EE8max_sizeEv>
  4097a2:	48 89 45 a8          	mov    %rax,-0x58(%rbp)
  4097a6:	e9 08 00 00 00       	jmpq   4097b3 <_ZNKSt6vectorINSt7__cxx1112basic_stringIcSt11char_traitsIcESaIcEEESaIS5_EE12_M_check_lenEmPKc+0xd3>
  4097ab:	48 8b 45 e0          	mov    -0x20(%rbp),%rax
  4097af:	48 89 45 a8          	mov    %rax,-0x58(%rbp)
  4097b3:	48 8b 45 a8          	mov    -0x58(%rbp),%rax
  4097b7:	48 83 c4 60          	add    $0x60,%rsp
  4097bb:	5d                   	pop    %rbp
  4097bc:	c3                   	retq   
  4097bd:	0f 1f 00             	nopl   (%rax)

00000000004097c0 <_ZN9__gnu_cxxmiIPNSt7__cxx1112basic_stringIcSt11char_traitsIcESaIcEEESt6vectorIS6_SaIS6_EEEENS_17__normal_iteratorIT_T0_E15difference_typeERKSE_SH_>:
  4097c0:	55                   	push   %rbp
  4097c1:	48 89 e5             	mov    %rsp,%rbp
  4097c4:	48 83 ec 20          	sub    $0x20,%rsp
  4097c8:	48 89 7d f8          	mov    %rdi,-0x8(%rbp)
  4097cc:	48 89 75 f0          	mov    %rsi,-0x10(%rbp)
  4097d0:	48 8b 7d f8          	mov    -0x8(%rbp),%rdi
  4097d4:	e8 f7 00 00 00       	callq  4098d0 <_ZNK9__gnu_cxx17__normal_iteratorIPNSt7__cxx1112basic_stringIcSt11char_traitsIcESaIcEEESt6vectorIS6_SaIS6_EEE4baseEv>
  4097d9:	48 8b 00             	mov    (%rax),%rax
  4097dc:	48 8b 7d f0          	mov    -0x10(%rbp),%rdi
  4097e0:	48 89 45 e8          	mov    %rax,-0x18(%rbp)
  4097e4:	e8 e7 00 00 00       	callq  4098d0 <_ZNK9__gnu_cxx17__normal_iteratorIPNSt7__cxx1112basic_stringIcSt11char_traitsIcESaIcEEESt6vectorIS6_SaIS6_EEE4baseEv>
  4097e9:	48 8b 00             	mov    (%rax),%rax
  4097ec:	48 8b 4d e8          	mov    -0x18(%rbp),%rcx
  4097f0:	48 29 c1             	sub    %rax,%rcx
  4097f3:	48 c1 f9 05          	sar    $0x5,%rcx
  4097f7:	48 89 c8             	mov    %rcx,%rax
  4097fa:	48 83 c4 20          	add    $0x20,%rsp
  4097fe:	5d                   	pop    %rbp
  4097ff:	c3                   	retq   

0000000000409800 <_ZNSt6vectorINSt7__cxx1112basic_stringIcSt11char_traitsIcESaIcEEESaIS5_EE5beginEv>:
  409800:	55                   	push   %rbp
  409801:	48 89 e5             	mov    %rsp,%rbp
  409804:	48 83 ec 10          	sub    $0x10,%rsp
  409808:	48 89 7d f0          	mov    %rdi,-0x10(%rbp)
  40980c:	48 8b 45 f0          	mov    -0x10(%rbp),%rax
  409810:	48 8d 7d f8          	lea    -0x8(%rbp),%rdi
  409814:	48 89 c6             	mov    %rax,%rsi
  409817:	e8 44 02 00 00       	callq  409a60 <_ZN9__gnu_cxx17__normal_iteratorIPNSt7__cxx1112basic_stringIcSt11char_traitsIcESaIcEEESt6vectorIS6_SaIS6_EEEC2ERKS7_>
  40981c:	48 8b 45 f8          	mov    -0x8(%rbp),%rax
  409820:	48 83 c4 10          	add    $0x10,%rsp
  409824:	5d                   	pop    %rbp
  409825:	c3                   	retq   
  409826:	66 2e 0f 1f 84 00 00 	nopw   %cs:0x0(%rax,%rax,1)
  40982d:	00 00 00 

0000000000409830 <_ZNSt12_Vector_baseINSt7__cxx1112basic_stringIcSt11char_traitsIcESaIcEEESaIS5_EE11_M_allocateEm>:
  409830:	55                   	push   %rbp
  409831:	48 89 e5             	mov    %rsp,%rbp
  409834:	48 83 ec 20          	sub    $0x20,%rsp
  409838:	48 89 7d f8          	mov    %rdi,-0x8(%rbp)
  40983c:	48 89 75 f0          	mov    %rsi,-0x10(%rbp)
  409840:	48 8b 45 f8          	mov    -0x8(%rbp),%rax
  409844:	48 83 7d f0 00       	cmpq   $0x0,-0x10(%rbp)
  409849:	48 89 45 e8          	mov    %rax,-0x18(%rbp)
  40984d:	0f 84 19 00 00 00    	je     40986c <_ZNSt12_Vector_baseINSt7__cxx1112basic_stringIcSt11char_traitsIcESaIcEEESaIS5_EE11_M_allocateEm+0x3c>
  409853:	48 8b 45 e8          	mov    -0x18(%rbp),%rax
  409857:	48 8b 75 f0          	mov    -0x10(%rbp),%rsi
  40985b:	48 89 c7             	mov    %rax,%rdi
  40985e:	e8 1d 02 00 00       	callq  409a80 <_ZNSt16allocator_traitsISaINSt7__cxx1112basic_stringIcSt11char_traitsIcESaIcEEEEE8allocateERS6_m>
  409863:	48 89 45 e0          	mov    %rax,-0x20(%rbp)
  409867:	e9 0d 00 00 00       	jmpq   409879 <_ZNSt12_Vector_baseINSt7__cxx1112basic_stringIcSt11char_traitsIcESaIcEEESaIS5_EE11_M_allocateEm+0x49>
  40986c:	31 c0                	xor    %eax,%eax
  40986e:	89 c1                	mov    %eax,%ecx
  409870:	48 89 4d e0          	mov    %rcx,-0x20(%rbp)
  409874:	e9 00 00 00 00       	jmpq   409879 <_ZNSt12_Vector_baseINSt7__cxx1112basic_stringIcSt11char_traitsIcESaIcEEESaIS5_EE11_M_allocateEm+0x49>
  409879:	48 8b 45 e0          	mov    -0x20(%rbp),%rax
  40987d:	48 83 c4 20          	add    $0x20,%rsp
  409881:	5d                   	pop    %rbp
  409882:	c3                   	retq   
  409883:	66 2e 0f 1f 84 00 00 	nopw   %cs:0x0(%rax,%rax,1)
  40988a:	00 00 00 
  40988d:	0f 1f 00             	nopl   (%rax)

0000000000409890 <_ZNSt6vectorINSt7__cxx1112basic_stringIcSt11char_traitsIcESaIcEEESaIS5_EE11_S_relocateEPS5_S8_S8_RS6_>:
  409890:	55                   	push   %rbp
  409891:	48 89 e5             	mov    %rsp,%rbp
  409894:	48 83 ec 30          	sub    $0x30,%rsp
  409898:	48 89 7d f8          	mov    %rdi,-0x8(%rbp)
  40989c:	48 89 75 f0          	mov    %rsi,-0x10(%rbp)
  4098a0:	48 89 55 e8          	mov    %rdx,-0x18(%rbp)
  4098a4:	48 89 4d e0          	mov    %rcx,-0x20(%rbp)
  4098a8:	48 8b 7d f8          	mov    -0x8(%rbp),%rdi
  4098ac:	48 8b 75 f0          	mov    -0x10(%rbp),%rsi
  4098b0:	48 8b 55 e8          	mov    -0x18(%rbp),%rdx
  4098b4:	48 8b 4d e0          	mov    -0x20(%rbp),%rcx
  4098b8:	e8 43 02 00 00       	callq  409b00 <_ZNSt6vectorINSt7__cxx1112basic_stringIcSt11char_traitsIcESaIcEEESaIS5_EE14_S_do_relocateEPS5_S8_S8_RS6_St17integral_constantIbLb1EE>
  4098bd:	48 83 c4 30          	add    $0x30,%rsp
  4098c1:	5d                   	pop    %rbp
  4098c2:	c3                   	retq   
  4098c3:	66 2e 0f 1f 84 00 00 	nopw   %cs:0x0(%rax,%rax,1)
  4098ca:	00 00 00 
  4098cd:	0f 1f 00             	nopl   (%rax)

00000000004098d0 <_ZNK9__gnu_cxx17__normal_iteratorIPNSt7__cxx1112basic_stringIcSt11char_traitsIcESaIcEEESt6vectorIS6_SaIS6_EEE4baseEv>:
  4098d0:	55                   	push   %rbp
  4098d1:	48 89 e5             	mov    %rsp,%rbp
  4098d4:	48 89 7d f8          	mov    %rdi,-0x8(%rbp)
  4098d8:	48 8b 45 f8          	mov    -0x8(%rbp),%rax
  4098dc:	5d                   	pop    %rbp
  4098dd:	c3                   	retq   
  4098de:	66 90                	xchg   %ax,%ax

00000000004098e0 <_ZNKSt6vectorINSt7__cxx1112basic_stringIcSt11char_traitsIcESaIcEEESaIS5_EE8max_sizeEv>:
  4098e0:	55                   	push   %rbp
  4098e1:	48 89 e5             	mov    %rsp,%rbp
  4098e4:	48 83 ec 10          	sub    $0x10,%rsp
  4098e8:	48 89 7d f8          	mov    %rdi,-0x8(%rbp)
  4098ec:	48 8b 45 f8          	mov    -0x8(%rbp),%rax
  4098f0:	48 89 c7             	mov    %rax,%rdi
  4098f3:	e8 d8 00 00 00       	callq  4099d0 <_ZNKSt12_Vector_baseINSt7__cxx1112basic_stringIcSt11char_traitsIcESaIcEEESaIS5_EE19_M_get_Tp_allocatorEv>
  4098f8:	48 89 c7             	mov    %rax,%rdi
  4098fb:	e8 70 00 00 00       	callq  409970 <_ZNSt6vectorINSt7__cxx1112basic_stringIcSt11char_traitsIcESaIcEEESaIS5_EE11_S_max_sizeERKS6_>
  409900:	48 83 c4 10          	add    $0x10,%rsp
  409904:	5d                   	pop    %rbp
  409905:	c3                   	retq   
  409906:	66 2e 0f 1f 84 00 00 	nopw   %cs:0x0(%rax,%rax,1)
  40990d:	00 00 00 

0000000000409910 <_ZNKSt6vectorINSt7__cxx1112basic_stringIcSt11char_traitsIcESaIcEEESaIS5_EE4sizeEv>:
  409910:	55                   	push   %rbp
  409911:	48 89 e5             	mov    %rsp,%rbp
  409914:	48 89 7d f8          	mov    %rdi,-0x8(%rbp)
  409918:	48 8b 45 f8          	mov    -0x8(%rbp),%rax
  40991c:	48 8b 48 08          	mov    0x8(%rax),%rcx
  409920:	48 8b 00             	mov    (%rax),%rax
  409923:	48 29 c1             	sub    %rax,%rcx
  409926:	48 c1 f9 05          	sar    $0x5,%rcx
  40992a:	48 89 c8             	mov    %rcx,%rax
  40992d:	5d                   	pop    %rbp
  40992e:	c3                   	retq   
  40992f:	90                   	nop

0000000000409930 <_ZSt3maxImERKT_S2_S2_>:
  409930:	55                   	push   %rbp
  409931:	48 89 e5             	mov    %rsp,%rbp
  409934:	48 89 7d f0          	mov    %rdi,-0x10(%rbp)
  409938:	48 89 75 e8          	mov    %rsi,-0x18(%rbp)
  40993c:	48 8b 45 f0          	mov    -0x10(%rbp),%rax
  409940:	48 8b 00             	mov    (%rax),%rax
  409943:	48 8b 4d e8          	mov    -0x18(%rbp),%rcx
  409947:	48 3b 01             	cmp    (%rcx),%rax
  40994a:	0f 83 0d 00 00 00    	jae    40995d <_ZSt3maxImERKT_S2_S2_+0x2d>
  409950:	48 8b 45 e8          	mov    -0x18(%rbp),%rax
  409954:	48 89 45 f8          	mov    %rax,-0x8(%rbp)
  409958:	e9 08 00 00 00       	jmpq   409965 <_ZSt3maxImERKT_S2_S2_+0x35>
  40995d:	48 8b 45 f0          	mov    -0x10(%rbp),%rax
  409961:	48 89 45 f8          	mov    %rax,-0x8(%rbp)
  409965:	48 8b 45 f8          	mov    -0x8(%rbp),%rax
  409969:	5d                   	pop    %rbp
  40996a:	c3                   	retq   
  40996b:	0f 1f 44 00 00       	nopl   0x0(%rax,%rax,1)

0000000000409970 <_ZNSt6vectorINSt7__cxx1112basic_stringIcSt11char_traitsIcESaIcEEESaIS5_EE11_S_max_sizeERKS6_>:
  409970:	55                   	push   %rbp
  409971:	48 89 e5             	mov    %rsp,%rbp
  409974:	48 83 ec 30          	sub    $0x30,%rsp
  409978:	48 89 7d f8          	mov    %rdi,-0x8(%rbp)
  40997c:	48 b8 ff ff ff ff ff 	movabs $0x3ffffffffffffff,%rax
  409983:	ff ff 03 
  409986:	48 89 45 f0          	mov    %rax,-0x10(%rbp)
  40998a:	48 8b 7d f8          	mov    -0x8(%rbp),%rdi
  40998e:	e8 4d 00 00 00       	callq  4099e0 <_ZNSt16allocator_traitsISaINSt7__cxx1112basic_stringIcSt11char_traitsIcESaIcEEEEE8max_sizeERKS6_>
  409993:	48 89 45 e8          	mov    %rax,-0x18(%rbp)
  409997:	48 8d 7d f0          	lea    -0x10(%rbp),%rdi
  40999b:	48 8d 75 e8          	lea    -0x18(%rbp),%rsi
  40999f:	e8 5c 00 00 00       	callq  409a00 <_ZSt3minImERKT_S2_S2_>
  4099a4:	48 89 45 e0          	mov    %rax,-0x20(%rbp)
  4099a8:	e9 00 00 00 00       	jmpq   4099ad <_ZNSt6vectorINSt7__cxx1112basic_stringIcSt11char_traitsIcESaIcEEESaIS5_EE11_S_max_sizeERKS6_+0x3d>
  4099ad:	48 8b 45 e0          	mov    -0x20(%rbp),%rax
  4099b1:	48 8b 00             	mov    (%rax),%rax
  4099b4:	48 83 c4 30          	add    $0x30,%rsp
  4099b8:	5d                   	pop    %rbp
  4099b9:	c3                   	retq   
  4099ba:	48 89 c7             	mov    %rax,%rdi
  4099bd:	89 55 dc             	mov    %edx,-0x24(%rbp)
  4099c0:	e8 8b a6 ff ff       	callq  404050 <__clang_call_terminate>
  4099c5:	66 2e 0f 1f 84 00 00 	nopw   %cs:0x0(%rax,%rax,1)
  4099cc:	00 00 00 
  4099cf:	90                   	nop

00000000004099d0 <_ZNKSt12_Vector_baseINSt7__cxx1112basic_stringIcSt11char_traitsIcESaIcEEESaIS5_EE19_M_get_Tp_allocatorEv>:
  4099d0:	55                   	push   %rbp
  4099d1:	48 89 e5             	mov    %rsp,%rbp
  4099d4:	48 89 7d f8          	mov    %rdi,-0x8(%rbp)
  4099d8:	48 8b 45 f8          	mov    -0x8(%rbp),%rax
  4099dc:	5d                   	pop    %rbp
  4099dd:	c3                   	retq   
  4099de:	66 90                	xchg   %ax,%ax

00000000004099e0 <_ZNSt16allocator_traitsISaINSt7__cxx1112basic_stringIcSt11char_traitsIcESaIcEEEEE8max_sizeERKS6_>:
  4099e0:	55                   	push   %rbp
  4099e1:	48 89 e5             	mov    %rsp,%rbp
  4099e4:	48 83 ec 10          	sub    $0x10,%rsp
  4099e8:	48 89 7d f8          	mov    %rdi,-0x8(%rbp)
  4099ec:	48 8b 45 f8          	mov    -0x8(%rbp),%rax
  4099f0:	48 89 c7             	mov    %rax,%rdi
  4099f3:	e8 48 00 00 00       	callq  409a40 <_ZNK9__gnu_cxx13new_allocatorINSt7__cxx1112basic_stringIcSt11char_traitsIcESaIcEEEE8max_sizeEv>
  4099f8:	48 83 c4 10          	add    $0x10,%rsp
  4099fc:	5d                   	pop    %rbp
  4099fd:	c3                   	retq   
  4099fe:	66 90                	xchg   %ax,%ax

0000000000409a00 <_ZSt3minImERKT_S2_S2_>:
  409a00:	55                   	push   %rbp
  409a01:	48 89 e5             	mov    %rsp,%rbp
  409a04:	48 89 7d f0          	mov    %rdi,-0x10(%rbp)
  409a08:	48 89 75 e8          	mov    %rsi,-0x18(%rbp)
  409a0c:	48 8b 45 e8          	mov    -0x18(%rbp),%rax
  409a10:	48 8b 00             	mov    (%rax),%rax
  409a13:	48 8b 4d f0          	mov    -0x10(%rbp),%rcx
  409a17:	48 3b 01             	cmp    (%rcx),%rax
  409a1a:	0f 83 0d 00 00 00    	jae    409a2d <_ZSt3minImERKT_S2_S2_+0x2d>
  409a20:	48 8b 45 e8          	mov    -0x18(%rbp),%rax
  409a24:	48 89 45 f8          	mov    %rax,-0x8(%rbp)
  409a28:	e9 08 00 00 00       	jmpq   409a35 <_ZSt3minImERKT_S2_S2_+0x35>
  409a2d:	48 8b 45 f0          	mov    -0x10(%rbp),%rax
  409a31:	48 89 45 f8          	mov    %rax,-0x8(%rbp)
  409a35:	48 8b 45 f8          	mov    -0x8(%rbp),%rax
  409a39:	5d                   	pop    %rbp
  409a3a:	c3                   	retq   
  409a3b:	0f 1f 44 00 00       	nopl   0x0(%rax,%rax,1)

0000000000409a40 <_ZNK9__gnu_cxx13new_allocatorINSt7__cxx1112basic_stringIcSt11char_traitsIcESaIcEEEE8max_sizeEv>:
  409a40:	55                   	push   %rbp
  409a41:	48 89 e5             	mov    %rsp,%rbp
  409a44:	48 89 7d f8          	mov    %rdi,-0x8(%rbp)
  409a48:	48 b8 ff ff ff ff ff 	movabs $0x3ffffffffffffff,%rax
  409a4f:	ff ff 03 
  409a52:	5d                   	pop    %rbp
  409a53:	c3                   	retq   
  409a54:	66 2e 0f 1f 84 00 00 	nopw   %cs:0x0(%rax,%rax,1)
  409a5b:	00 00 00 
  409a5e:	66 90                	xchg   %ax,%ax

0000000000409a60 <_ZN9__gnu_cxx17__normal_iteratorIPNSt7__cxx1112basic_stringIcSt11char_traitsIcESaIcEEESt6vectorIS6_SaIS6_EEEC2ERKS7_>:
  409a60:	55                   	push   %rbp
  409a61:	48 89 e5             	mov    %rsp,%rbp
  409a64:	48 89 7d f8          	mov    %rdi,-0x8(%rbp)
  409a68:	48 89 75 f0          	mov    %rsi,-0x10(%rbp)
  409a6c:	48 8b 45 f8          	mov    -0x8(%rbp),%rax
  409a70:	48 8b 4d f0          	mov    -0x10(%rbp),%rcx
  409a74:	48 8b 09             	mov    (%rcx),%rcx
  409a77:	48 89 08             	mov    %rcx,(%rax)
  409a7a:	5d                   	pop    %rbp
  409a7b:	c3                   	retq   
  409a7c:	0f 1f 40 00          	nopl   0x0(%rax)

0000000000409a80 <_ZNSt16allocator_traitsISaINSt7__cxx1112basic_stringIcSt11char_traitsIcESaIcEEEEE8allocateERS6_m>:
  409a80:	55                   	push   %rbp
  409a81:	48 89 e5             	mov    %rsp,%rbp
  409a84:	48 83 ec 10          	sub    $0x10,%rsp
  409a88:	31 c0                	xor    %eax,%eax
  409a8a:	89 c2                	mov    %eax,%edx
  409a8c:	48 89 7d f8          	mov    %rdi,-0x8(%rbp)
  409a90:	48 89 75 f0          	mov    %rsi,-0x10(%rbp)
  409a94:	48 8b 4d f8          	mov    -0x8(%rbp),%rcx
  409a98:	48 8b 75 f0          	mov    -0x10(%rbp),%rsi
  409a9c:	48 89 cf             	mov    %rcx,%rdi
  409a9f:	e8 0c 00 00 00       	callq  409ab0 <_ZN9__gnu_cxx13new_allocatorINSt7__cxx1112basic_stringIcSt11char_traitsIcESaIcEEEE8allocateEmPKv>
  409aa4:	48 83 c4 10          	add    $0x10,%rsp
  409aa8:	5d                   	pop    %rbp
  409aa9:	c3                   	retq   
  409aaa:	66 0f 1f 44 00 00    	nopw   0x0(%rax,%rax,1)

0000000000409ab0 <_ZN9__gnu_cxx13new_allocatorINSt7__cxx1112basic_stringIcSt11char_traitsIcESaIcEEEE8allocateEmPKv>:
  409ab0:	55                   	push   %rbp
  409ab1:	48 89 e5             	mov    %rsp,%rbp
  409ab4:	48 83 ec 20          	sub    $0x20,%rsp
  409ab8:	48 89 7d f8          	mov    %rdi,-0x8(%rbp)
  409abc:	48 89 75 f0          	mov    %rsi,-0x10(%rbp)
  409ac0:	48 89 55 e8          	mov    %rdx,-0x18(%rbp)
  409ac4:	48 8b 7d f8          	mov    -0x8(%rbp),%rdi
  409ac8:	48 8b 45 f0          	mov    -0x10(%rbp),%rax
  409acc:	48 89 45 e0          	mov    %rax,-0x20(%rbp)
  409ad0:	e8 6b ff ff ff       	callq  409a40 <_ZNK9__gnu_cxx13new_allocatorINSt7__cxx1112basic_stringIcSt11char_traitsIcESaIcEEEE8max_sizeEv>
  409ad5:	48 8b 4d e0          	mov    -0x20(%rbp),%rcx
  409ad9:	48 39 c1             	cmp    %rax,%rcx
  409adc:	0f 86 05 00 00 00    	jbe    409ae7 <_ZN9__gnu_cxx13new_allocatorINSt7__cxx1112basic_stringIcSt11char_traitsIcESaIcEEEE8allocateEmPKv+0x37>
  409ae2:	e8 a9 95 ff ff       	callq  403090 <_ZSt17__throw_bad_allocv@plt>
  409ae7:	48 8b 45 f0          	mov    -0x10(%rbp),%rax
  409aeb:	48 c1 e0 05          	shl    $0x5,%rax
  409aef:	48 89 c7             	mov    %rax,%rdi
  409af2:	e8 59 97 ff ff       	callq  403250 <_Znwm@plt>
  409af7:	48 83 c4 20          	add    $0x20,%rsp
  409afb:	5d                   	pop    %rbp
  409afc:	c3                   	retq   
  409afd:	0f 1f 00             	nopl   (%rax)

0000000000409b00 <_ZNSt6vectorINSt7__cxx1112basic_stringIcSt11char_traitsIcESaIcEEESaIS5_EE14_S_do_relocateEPS5_S8_S8_RS6_St17integral_constantIbLb1EE>:
  409b00:	55                   	push   %rbp
  409b01:	48 89 e5             	mov    %rsp,%rbp
  409b04:	48 83 ec 30          	sub    $0x30,%rsp
  409b08:	48 89 7d f0          	mov    %rdi,-0x10(%rbp)
  409b0c:	48 89 75 e8          	mov    %rsi,-0x18(%rbp)
  409b10:	48 89 55 e0          	mov    %rdx,-0x20(%rbp)
  409b14:	48 89 4d d8          	mov    %rcx,-0x28(%rbp)
  409b18:	48 8b 7d f0          	mov    -0x10(%rbp),%rdi
  409b1c:	48 8b 75 e8          	mov    -0x18(%rbp),%rsi
  409b20:	48 8b 55 e0          	mov    -0x20(%rbp),%rdx
  409b24:	48 8b 4d d8          	mov    -0x28(%rbp),%rcx
  409b28:	e8 13 00 00 00       	callq  409b40 <_ZSt12__relocate_aIPNSt7__cxx1112basic_stringIcSt11char_traitsIcESaIcEEES6_SaIS5_EET0_T_S9_S8_RT1_>
  409b2d:	48 83 c4 30          	add    $0x30,%rsp
  409b31:	5d                   	pop    %rbp
  409b32:	c3                   	retq   
  409b33:	66 2e 0f 1f 84 00 00 	nopw   %cs:0x0(%rax,%rax,1)
  409b3a:	00 00 00 
  409b3d:	0f 1f 00             	nopl   (%rax)

0000000000409b40 <_ZSt12__relocate_aIPNSt7__cxx1112basic_stringIcSt11char_traitsIcESaIcEEES6_SaIS5_EET0_T_S9_S8_RT1_>:
  409b40:	55                   	push   %rbp
  409b41:	48 89 e5             	mov    %rsp,%rbp
  409b44:	48 83 ec 30          	sub    $0x30,%rsp
  409b48:	48 89 7d f8          	mov    %rdi,-0x8(%rbp)
  409b4c:	48 89 75 f0          	mov    %rsi,-0x10(%rbp)
  409b50:	48 89 55 e8          	mov    %rdx,-0x18(%rbp)
  409b54:	48 89 4d e0          	mov    %rcx,-0x20(%rbp)
  409b58:	48 8b 7d f8          	mov    -0x8(%rbp),%rdi
  409b5c:	e8 bf 00 00 00       	callq  409c20 <_ZSt12__niter_baseIPNSt7__cxx1112basic_stringIcSt11char_traitsIcESaIcEEEET_S7_>
  409b61:	48 8b 7d f0          	mov    -0x10(%rbp),%rdi
  409b65:	48 89 45 d8          	mov    %rax,-0x28(%rbp)
  409b69:	e8 b2 00 00 00       	callq  409c20 <_ZSt12__niter_baseIPNSt7__cxx1112basic_stringIcSt11char_traitsIcESaIcEEEET_S7_>
  409b6e:	48 8b 7d e8          	mov    -0x18(%rbp),%rdi
  409b72:	48 89 45 d0          	mov    %rax,-0x30(%rbp)
  409b76:	e8 a5 00 00 00       	callq  409c20 <_ZSt12__niter_baseIPNSt7__cxx1112basic_stringIcSt11char_traitsIcESaIcEEEET_S7_>
  409b7b:	48 8b 4d e0          	mov    -0x20(%rbp),%rcx
  409b7f:	48 8b 7d d8          	mov    -0x28(%rbp),%rdi
  409b83:	48 8b 75 d0          	mov    -0x30(%rbp),%rsi
  409b87:	48 89 c2             	mov    %rax,%rdx
  409b8a:	e8 11 00 00 00       	callq  409ba0 <_ZSt14__relocate_a_1IPNSt7__cxx1112basic_stringIcSt11char_traitsIcESaIcEEES6_SaIS5_EET0_T_S9_S8_RT1_>
  409b8f:	48 83 c4 30          	add    $0x30,%rsp
  409b93:	5d                   	pop    %rbp
  409b94:	c3                   	retq   
  409b95:	66 2e 0f 1f 84 00 00 	nopw   %cs:0x0(%rax,%rax,1)
  409b9c:	00 00 00 
  409b9f:	90                   	nop

0000000000409ba0 <_ZSt14__relocate_a_1IPNSt7__cxx1112basic_stringIcSt11char_traitsIcESaIcEEES6_SaIS5_EET0_T_S9_S8_RT1_>:
  409ba0:	55                   	push   %rbp
  409ba1:	48 89 e5             	mov    %rsp,%rbp
  409ba4:	48 83 ec 30          	sub    $0x30,%rsp
  409ba8:	48 89 7d f8          	mov    %rdi,-0x8(%rbp)
  409bac:	48 89 75 f0          	mov    %rsi,-0x10(%rbp)
  409bb0:	48 89 55 e8          	mov    %rdx,-0x18(%rbp)
  409bb4:	48 89 4d e0          	mov    %rcx,-0x20(%rbp)
  409bb8:	48 8b 45 e8          	mov    -0x18(%rbp),%rax
  409bbc:	48 89 45 d8          	mov    %rax,-0x28(%rbp)
  409bc0:	48 8b 45 f8          	mov    -0x8(%rbp),%rax
  409bc4:	48 3b 45 f0          	cmp    -0x10(%rbp),%rax
  409bc8:	0f 84 47 00 00 00    	je     409c15 <_ZSt14__relocate_a_1IPNSt7__cxx1112basic_stringIcSt11char_traitsIcESaIcEEES6_SaIS5_EET0_T_S9_S8_RT1_+0x75>
  409bce:	48 8b 7d d8          	mov    -0x28(%rbp),%rdi
  409bd2:	e8 69 a8 ff ff       	callq  404440 <_ZSt11__addressofINSt7__cxx1112basic_stringIcSt11char_traitsIcESaIcEEEEPT_RS6_>
  409bd7:	48 8b 7d f8          	mov    -0x8(%rbp),%rdi
  409bdb:	48 89 45 d0          	mov    %rax,-0x30(%rbp)
  409bdf:	e8 5c a8 ff ff       	callq  404440 <_ZSt11__addressofINSt7__cxx1112basic_stringIcSt11char_traitsIcESaIcEEEEPT_RS6_>
  409be4:	48 8b 55 e0          	mov    -0x20(%rbp),%rdx
  409be8:	48 8b 7d d0          	mov    -0x30(%rbp),%rdi
  409bec:	48 89 c6             	mov    %rax,%rsi
  409bef:	e8 3c 00 00 00       	callq  409c30 <_ZSt19__relocate_object_aINSt7__cxx1112basic_stringIcSt11char_traitsIcESaIcEEES5_SaIS5_EEvPT_PT0_RT1_>
  409bf4:	48 8b 45 f8          	mov    -0x8(%rbp),%rax
  409bf8:	48 05 20 00 00 00    	add    $0x20,%rax
  409bfe:	48 89 45 f8          	mov    %rax,-0x8(%rbp)
  409c02:	48 8b 45 d8          	mov    -0x28(%rbp),%rax
  409c06:	48 05 20 00 00 00    	add    $0x20,%rax
  409c0c:	48 89 45 d8          	mov    %rax,-0x28(%rbp)
  409c10:	e9 ab ff ff ff       	jmpq   409bc0 <_ZSt14__relocate_a_1IPNSt7__cxx1112basic_stringIcSt11char_traitsIcESaIcEEES6_SaIS5_EET0_T_S9_S8_RT1_+0x20>
  409c15:	48 8b 45 d8          	mov    -0x28(%rbp),%rax
  409c19:	48 83 c4 30          	add    $0x30,%rsp
  409c1d:	5d                   	pop    %rbp
  409c1e:	c3                   	retq   
  409c1f:	90                   	nop

0000000000409c20 <_ZSt12__niter_baseIPNSt7__cxx1112basic_stringIcSt11char_traitsIcESaIcEEEET_S7_>:
  409c20:	55                   	push   %rbp
  409c21:	48 89 e5             	mov    %rsp,%rbp
  409c24:	48 89 7d f8          	mov    %rdi,-0x8(%rbp)
  409c28:	48 8b 45 f8          	mov    -0x8(%rbp),%rax
  409c2c:	5d                   	pop    %rbp
  409c2d:	c3                   	retq   
  409c2e:	66 90                	xchg   %ax,%ax

0000000000409c30 <_ZSt19__relocate_object_aINSt7__cxx1112basic_stringIcSt11char_traitsIcESaIcEEES5_SaIS5_EEvPT_PT0_RT1_>:
  409c30:	55                   	push   %rbp
  409c31:	48 89 e5             	mov    %rsp,%rbp
  409c34:	48 83 ec 30          	sub    $0x30,%rsp
  409c38:	48 89 7d f8          	mov    %rdi,-0x8(%rbp)
  409c3c:	48 89 75 f0          	mov    %rsi,-0x10(%rbp)
  409c40:	48 89 55 e8          	mov    %rdx,-0x18(%rbp)
  409c44:	48 8b 7d e8          	mov    -0x18(%rbp),%rdi
  409c48:	48 8b 75 f8          	mov    -0x8(%rbp),%rsi
  409c4c:	48 8b 45 f0          	mov    -0x10(%rbp),%rax
  409c50:	48 89 7d e0          	mov    %rdi,-0x20(%rbp)
  409c54:	48 89 c7             	mov    %rax,%rdi
  409c57:	48 89 75 d8          	mov    %rsi,-0x28(%rbp)
  409c5b:	e8 40 00 00 00       	callq  409ca0 <_ZSt4moveIRNSt7__cxx1112basic_stringIcSt11char_traitsIcESaIcEEEEONSt16remove_referenceIT_E4typeEOS8_>
  409c60:	48 8b 7d e0          	mov    -0x20(%rbp),%rdi
  409c64:	48 8b 75 d8          	mov    -0x28(%rbp),%rsi
  409c68:	48 89 c2             	mov    %rax,%rdx
  409c6b:	e8 e0 f7 ff ff       	callq  409450 <_ZNSt16allocator_traitsISaINSt7__cxx1112basic_stringIcSt11char_traitsIcESaIcEEEEE9constructIS5_JS5_EEEvRS6_PT_DpOT0_>
  409c70:	48 8b 7d e8          	mov    -0x18(%rbp),%rdi
  409c74:	48 8b 45 f0          	mov    -0x10(%rbp),%rax
  409c78:	48 89 7d d0          	mov    %rdi,-0x30(%rbp)
  409c7c:	48 89 c7             	mov    %rax,%rdi
  409c7f:	e8 bc a7 ff ff       	callq  404440 <_ZSt11__addressofINSt7__cxx1112basic_stringIcSt11char_traitsIcESaIcEEEEPT_RS6_>
  409c84:	48 8b 7d d0          	mov    -0x30(%rbp),%rdi
  409c88:	48 89 c6             	mov    %rax,%rsi
  409c8b:	e8 20 00 00 00       	callq  409cb0 <_ZNSt16allocator_traitsISaINSt7__cxx1112basic_stringIcSt11char_traitsIcESaIcEEEEE7destroyIS5_EEvRS6_PT_>
  409c90:	48 83 c4 30          	add    $0x30,%rsp
  409c94:	5d                   	pop    %rbp
  409c95:	c3                   	retq   
  409c96:	66 2e 0f 1f 84 00 00 	nopw   %cs:0x0(%rax,%rax,1)
  409c9d:	00 00 00 

0000000000409ca0 <_ZSt4moveIRNSt7__cxx1112basic_stringIcSt11char_traitsIcESaIcEEEEONSt16remove_referenceIT_E4typeEOS8_>:
  409ca0:	55                   	push   %rbp
  409ca1:	48 89 e5             	mov    %rsp,%rbp
  409ca4:	48 89 7d f8          	mov    %rdi,-0x8(%rbp)
  409ca8:	48 8b 45 f8          	mov    -0x8(%rbp),%rax
  409cac:	5d                   	pop    %rbp
  409cad:	c3                   	retq   
  409cae:	66 90                	xchg   %ax,%ax

0000000000409cb0 <_ZNSt16allocator_traitsISaINSt7__cxx1112basic_stringIcSt11char_traitsIcESaIcEEEEE7destroyIS5_EEvRS6_PT_>:
  409cb0:	55                   	push   %rbp
  409cb1:	48 89 e5             	mov    %rsp,%rbp
  409cb4:	48 83 ec 10          	sub    $0x10,%rsp
  409cb8:	48 89 7d f8          	mov    %rdi,-0x8(%rbp)
  409cbc:	48 89 75 f0          	mov    %rsi,-0x10(%rbp)
  409cc0:	48 8b 45 f8          	mov    -0x8(%rbp),%rax
  409cc4:	48 8b 75 f0          	mov    -0x10(%rbp),%rsi
  409cc8:	48 89 c7             	mov    %rax,%rdi
  409ccb:	e8 10 00 00 00       	callq  409ce0 <_ZN9__gnu_cxx13new_allocatorINSt7__cxx1112basic_stringIcSt11char_traitsIcESaIcEEEE7destroyIS6_EEvPT_>
  409cd0:	48 83 c4 10          	add    $0x10,%rsp
  409cd4:	5d                   	pop    %rbp
  409cd5:	c3                   	retq   
  409cd6:	66 2e 0f 1f 84 00 00 	nopw   %cs:0x0(%rax,%rax,1)
  409cdd:	00 00 00 

0000000000409ce0 <_ZN9__gnu_cxx13new_allocatorINSt7__cxx1112basic_stringIcSt11char_traitsIcESaIcEEEE7destroyIS6_EEvPT_>:
  409ce0:	55                   	push   %rbp
  409ce1:	48 89 e5             	mov    %rsp,%rbp
  409ce4:	48 83 ec 10          	sub    $0x10,%rsp
  409ce8:	48 89 7d f8          	mov    %rdi,-0x8(%rbp)
  409cec:	48 89 75 f0          	mov    %rsi,-0x10(%rbp)
  409cf0:	48 8b 7d f0          	mov    -0x10(%rbp),%rdi
  409cf4:	e8 47 94 ff ff       	callq  403140 <_ZNSt7__cxx1112basic_stringIcSt11char_traitsIcESaIcEED1Ev@plt>
  409cf9:	48 83 c4 10          	add    $0x10,%rsp
  409cfd:	5d                   	pop    %rbp
  409cfe:	c3                   	retq   
  409cff:	90                   	nop

0000000000409d00 <_ZN5boost9iterators20iterator_core_access11dereferenceINS0_18transform_iteratorINS_9algorithm6detail20copy_iterator_rangeFINSt7__cxx1112basic_stringIcSt11char_traitsIcESaIcEEEN9__gnu_cxx17__normal_iteratorIPcSC_EEEENS4_14split_iteratorISG_EENS_11use_defaultESK_EEEENT_9referenceERKSM_>:
  409d00:	55                   	push   %rbp
  409d01:	48 89 e5             	mov    %rsp,%rbp
  409d04:	48 83 ec 20          	sub    $0x20,%rsp
  409d08:	48 89 f8             	mov    %rdi,%rax
  409d0b:	48 89 f9             	mov    %rdi,%rcx
  409d0e:	48 89 4d f8          	mov    %rcx,-0x8(%rbp)
  409d12:	48 89 75 f0          	mov    %rsi,-0x10(%rbp)
  409d16:	48 8b 75 f0          	mov    -0x10(%rbp),%rsi
  409d1a:	48 89 45 e8          	mov    %rax,-0x18(%rbp)
  409d1e:	e8 1d 00 00 00       	callq  409d40 <_ZNK5boost9iterators18transform_iteratorINS_9algorithm6detail20copy_iterator_rangeFINSt7__cxx1112basic_stringIcSt11char_traitsIcESaIcEEEN9__gnu_cxx17__normal_iteratorIPcSA_EEEENS2_14split_iteratorISE_EENS_11use_defaultESI_E11dereferenceEv>
  409d23:	48 8b 45 e8          	mov    -0x18(%rbp),%rax
  409d27:	48 83 c4 20          	add    $0x20,%rsp
  409d2b:	5d                   	pop    %rbp
  409d2c:	c3                   	retq   
  409d2d:	0f 1f 00             	nopl   (%rax)

0000000000409d30 <_ZNK5boost9iterators6detail20iterator_facade_baseINS0_18transform_iteratorINS_9algorithm6detail20copy_iterator_rangeFINSt7__cxx1112basic_stringIcSt11char_traitsIcESaIcEEEN9__gnu_cxx17__normal_iteratorIPcSC_EEEENS4_14split_iteratorISG_EENS_11use_defaultESK_EESC_NS0_21forward_traversal_tagESC_lLb0ELb0EE7derivedEv>:
  409d30:	55                   	push   %rbp
  409d31:	48 89 e5             	mov    %rsp,%rbp
  409d34:	48 89 7d f8          	mov    %rdi,-0x8(%rbp)
  409d38:	48 8b 45 f8          	mov    -0x8(%rbp),%rax
  409d3c:	5d                   	pop    %rbp
  409d3d:	c3                   	retq   
  409d3e:	66 90                	xchg   %ax,%ax

0000000000409d40 <_ZNK5boost9iterators18transform_iteratorINS_9algorithm6detail20copy_iterator_rangeFINSt7__cxx1112basic_stringIcSt11char_traitsIcESaIcEEEN9__gnu_cxx17__normal_iteratorIPcSA_EEEENS2_14split_iteratorISE_EENS_11use_defaultESI_E11dereferenceEv>:
  409d40:	55                   	push   %rbp
  409d41:	48 89 e5             	mov    %rsp,%rbp
  409d44:	48 83 ec 30          	sub    $0x30,%rsp
  409d48:	48 89 f8             	mov    %rdi,%rax
  409d4b:	48 89 f9             	mov    %rdi,%rcx
  409d4e:	48 89 4d f8          	mov    %rcx,-0x8(%rbp)
  409d52:	48 89 75 f0          	mov    %rsi,-0x10(%rbp)
  409d56:	48 8b 4d f0          	mov    -0x10(%rbp),%rcx
  409d5a:	48 89 ca             	mov    %rcx,%rdx
  409d5d:	48 81 c2 48 00 00 00 	add    $0x48,%rdx
  409d64:	48 89 7d e8          	mov    %rdi,-0x18(%rbp)
  409d68:	48 89 cf             	mov    %rcx,%rdi
  409d6b:	48 89 45 e0          	mov    %rax,-0x20(%rbp)
  409d6f:	48 89 55 d8          	mov    %rdx,-0x28(%rbp)
  409d73:	e8 88 f1 ff ff       	callq  408f00 <_ZNK5boost9iterators16iterator_adaptorINS0_18transform_iteratorINS_9algorithm6detail20copy_iterator_rangeFINSt7__cxx1112basic_stringIcSt11char_traitsIcESaIcEEEN9__gnu_cxx17__normal_iteratorIPcSB_EEEENS3_14split_iteratorISF_EENS_11use_defaultESJ_EESI_SB_SJ_SB_SJ_E4baseEv>
  409d78:	48 89 c7             	mov    %rax,%rdi
  409d7b:	e8 60 00 00 00       	callq  409de0 <_ZNK5boost9iterators6detail20iterator_facade_baseINS_9algorithm14split_iteratorIN9__gnu_cxx17__normal_iteratorIPcNSt7__cxx1112basic_stringIcSt11char_traitsIcESaIcEEEEEEEKNS_14iterator_rangeISE_EENS0_21forward_traversal_tagERSI_lLb0ELb0EEdeEv>
  409d80:	48 8b 7d e8          	mov    -0x18(%rbp),%rdi
  409d84:	48 8b 75 d8          	mov    -0x28(%rbp),%rsi
  409d88:	48 89 c2             	mov    %rax,%rdx
  409d8b:	e8 10 00 00 00       	callq  409da0 <_ZNK5boost9algorithm6detail20copy_iterator_rangeFINSt7__cxx1112basic_stringIcSt11char_traitsIcESaIcEEEN9__gnu_cxx17__normal_iteratorIPcS8_EEEclERKNS_14iterator_rangeISC_EE>
  409d90:	48 8b 45 e0          	mov    -0x20(%rbp),%rax
  409d94:	48 83 c4 30          	add    $0x30,%rsp
  409d98:	5d                   	pop    %rbp
  409d99:	c3                   	retq   
  409d9a:	66 0f 1f 44 00 00    	nopw   0x0(%rax,%rax,1)

0000000000409da0 <_ZNK5boost9algorithm6detail20copy_iterator_rangeFINSt7__cxx1112basic_stringIcSt11char_traitsIcESaIcEEEN9__gnu_cxx17__normal_iteratorIPcS8_EEEclERKNS_14iterator_rangeISC_EE>:
  409da0:	55                   	push   %rbp
  409da1:	48 89 e5             	mov    %rsp,%rbp
  409da4:	48 83 ec 20          	sub    $0x20,%rsp
  409da8:	48 89 f8             	mov    %rdi,%rax
  409dab:	48 89 f9             	mov    %rdi,%rcx
  409dae:	48 89 4d f8          	mov    %rcx,-0x8(%rbp)
  409db2:	48 89 75 f0          	mov    %rsi,-0x10(%rbp)
  409db6:	48 89 55 e8          	mov    %rdx,-0x18(%rbp)
  409dba:	48 8b 75 e8          	mov    -0x18(%rbp),%rsi
  409dbe:	48 89 45 e0          	mov    %rax,-0x20(%rbp)
  409dc2:	e8 49 00 00 00       	callq  409e10 <_ZN5boost10copy_rangeINSt7__cxx1112basic_stringIcSt11char_traitsIcESaIcEEENS_14iterator_rangeIN9__gnu_cxx17__normal_iteratorIPcS6_EEEEEET_RKT0_>
  409dc7:	48 8b 45 e0          	mov    -0x20(%rbp),%rax
  409dcb:	48 83 c4 20          	add    $0x20,%rsp
  409dcf:	5d                   	pop    %rbp
  409dd0:	c3                   	retq   
  409dd1:	66 2e 0f 1f 84 00 00 	nopw   %cs:0x0(%rax,%rax,1)
  409dd8:	00 00 00 
  409ddb:	0f 1f 44 00 00       	nopl   0x0(%rax,%rax,1)

0000000000409de0 <_ZNK5boost9iterators6detail20iterator_facade_baseINS_9algorithm14split_iteratorIN9__gnu_cxx17__normal_iteratorIPcNSt7__cxx1112basic_stringIcSt11char_traitsIcESaIcEEEEEEEKNS_14iterator_rangeISE_EENS0_21forward_traversal_tagERSI_lLb0ELb0EEdeEv>:
  409de0:	55                   	push   %rbp
  409de1:	48 89 e5             	mov    %rsp,%rbp
  409de4:	48 83 ec 10          	sub    $0x10,%rsp
  409de8:	48 89 7d f8          	mov    %rdi,-0x8(%rbp)
  409dec:	48 8b 7d f8          	mov    -0x8(%rbp),%rdi
  409df0:	e8 db 03 00 00       	callq  40a1d0 <_ZNK5boost9iterators6detail20iterator_facade_baseINS_9algorithm14split_iteratorIN9__gnu_cxx17__normal_iteratorIPcNSt7__cxx1112basic_stringIcSt11char_traitsIcESaIcEEEEEEEKNS_14iterator_rangeISE_EENS0_21forward_traversal_tagERSI_lLb0ELb0EE7derivedEv>
  409df5:	48 89 c7             	mov    %rax,%rdi
  409df8:	e8 b3 03 00 00       	callq  40a1b0 <_ZN5boost9iterators20iterator_core_access11dereferenceINS_9algorithm14split_iteratorIN9__gnu_cxx17__normal_iteratorIPcNSt7__cxx1112basic_stringIcSt11char_traitsIcESaIcEEEEEEEEENT_9referenceERKSG_>
  409dfd:	48 83 c4 10          	add    $0x10,%rsp
  409e01:	5d                   	pop    %rbp
  409e02:	c3                   	retq   
  409e03:	66 2e 0f 1f 84 00 00 	nopw   %cs:0x0(%rax,%rax,1)
  409e0a:	00 00 00 
  409e0d:	0f 1f 00             	nopl   (%rax)

0000000000409e10 <_ZN5boost10copy_rangeINSt7__cxx1112basic_stringIcSt11char_traitsIcESaIcEEENS_14iterator_rangeIN9__gnu_cxx17__normal_iteratorIPcS6_EEEEEET_RKT0_>:
  409e10:	55                   	push   %rbp
  409e11:	48 89 e5             	mov    %rsp,%rbp
  409e14:	48 83 ec 50          	sub    $0x50,%rsp
  409e18:	48 89 f8             	mov    %rdi,%rax
  409e1b:	48 89 7d f8          	mov    %rdi,-0x8(%rbp)
  409e1f:	48 89 75 f0          	mov    %rsi,-0x10(%rbp)
  409e23:	48 8b 4d f0          	mov    -0x10(%rbp),%rcx
  409e27:	48 89 7d c0          	mov    %rdi,-0x40(%rbp)
  409e2b:	48 89 cf             	mov    %rcx,%rdi
  409e2e:	48 89 45 b8          	mov    %rax,-0x48(%rbp)
  409e32:	e8 89 f3 ff ff       	callq  4091c0 <_ZN5boost17range_adl_barrier5beginINS_14iterator_rangeIN9__gnu_cxx17__normal_iteratorIPcNSt7__cxx1112basic_stringIcSt11char_traitsIcESaIcEEEEEEEEENS_14range_iteratorIKT_vE4typeERSG_>
  409e37:	48 89 45 e8          	mov    %rax,-0x18(%rbp)
  409e3b:	48 8b 7d f0          	mov    -0x10(%rbp),%rdi
  409e3f:	e8 ac f3 ff ff       	callq  4091f0 <_ZN5boost17range_adl_barrier3endINS_14iterator_rangeIN9__gnu_cxx17__normal_iteratorIPcNSt7__cxx1112basic_stringIcSt11char_traitsIcESaIcEEEEEEEEENS_14range_iteratorIKT_vE4typeERSG_>
  409e44:	48 89 45 e0          	mov    %rax,-0x20(%rbp)
  409e48:	48 8d 45 d8          	lea    -0x28(%rbp),%rax
  409e4c:	48 89 c7             	mov    %rax,%rdi
  409e4f:	48 89 45 b0          	mov    %rax,-0x50(%rbp)
  409e53:	e8 98 95 ff ff       	callq  4033f0 <_ZNSaIcEC1Ev@plt>
  409e58:	48 8b 75 e8          	mov    -0x18(%rbp),%rsi
  409e5c:	48 8b 55 e0          	mov    -0x20(%rbp),%rdx
  409e60:	48 8b 7d c0          	mov    -0x40(%rbp),%rdi
  409e64:	48 8b 4d b0          	mov    -0x50(%rbp),%rcx
  409e68:	e8 33 00 00 00       	callq  409ea0 <_ZNSt7__cxx1112basic_stringIcSt11char_traitsIcESaIcEEC2IN9__gnu_cxx17__normal_iteratorIPcS4_EEvEET_SA_RKS3_>
  409e6d:	e9 00 00 00 00       	jmpq   409e72 <_ZN5boost10copy_rangeINSt7__cxx1112basic_stringIcSt11char_traitsIcESaIcEEENS_14iterator_rangeIN9__gnu_cxx17__normal_iteratorIPcS6_EEEEEET_RKT0_+0x62>
  409e72:	48 8d 7d d8          	lea    -0x28(%rbp),%rdi
  409e76:	e8 15 94 ff ff       	callq  403290 <_ZNSaIcED1Ev@plt>
  409e7b:	48 8b 45 b8          	mov    -0x48(%rbp),%rax
  409e7f:	48 83 c4 50          	add    $0x50,%rsp
  409e83:	5d                   	pop    %rbp
  409e84:	c3                   	retq   
  409e85:	48 89 45 d0          	mov    %rax,-0x30(%rbp)
  409e89:	89 55 cc             	mov    %edx,-0x34(%rbp)
  409e8c:	48 8d 7d d8          	lea    -0x28(%rbp),%rdi
  409e90:	e8 fb 93 ff ff       	callq  403290 <_ZNSaIcED1Ev@plt>
  409e95:	48 8b 7d d0          	mov    -0x30(%rbp),%rdi
  409e99:	e8 42 95 ff ff       	callq  4033e0 <_Unwind_Resume@plt>
  409e9e:	66 90                	xchg   %ax,%ax

0000000000409ea0 <_ZNSt7__cxx1112basic_stringIcSt11char_traitsIcESaIcEEC2IN9__gnu_cxx17__normal_iteratorIPcS4_EEvEET_SA_RKS3_>:
  409ea0:	55                   	push   %rbp
  409ea1:	48 89 e5             	mov    %rsp,%rbp
  409ea4:	48 83 ec 50          	sub    $0x50,%rsp
  409ea8:	48 89 75 f8          	mov    %rsi,-0x8(%rbp)
  409eac:	48 89 55 f0          	mov    %rdx,-0x10(%rbp)
  409eb0:	48 89 7d e8          	mov    %rdi,-0x18(%rbp)
  409eb4:	48 89 4d e0          	mov    %rcx,-0x20(%rbp)
  409eb8:	48 8b 45 e8          	mov    -0x18(%rbp),%rax
  409ebc:	48 89 c7             	mov    %rax,%rdi
  409ebf:	48 89 45 b8          	mov    %rax,-0x48(%rbp)
  409ec3:	e8 f8 92 ff ff       	callq  4031c0 <_ZNSt7__cxx1112basic_stringIcSt11char_traitsIcESaIcEE13_M_local_dataEv@plt>
  409ec8:	48 8b 55 e0          	mov    -0x20(%rbp),%rdx
  409ecc:	48 8b 7d b8          	mov    -0x48(%rbp),%rdi
  409ed0:	48 89 c6             	mov    %rax,%rsi
  409ed3:	e8 a8 93 ff ff       	callq  403280 <_ZNSt7__cxx1112basic_stringIcSt11char_traitsIcESaIcEE12_Alloc_hiderC1EPcRKS3_@plt>
  409ed8:	48 8b 45 f8          	mov    -0x8(%rbp),%rax
  409edc:	48 89 45 d8          	mov    %rax,-0x28(%rbp)
  409ee0:	48 8b 45 f0          	mov    -0x10(%rbp),%rax
  409ee4:	48 89 45 d0          	mov    %rax,-0x30(%rbp)
  409ee8:	48 8b 75 d8          	mov    -0x28(%rbp),%rsi
  409eec:	48 8b 55 d0          	mov    -0x30(%rbp),%rdx
  409ef0:	48 8b 7d b8          	mov    -0x48(%rbp),%rdi
  409ef4:	e8 27 00 00 00       	callq  409f20 <_ZNSt7__cxx1112basic_stringIcSt11char_traitsIcESaIcEE12_M_constructIN9__gnu_cxx17__normal_iteratorIPcS4_EEEEvT_SA_>
  409ef9:	e9 00 00 00 00       	jmpq   409efe <_ZNSt7__cxx1112basic_stringIcSt11char_traitsIcESaIcEEC2IN9__gnu_cxx17__normal_iteratorIPcS4_EEvEET_SA_RKS3_+0x5e>
  409efe:	48 83 c4 50          	add    $0x50,%rsp
  409f02:	5d                   	pop    %rbp
  409f03:	c3                   	retq   
  409f04:	48 89 45 c8          	mov    %rax,-0x38(%rbp)
  409f08:	89 55 c4             	mov    %edx,-0x3c(%rbp)
  409f0b:	48 8b 7d b8          	mov    -0x48(%rbp),%rdi
  409f0f:	e8 4c 00 00 00       	callq  409f60 <_ZNSt7__cxx1112basic_stringIcSt11char_traitsIcESaIcEE12_Alloc_hiderD2Ev>
  409f14:	48 8b 7d c8          	mov    -0x38(%rbp),%rdi
  409f18:	e8 c3 94 ff ff       	callq  4033e0 <_Unwind_Resume@plt>
  409f1d:	0f 1f 00             	nopl   (%rax)

0000000000409f20 <_ZNSt7__cxx1112basic_stringIcSt11char_traitsIcESaIcEE12_M_constructIN9__gnu_cxx17__normal_iteratorIPcS4_EEEEvT_SA_>:
  409f20:	55                   	push   %rbp
  409f21:	48 89 e5             	mov    %rsp,%rbp
  409f24:	48 83 ec 30          	sub    $0x30,%rsp
  409f28:	48 89 75 f8          	mov    %rsi,-0x8(%rbp)
  409f2c:	48 89 55 f0          	mov    %rdx,-0x10(%rbp)
  409f30:	48 89 7d e8          	mov    %rdi,-0x18(%rbp)
  409f34:	48 8b 7d e8          	mov    -0x18(%rbp),%rdi
  409f38:	48 8b 45 f8          	mov    -0x8(%rbp),%rax
  409f3c:	48 89 45 e0          	mov    %rax,-0x20(%rbp)
  409f40:	48 8b 45 f0          	mov    -0x10(%rbp),%rax
  409f44:	48 89 45 d8          	mov    %rax,-0x28(%rbp)
  409f48:	48 8b 75 e0          	mov    -0x20(%rbp),%rsi
  409f4c:	48 8b 55 d8          	mov    -0x28(%rbp),%rdx
  409f50:	e8 2b 00 00 00       	callq  409f80 <_ZNSt7__cxx1112basic_stringIcSt11char_traitsIcESaIcEE16_M_construct_auxIN9__gnu_cxx17__normal_iteratorIPcS4_EEEEvT_SA_St12__false_type>
  409f55:	48 83 c4 30          	add    $0x30,%rsp
  409f59:	5d                   	pop    %rbp
  409f5a:	c3                   	retq   
  409f5b:	0f 1f 44 00 00       	nopl   0x0(%rax,%rax,1)

0000000000409f60 <_ZNSt7__cxx1112basic_stringIcSt11char_traitsIcESaIcEE12_Alloc_hiderD2Ev>:
  409f60:	55                   	push   %rbp
  409f61:	48 89 e5             	mov    %rsp,%rbp
  409f64:	48 83 ec 10          	sub    $0x10,%rsp
  409f68:	48 89 7d f8          	mov    %rdi,-0x8(%rbp)
  409f6c:	48 8b 45 f8          	mov    -0x8(%rbp),%rax
  409f70:	48 89 c7             	mov    %rax,%rdi
  409f73:	e8 c8 90 ff ff       	callq  403040 <_ZNSaIcED2Ev@plt>
  409f78:	48 83 c4 10          	add    $0x10,%rsp
  409f7c:	5d                   	pop    %rbp
  409f7d:	c3                   	retq   
  409f7e:	66 90                	xchg   %ax,%ax

0000000000409f80 <_ZNSt7__cxx1112basic_stringIcSt11char_traitsIcESaIcEE16_M_construct_auxIN9__gnu_cxx17__normal_iteratorIPcS4_EEEEvT_SA_St12__false_type>:
  409f80:	55                   	push   %rbp
  409f81:	48 89 e5             	mov    %rsp,%rbp
  409f84:	48 83 ec 40          	sub    $0x40,%rsp
  409f88:	48 89 75 f8          	mov    %rsi,-0x8(%rbp)
  409f8c:	48 89 55 f0          	mov    %rdx,-0x10(%rbp)
  409f90:	48 89 7d e0          	mov    %rdi,-0x20(%rbp)
  409f94:	48 8b 7d e0          	mov    -0x20(%rbp),%rdi
  409f98:	48 8b 45 f8          	mov    -0x8(%rbp),%rax
  409f9c:	48 89 45 d8          	mov    %rax,-0x28(%rbp)
  409fa0:	48 8b 45 f0          	mov    -0x10(%rbp),%rax
  409fa4:	48 89 45 d0          	mov    %rax,-0x30(%rbp)
  409fa8:	48 8b 75 d8          	mov    -0x28(%rbp),%rsi
  409fac:	48 8b 55 d0          	mov    -0x30(%rbp),%rdx
  409fb0:	e8 0b 00 00 00       	callq  409fc0 <_ZNSt7__cxx1112basic_stringIcSt11char_traitsIcESaIcEE12_M_constructIN9__gnu_cxx17__normal_iteratorIPcS4_EEEEvT_SA_St20forward_iterator_tag>
  409fb5:	48 83 c4 40          	add    $0x40,%rsp
  409fb9:	5d                   	pop    %rbp
  409fba:	c3                   	retq   
  409fbb:	0f 1f 44 00 00       	nopl   0x0(%rax,%rax,1)

0000000000409fc0 <_ZNSt7__cxx1112basic_stringIcSt11char_traitsIcESaIcEE12_M_constructIN9__gnu_cxx17__normal_iteratorIPcS4_EEEEvT_SA_St20forward_iterator_tag>:
  409fc0:	55                   	push   %rbp
  409fc1:	48 89 e5             	mov    %rsp,%rbp
  409fc4:	48 81 ec 80 00 00 00 	sub    $0x80,%rsp
  409fcb:	48 89 75 f8          	mov    %rsi,-0x8(%rbp)
  409fcf:	48 89 55 f0          	mov    %rdx,-0x10(%rbp)
  409fd3:	48 89 7d e0          	mov    %rdi,-0x20(%rbp)
  409fd7:	48 8b 45 e0          	mov    -0x20(%rbp),%rax
  409fdb:	48 8b 4d f8          	mov    -0x8(%rbp),%rcx
  409fdf:	48 89 4d d8          	mov    %rcx,-0x28(%rbp)
  409fe3:	48 8b 7d d8          	mov    -0x28(%rbp),%rdi
  409fe7:	48 89 45 98          	mov    %rax,-0x68(%rbp)
  409feb:	e8 30 01 00 00       	callq  40a120 <_ZN9__gnu_cxx17__is_null_pointerINS_17__normal_iteratorIPcNSt7__cxx1112basic_stringIcSt11char_traitsIcESaIcEEEEEEEbT_>
  409ff0:	a8 01                	test   $0x1,%al
  409ff2:	0f 85 05 00 00 00    	jne    409ffd <_ZNSt7__cxx1112basic_stringIcSt11char_traitsIcESaIcEE12_M_constructIN9__gnu_cxx17__normal_iteratorIPcS4_EEEEvT_SA_St20forward_iterator_tag+0x3d>
  409ff8:	e9 29 00 00 00       	jmpq   40a026 <_ZNSt7__cxx1112basic_stringIcSt11char_traitsIcESaIcEE12_M_constructIN9__gnu_cxx17__normal_iteratorIPcS4_EEEEvT_SA_St20forward_iterator_tag+0x66>
  409ffd:	48 8d 7d f8          	lea    -0x8(%rbp),%rdi
  40a001:	48 8d 75 f0          	lea    -0x10(%rbp),%rsi
  40a005:	e8 b6 c9 ff ff       	callq  4069c0 <_ZN9__gnu_cxxneIPcNSt7__cxx1112basic_stringIcSt11char_traitsIcESaIcEEEEEbRKNS_17__normal_iteratorIT_T0_EESD_>
  40a00a:	a8 01                	test   $0x1,%al
  40a00c:	0f 85 05 00 00 00    	jne    40a017 <_ZNSt7__cxx1112basic_stringIcSt11char_traitsIcESaIcEE12_M_constructIN9__gnu_cxx17__normal_iteratorIPcS4_EEEEvT_SA_St20forward_iterator_tag+0x57>
  40a012:	e9 0f 00 00 00       	jmpq   40a026 <_ZNSt7__cxx1112basic_stringIcSt11char_traitsIcESaIcEE12_M_constructIN9__gnu_cxx17__normal_iteratorIPcS4_EEEEvT_SA_St20forward_iterator_tag+0x66>
  40a017:	48 bf 60 e0 40 00 00 	movabs $0x40e060,%rdi
  40a01e:	00 00 00 
  40a021:	e8 6a 91 ff ff       	callq  403190 <_ZSt19__throw_logic_errorPKc@plt>
  40a026:	48 8b 45 f8          	mov    -0x8(%rbp),%rax
  40a02a:	48 89 45 c8          	mov    %rax,-0x38(%rbp)
  40a02e:	48 8b 45 f0          	mov    -0x10(%rbp),%rax
  40a032:	48 89 45 c0          	mov    %rax,-0x40(%rbp)
  40a036:	48 8b 7d c8          	mov    -0x38(%rbp),%rdi
  40a03a:	48 8b 75 c0          	mov    -0x40(%rbp),%rsi
  40a03e:	e8 fd 00 00 00       	callq  40a140 <_ZSt8distanceIN9__gnu_cxx17__normal_iteratorIPcNSt7__cxx1112basic_stringIcSt11char_traitsIcESaIcEEEEEENSt15iterator_traitsIT_E15difference_typeESB_SB_>
  40a043:	48 89 45 d0          	mov    %rax,-0x30(%rbp)
  40a047:	48 83 7d d0 0f       	cmpq   $0xf,-0x30(%rbp)
  40a04c:	0f 86 2a 00 00 00    	jbe    40a07c <_ZNSt7__cxx1112basic_stringIcSt11char_traitsIcESaIcEE12_M_constructIN9__gnu_cxx17__normal_iteratorIPcS4_EEEEvT_SA_St20forward_iterator_tag+0xbc>
  40a052:	31 c0                	xor    %eax,%eax
  40a054:	89 c2                	mov    %eax,%edx
  40a056:	48 8b 7d 98          	mov    -0x68(%rbp),%rdi
  40a05a:	48 8d 75 d0          	lea    -0x30(%rbp),%rsi
  40a05e:	e8 9d 93 ff ff       	callq  403400 <_ZNSt7__cxx1112basic_stringIcSt11char_traitsIcESaIcEE9_M_createERmm@plt>
  40a063:	48 8b 7d 98          	mov    -0x68(%rbp),%rdi
  40a067:	48 89 c6             	mov    %rax,%rsi
  40a06a:	e8 71 91 ff ff       	callq  4031e0 <_ZNSt7__cxx1112basic_stringIcSt11char_traitsIcESaIcEE7_M_dataEPc@plt>
  40a06f:	48 8b 75 d0          	mov    -0x30(%rbp),%rsi
  40a073:	48 8b 7d 98          	mov    -0x68(%rbp),%rdi
  40a077:	e8 d4 93 ff ff       	callq  403450 <_ZNSt7__cxx1112basic_stringIcSt11char_traitsIcESaIcEE11_M_capacityEm@plt>
  40a07c:	48 8b 7d 98          	mov    -0x68(%rbp),%rdi
  40a080:	e8 1b 92 ff ff       	callq  4032a0 <_ZNKSt7__cxx1112basic_stringIcSt11char_traitsIcESaIcEE7_M_dataEv@plt>
  40a085:	48 89 45 90          	mov    %rax,-0x70(%rbp)
  40a089:	e9 00 00 00 00       	jmpq   40a08e <_ZNSt7__cxx1112basic_stringIcSt11char_traitsIcESaIcEE12_M_constructIN9__gnu_cxx17__normal_iteratorIPcS4_EEEEvT_SA_St20forward_iterator_tag+0xce>
  40a08e:	48 8b 45 f8          	mov    -0x8(%rbp),%rax
  40a092:	48 89 45 a8          	mov    %rax,-0x58(%rbp)
  40a096:	48 8b 45 f0          	mov    -0x10(%rbp),%rax
  40a09a:	48 89 45 a0          	mov    %rax,-0x60(%rbp)
  40a09e:	48 8b 75 a8          	mov    -0x58(%rbp),%rsi
  40a0a2:	48 8b 55 a0          	mov    -0x60(%rbp),%rdx
  40a0a6:	48 8b 7d 90          	mov    -0x70(%rbp),%rdi
  40a0aa:	e8 b1 91 ff ff       	callq  403260 <_ZNSt7__cxx1112basic_stringIcSt11char_traitsIcESaIcEE13_S_copy_charsEPcN9__gnu_cxx17__normal_iteratorIS5_S4_EES8_@plt>
  40a0af:	e9 42 00 00 00       	jmpq   40a0f6 <_ZNSt7__cxx1112basic_stringIcSt11char_traitsIcESaIcEE12_M_constructIN9__gnu_cxx17__normal_iteratorIPcS4_EEEEvT_SA_St20forward_iterator_tag+0x136>
  40a0b4:	48 89 45 b8          	mov    %rax,-0x48(%rbp)
  40a0b8:	89 55 b4             	mov    %edx,-0x4c(%rbp)
  40a0bb:	48 8b 7d b8          	mov    -0x48(%rbp),%rdi
  40a0bf:	e8 dc 8f ff ff       	callq  4030a0 <__cxa_begin_catch@plt>
  40a0c4:	48 8b 7d 98          	mov    -0x68(%rbp),%rdi
  40a0c8:	48 89 45 88          	mov    %rax,-0x78(%rbp)
  40a0cc:	e8 ff 91 ff ff       	callq  4032d0 <_ZNSt7__cxx1112basic_stringIcSt11char_traitsIcESaIcEE10_M_disposeEv@plt>
  40a0d1:	e9 00 00 00 00       	jmpq   40a0d6 <_ZNSt7__cxx1112basic_stringIcSt11char_traitsIcESaIcEE12_M_constructIN9__gnu_cxx17__normal_iteratorIPcS4_EEEEvT_SA_St20forward_iterator_tag+0x116>
  40a0d6:	e8 85 92 ff ff       	callq  403360 <__cxa_rethrow@plt>
  40a0db:	e9 40 00 00 00       	jmpq   40a120 <_ZN9__gnu_cxx17__is_null_pointerINS_17__normal_iteratorIPcNSt7__cxx1112basic_stringIcSt11char_traitsIcESaIcEEEEEEEbT_>
  40a0e0:	48 89 45 b8          	mov    %rax,-0x48(%rbp)
  40a0e4:	89 55 b4             	mov    %edx,-0x4c(%rbp)
  40a0e7:	e8 c4 92 ff ff       	callq  4033b0 <__cxa_end_catch@plt>
  40a0ec:	e9 00 00 00 00       	jmpq   40a0f1 <_ZNSt7__cxx1112basic_stringIcSt11char_traitsIcESaIcEE12_M_constructIN9__gnu_cxx17__normal_iteratorIPcS4_EEEEvT_SA_St20forward_iterator_tag+0x131>
  40a0f1:	e9 16 00 00 00       	jmpq   40a10c <_ZNSt7__cxx1112basic_stringIcSt11char_traitsIcESaIcEE12_M_constructIN9__gnu_cxx17__normal_iteratorIPcS4_EEEEvT_SA_St20forward_iterator_tag+0x14c>
  40a0f6:	48 8b 75 d0          	mov    -0x30(%rbp),%rsi
  40a0fa:	48 8b 7d 98          	mov    -0x68(%rbp),%rdi
  40a0fe:	e8 6d 90 ff ff       	callq  403170 <_ZNSt7__cxx1112basic_stringIcSt11char_traitsIcESaIcEE13_M_set_lengthEm@plt>
  40a103:	48 81 c4 80 00 00 00 	add    $0x80,%rsp
  40a10a:	5d                   	pop    %rbp
  40a10b:	c3                   	retq   
  40a10c:	48 8b 7d b8          	mov    -0x48(%rbp),%rdi
  40a110:	e8 cb 92 ff ff       	callq  4033e0 <_Unwind_Resume@plt>
  40a115:	48 89 c7             	mov    %rax,%rdi
  40a118:	89 55 84             	mov    %edx,-0x7c(%rbp)
  40a11b:	e8 30 9f ff ff       	callq  404050 <__clang_call_terminate>

000000000040a120 <_ZN9__gnu_cxx17__is_null_pointerINS_17__normal_iteratorIPcNSt7__cxx1112basic_stringIcSt11char_traitsIcESaIcEEEEEEEbT_>:
  40a120:	55                   	push   %rbp
  40a121:	48 89 e5             	mov    %rsp,%rbp
  40a124:	31 c0                	xor    %eax,%eax
  40a126:	48 89 7d f8          	mov    %rdi,-0x8(%rbp)
  40a12a:	24 01                	and    $0x1,%al
  40a12c:	0f b6 c0             	movzbl %al,%eax
  40a12f:	5d                   	pop    %rbp
  40a130:	c3                   	retq   
  40a131:	66 2e 0f 1f 84 00 00 	nopw   %cs:0x0(%rax,%rax,1)
  40a138:	00 00 00 
  40a13b:	0f 1f 44 00 00       	nopl   0x0(%rax,%rax,1)

000000000040a140 <_ZSt8distanceIN9__gnu_cxx17__normal_iteratorIPcNSt7__cxx1112basic_stringIcSt11char_traitsIcESaIcEEEEEENSt15iterator_traitsIT_E15difference_typeESB_SB_>:
  40a140:	55                   	push   %rbp
  40a141:	48 89 e5             	mov    %rsp,%rbp
  40a144:	48 83 ec 30          	sub    $0x30,%rsp
  40a148:	48 89 7d f8          	mov    %rdi,-0x8(%rbp)
  40a14c:	48 89 75 f0          	mov    %rsi,-0x10(%rbp)
  40a150:	48 8b 45 f8          	mov    -0x8(%rbp),%rax
  40a154:	48 89 45 e8          	mov    %rax,-0x18(%rbp)
  40a158:	48 8b 45 f0          	mov    -0x10(%rbp),%rax
  40a15c:	48 89 45 e0          	mov    %rax,-0x20(%rbp)
  40a160:	48 8d 7d f8          	lea    -0x8(%rbp),%rdi
  40a164:	e8 57 d7 ff ff       	callq  4078c0 <_ZSt19__iterator_categoryIN9__gnu_cxx17__normal_iteratorIPcNSt7__cxx1112basic_stringIcSt11char_traitsIcESaIcEEEEEENSt15iterator_traitsIT_E17iterator_categoryERKSB_>
  40a169:	48 8b 7d e8          	mov    -0x18(%rbp),%rdi
  40a16d:	48 8b 75 e0          	mov    -0x20(%rbp),%rsi
  40a171:	e8 0a 00 00 00       	callq  40a180 <_ZSt10__distanceIN9__gnu_cxx17__normal_iteratorIPcNSt7__cxx1112basic_stringIcSt11char_traitsIcESaIcEEEEEENSt15iterator_traitsIT_E15difference_typeESB_SB_St26random_access_iterator_tag>
  40a176:	48 83 c4 30          	add    $0x30,%rsp
  40a17a:	5d                   	pop    %rbp
  40a17b:	c3                   	retq   
  40a17c:	0f 1f 40 00          	nopl   0x0(%rax)

000000000040a180 <_ZSt10__distanceIN9__gnu_cxx17__normal_iteratorIPcNSt7__cxx1112basic_stringIcSt11char_traitsIcESaIcEEEEEENSt15iterator_traitsIT_E15difference_typeESB_SB_St26random_access_iterator_tag>:
  40a180:	55                   	push   %rbp
  40a181:	48 89 e5             	mov    %rsp,%rbp
  40a184:	48 83 ec 20          	sub    $0x20,%rsp
  40a188:	48 89 7d f8          	mov    %rdi,-0x8(%rbp)
  40a18c:	48 89 75 f0          	mov    %rsi,-0x10(%rbp)
  40a190:	48 8d 7d f0          	lea    -0x10(%rbp),%rdi
  40a194:	48 8d 75 f8          	lea    -0x8(%rbp),%rsi
  40a198:	e8 33 d7 ff ff       	callq  4078d0 <_ZN9__gnu_cxxmiIPcNSt7__cxx1112basic_stringIcSt11char_traitsIcESaIcEEEEENS_17__normal_iteratorIT_T0_E15difference_typeERKSB_SE_>
  40a19d:	48 83 c4 20          	add    $0x20,%rsp
  40a1a1:	5d                   	pop    %rbp
  40a1a2:	c3                   	retq   
  40a1a3:	66 2e 0f 1f 84 00 00 	nopw   %cs:0x0(%rax,%rax,1)
  40a1aa:	00 00 00 
  40a1ad:	0f 1f 00             	nopl   (%rax)

000000000040a1b0 <_ZN5boost9iterators20iterator_core_access11dereferenceINS_9algorithm14split_iteratorIN9__gnu_cxx17__normal_iteratorIPcNSt7__cxx1112basic_stringIcSt11char_traitsIcESaIcEEEEEEEEENT_9referenceERKSG_>:
  40a1b0:	55                   	push   %rbp
  40a1b1:	48 89 e5             	mov    %rsp,%rbp
  40a1b4:	48 83 ec 10          	sub    $0x10,%rsp
  40a1b8:	48 89 7d f8          	mov    %rdi,-0x8(%rbp)
  40a1bc:	48 8b 7d f8          	mov    -0x8(%rbp),%rdi
  40a1c0:	e8 1b 00 00 00       	callq  40a1e0 <_ZNK5boost9algorithm14split_iteratorIN9__gnu_cxx17__normal_iteratorIPcNSt7__cxx1112basic_stringIcSt11char_traitsIcESaIcEEEEEE11dereferenceEv>
  40a1c5:	48 83 c4 10          	add    $0x10,%rsp
  40a1c9:	5d                   	pop    %rbp
  40a1ca:	c3                   	retq   
  40a1cb:	0f 1f 44 00 00       	nopl   0x0(%rax,%rax,1)

000000000040a1d0 <_ZNK5boost9iterators6detail20iterator_facade_baseINS_9algorithm14split_iteratorIN9__gnu_cxx17__normal_iteratorIPcNSt7__cxx1112basic_stringIcSt11char_traitsIcESaIcEEEEEEEKNS_14iterator_rangeISE_EENS0_21forward_traversal_tagERSI_lLb0ELb0EE7derivedEv>:
  40a1d0:	55                   	push   %rbp
  40a1d1:	48 89 e5             	mov    %rsp,%rbp
  40a1d4:	48 89 7d f8          	mov    %rdi,-0x8(%rbp)
  40a1d8:	48 8b 45 f8          	mov    -0x8(%rbp),%rax
  40a1dc:	5d                   	pop    %rbp
  40a1dd:	c3                   	retq   
  40a1de:	66 90                	xchg   %ax,%ax

000000000040a1e0 <_ZNK5boost9algorithm14split_iteratorIN9__gnu_cxx17__normal_iteratorIPcNSt7__cxx1112basic_stringIcSt11char_traitsIcESaIcEEEEEE11dereferenceEv>:
  40a1e0:	55                   	push   %rbp
  40a1e1:	48 89 e5             	mov    %rsp,%rbp
  40a1e4:	48 89 7d f8          	mov    %rdi,-0x8(%rbp)
  40a1e8:	48 8b 45 f8          	mov    -0x8(%rbp),%rax
  40a1ec:	48 05 20 00 00 00    	add    $0x20,%rax
  40a1f2:	5d                   	pop    %rbp
  40a1f3:	c3                   	retq   
  40a1f4:	66 2e 0f 1f 84 00 00 	nopw   %cs:0x0(%rax,%rax,1)
  40a1fb:	00 00 00 
  40a1fe:	66 90                	xchg   %ax,%ax

000000000040a200 <_ZN5boost9iterators20iterator_core_access9incrementINS0_18transform_iteratorINS_9algorithm6detail20copy_iterator_rangeFINSt7__cxx1112basic_stringIcSt11char_traitsIcESaIcEEEN9__gnu_cxx17__normal_iteratorIPcSC_EEEENS4_14split_iteratorISG_EENS_11use_defaultESK_EEEEvRT_>:
  40a200:	55                   	push   %rbp
  40a201:	48 89 e5             	mov    %rsp,%rbp
  40a204:	48 83 ec 10          	sub    $0x10,%rsp
  40a208:	48 89 7d f8          	mov    %rdi,-0x8(%rbp)
  40a20c:	48 8b 45 f8          	mov    -0x8(%rbp),%rax
  40a210:	48 89 c7             	mov    %rax,%rdi
  40a213:	e8 18 00 00 00       	callq  40a230 <_ZN5boost9iterators16iterator_adaptorINS0_18transform_iteratorINS_9algorithm6detail20copy_iterator_rangeFINSt7__cxx1112basic_stringIcSt11char_traitsIcESaIcEEEN9__gnu_cxx17__normal_iteratorIPcSB_EEEENS3_14split_iteratorISF_EENS_11use_defaultESJ_EESI_SB_SJ_SB_SJ_E9incrementEv>
  40a218:	48 83 c4 10          	add    $0x10,%rsp
  40a21c:	5d                   	pop    %rbp
  40a21d:	c3                   	retq   
  40a21e:	66 90                	xchg   %ax,%ax

000000000040a220 <_ZN5boost9iterators6detail20iterator_facade_baseINS0_18transform_iteratorINS_9algorithm6detail20copy_iterator_rangeFINSt7__cxx1112basic_stringIcSt11char_traitsIcESaIcEEEN9__gnu_cxx17__normal_iteratorIPcSC_EEEENS4_14split_iteratorISG_EENS_11use_defaultESK_EESC_NS0_21forward_traversal_tagESC_lLb0ELb0EE7derivedEv>:
  40a220:	55                   	push   %rbp
  40a221:	48 89 e5             	mov    %rsp,%rbp
  40a224:	48 89 7d f8          	mov    %rdi,-0x8(%rbp)
  40a228:	48 8b 45 f8          	mov    -0x8(%rbp),%rax
  40a22c:	5d                   	pop    %rbp
  40a22d:	c3                   	retq   
  40a22e:	66 90                	xchg   %ax,%ax

000000000040a230 <_ZN5boost9iterators16iterator_adaptorINS0_18transform_iteratorINS_9algorithm6detail20copy_iterator_rangeFINSt7__cxx1112basic_stringIcSt11char_traitsIcESaIcEEEN9__gnu_cxx17__normal_iteratorIPcSB_EEEENS3_14split_iteratorISF_EENS_11use_defaultESJ_EESI_SB_SJ_SB_SJ_E9incrementEv>:
  40a230:	55                   	push   %rbp
  40a231:	48 89 e5             	mov    %rsp,%rbp
  40a234:	48 83 ec 10          	sub    $0x10,%rsp
  40a238:	48 89 7d f8          	mov    %rdi,-0x8(%rbp)
  40a23c:	48 8b 45 f8          	mov    -0x8(%rbp),%rax
  40a240:	48 89 c7             	mov    %rax,%rdi
  40a243:	e8 08 00 00 00       	callq  40a250 <_ZN5boost9iterators6detail20iterator_facade_baseINS_9algorithm14split_iteratorIN9__gnu_cxx17__normal_iteratorIPcNSt7__cxx1112basic_stringIcSt11char_traitsIcESaIcEEEEEEEKNS_14iterator_rangeISE_EENS0_21forward_traversal_tagERSI_lLb0ELb0EEppEv>
  40a248:	48 83 c4 10          	add    $0x10,%rsp
  40a24c:	5d                   	pop    %rbp
  40a24d:	c3                   	retq   
  40a24e:	66 90                	xchg   %ax,%ax

000000000040a250 <_ZN5boost9iterators6detail20iterator_facade_baseINS_9algorithm14split_iteratorIN9__gnu_cxx17__normal_iteratorIPcNSt7__cxx1112basic_stringIcSt11char_traitsIcESaIcEEEEEEEKNS_14iterator_rangeISE_EENS0_21forward_traversal_tagERSI_lLb0ELb0EEppEv>:
  40a250:	55                   	push   %rbp
  40a251:	48 89 e5             	mov    %rsp,%rbp
  40a254:	48 83 ec 10          	sub    $0x10,%rsp
  40a258:	48 89 7d f8          	mov    %rdi,-0x8(%rbp)
  40a25c:	48 8b 45 f8          	mov    -0x8(%rbp),%rax
  40a260:	48 89 c7             	mov    %rax,%rdi
  40a263:	48 89 45 f0          	mov    %rax,-0x10(%rbp)
  40a267:	e8 44 00 00 00       	callq  40a2b0 <_ZN5boost9iterators6detail20iterator_facade_baseINS_9algorithm14split_iteratorIN9__gnu_cxx17__normal_iteratorIPcNSt7__cxx1112basic_stringIcSt11char_traitsIcESaIcEEEEEEEKNS_14iterator_rangeISE_EENS0_21forward_traversal_tagERSI_lLb0ELb0EE7derivedEv>
  40a26c:	48 89 c7             	mov    %rax,%rdi
  40a26f:	e8 1c 00 00 00       	callq  40a290 <_ZN5boost9iterators20iterator_core_access9incrementINS_9algorithm14split_iteratorIN9__gnu_cxx17__normal_iteratorIPcNSt7__cxx1112basic_stringIcSt11char_traitsIcESaIcEEEEEEEEEvRT_>
  40a274:	48 8b 7d f0          	mov    -0x10(%rbp),%rdi
  40a278:	e8 33 00 00 00       	callq  40a2b0 <_ZN5boost9iterators6detail20iterator_facade_baseINS_9algorithm14split_iteratorIN9__gnu_cxx17__normal_iteratorIPcNSt7__cxx1112basic_stringIcSt11char_traitsIcESaIcEEEEEEEKNS_14iterator_rangeISE_EENS0_21forward_traversal_tagERSI_lLb0ELb0EE7derivedEv>
  40a27d:	48 83 c4 10          	add    $0x10,%rsp
  40a281:	5d                   	pop    %rbp
  40a282:	c3                   	retq   
  40a283:	66 2e 0f 1f 84 00 00 	nopw   %cs:0x0(%rax,%rax,1)
  40a28a:	00 00 00 
  40a28d:	0f 1f 00             	nopl   (%rax)

000000000040a290 <_ZN5boost9iterators20iterator_core_access9incrementINS_9algorithm14split_iteratorIN9__gnu_cxx17__normal_iteratorIPcNSt7__cxx1112basic_stringIcSt11char_traitsIcESaIcEEEEEEEEEvRT_>:
  40a290:	55                   	push   %rbp
  40a291:	48 89 e5             	mov    %rsp,%rbp
  40a294:	48 83 ec 10          	sub    $0x10,%rsp
  40a298:	48 89 7d f8          	mov    %rdi,-0x8(%rbp)
  40a29c:	48 8b 7d f8          	mov    -0x8(%rbp),%rdi
  40a2a0:	e8 5b c7 ff ff       	callq  406a00 <_ZN5boost9algorithm14split_iteratorIN9__gnu_cxx17__normal_iteratorIPcNSt7__cxx1112basic_stringIcSt11char_traitsIcESaIcEEEEEE9incrementEv>
  40a2a5:	48 83 c4 10          	add    $0x10,%rsp
  40a2a9:	5d                   	pop    %rbp
  40a2aa:	c3                   	retq   
  40a2ab:	0f 1f 44 00 00       	nopl   0x0(%rax,%rax,1)

000000000040a2b0 <_ZN5boost9iterators6detail20iterator_facade_baseINS_9algorithm14split_iteratorIN9__gnu_cxx17__normal_iteratorIPcNSt7__cxx1112basic_stringIcSt11char_traitsIcESaIcEEEEEEEKNS_14iterator_rangeISE_EENS0_21forward_traversal_tagERSI_lLb0ELb0EE7derivedEv>:
  40a2b0:	55                   	push   %rbp
  40a2b1:	48 89 e5             	mov    %rsp,%rbp
  40a2b4:	48 89 7d f8          	mov    %rdi,-0x8(%rbp)
  40a2b8:	48 8b 45 f8          	mov    -0x8(%rbp),%rax
  40a2bc:	5d                   	pop    %rbp
  40a2bd:	c3                   	retq   
  40a2be:	66 90                	xchg   %ax,%ax

000000000040a2c0 <_ZNSt6vectorINSt7__cxx1112basic_stringIcSt11char_traitsIcESaIcEEESaIS5_EE15_M_erase_at_endEPS5_>:
  40a2c0:	55                   	push   %rbp
  40a2c1:	48 89 e5             	mov    %rsp,%rbp
  40a2c4:	48 83 ec 40          	sub    $0x40,%rsp
  40a2c8:	48 89 7d f8          	mov    %rdi,-0x8(%rbp)
  40a2cc:	48 89 75 f0          	mov    %rsi,-0x10(%rbp)
  40a2d0:	48 8b 45 f8          	mov    -0x8(%rbp),%rax
  40a2d4:	48 8b 48 08          	mov    0x8(%rax),%rcx
  40a2d8:	48 8b 55 f0          	mov    -0x10(%rbp),%rdx
  40a2dc:	48 29 d1             	sub    %rdx,%rcx
  40a2df:	48 c1 f9 05          	sar    $0x5,%rcx
  40a2e3:	48 89 4d e8          	mov    %rcx,-0x18(%rbp)
  40a2e7:	48 83 7d e8 00       	cmpq   $0x0,-0x18(%rbp)
  40a2ec:	48 89 45 e0          	mov    %rax,-0x20(%rbp)
  40a2f0:	0f 84 3d 00 00 00    	je     40a333 <_ZNSt6vectorINSt7__cxx1112basic_stringIcSt11char_traitsIcESaIcEEESaIS5_EE15_M_erase_at_endEPS5_+0x73>
  40a2f6:	48 8b 7d f0          	mov    -0x10(%rbp),%rdi
  40a2fa:	48 8b 45 e0          	mov    -0x20(%rbp),%rax
  40a2fe:	48 8b 70 08          	mov    0x8(%rax),%rsi
  40a302:	48 89 7d d8          	mov    %rdi,-0x28(%rbp)
  40a306:	48 89 c7             	mov    %rax,%rdi
  40a309:	48 89 75 d0          	mov    %rsi,-0x30(%rbp)
  40a30d:	e8 1e a0 ff ff       	callq  404330 <_ZNSt12_Vector_baseINSt7__cxx1112basic_stringIcSt11char_traitsIcESaIcEEESaIS5_EE19_M_get_Tp_allocatorEv>
  40a312:	48 8b 7d d8          	mov    -0x28(%rbp),%rdi
  40a316:	48 8b 75 d0          	mov    -0x30(%rbp),%rsi
  40a31a:	48 89 c2             	mov    %rax,%rdx
  40a31d:	e8 de 9f ff ff       	callq  404300 <_ZSt8_DestroyIPNSt7__cxx1112basic_stringIcSt11char_traitsIcESaIcEEES5_EvT_S7_RSaIT0_E>
  40a322:	e9 00 00 00 00       	jmpq   40a327 <_ZNSt6vectorINSt7__cxx1112basic_stringIcSt11char_traitsIcESaIcEEESaIS5_EE15_M_erase_at_endEPS5_+0x67>
  40a327:	48 8b 45 f0          	mov    -0x10(%rbp),%rax
  40a32b:	48 8b 4d e0          	mov    -0x20(%rbp),%rcx
  40a32f:	48 89 41 08          	mov    %rax,0x8(%rcx)
  40a333:	48 83 c4 40          	add    $0x40,%rsp
  40a337:	5d                   	pop    %rbp
  40a338:	c3                   	retq   
  40a339:	48 89 c7             	mov    %rax,%rdi
  40a33c:	89 55 cc             	mov    %edx,-0x34(%rbp)
  40a33f:	e8 0c 9d ff ff       	callq  404050 <__clang_call_terminate>
  40a344:	66 2e 0f 1f 84 00 00 	nopw   %cs:0x0(%rax,%rax,1)
  40a34b:	00 00 00 
  40a34e:	66 90                	xchg   %ax,%ax

000000000040a350 <_ZN5boost9iterators16iterator_adaptorINS0_18transform_iteratorINS_9algorithm6detail20copy_iterator_rangeFINSt7__cxx1112basic_stringIcSt11char_traitsIcESaIcEEEN9__gnu_cxx17__normal_iteratorIPcSB_EEEENS3_14split_iteratorISF_EENS_11use_defaultESJ_EESI_SB_SJ_SB_SJ_ED2Ev>:
  40a350:	55                   	push   %rbp
  40a351:	48 89 e5             	mov    %rsp,%rbp
  40a354:	48 83 ec 10          	sub    $0x10,%rsp
  40a358:	48 89 7d f8          	mov    %rdi,-0x8(%rbp)
  40a35c:	48 8b 7d f8          	mov    -0x8(%rbp),%rdi
  40a360:	e8 7b bd ff ff       	callq  4060e0 <_ZN5boost9algorithm14split_iteratorIN9__gnu_cxx17__normal_iteratorIPcNSt7__cxx1112basic_stringIcSt11char_traitsIcESaIcEEEEEED2Ev>
  40a365:	48 83 c4 10          	add    $0x10,%rsp
  40a369:	5d                   	pop    %rbp
  40a36a:	c3                   	retq   
  40a36b:	0f 1f 44 00 00       	nopl   0x0(%rax,%rax,1)

000000000040a370 <_ZNSt12_Vector_baseINSt7__cxx1112basic_stringIcSt11char_traitsIcESaIcEEESaIS5_EE17_Vector_impl_data12_M_swap_dataERS8_>:
  40a370:	55                   	push   %rbp
  40a371:	48 89 e5             	mov    %rsp,%rbp
  40a374:	48 83 ec 30          	sub    $0x30,%rsp
  40a378:	48 89 7d f8          	mov    %rdi,-0x8(%rbp)
  40a37c:	48 89 75 f0          	mov    %rsi,-0x10(%rbp)
  40a380:	48 8b 45 f8          	mov    -0x8(%rbp),%rax
  40a384:	48 8d 7d d8          	lea    -0x28(%rbp),%rdi
  40a388:	48 89 45 d0          	mov    %rax,-0x30(%rbp)
  40a38c:	e8 5f 00 00 00       	callq  40a3f0 <_ZNSt12_Vector_baseINSt7__cxx1112basic_stringIcSt11char_traitsIcESaIcEEESaIS5_EE17_Vector_impl_dataC2Ev>
  40a391:	48 8d 7d d8          	lea    -0x28(%rbp),%rdi
  40a395:	48 8b 75 d0          	mov    -0x30(%rbp),%rsi
  40a399:	e8 82 00 00 00       	callq  40a420 <_ZNSt12_Vector_baseINSt7__cxx1112basic_stringIcSt11char_traitsIcESaIcEEESaIS5_EE17_Vector_impl_data12_M_copy_dataERKS8_>
  40a39e:	48 8b 75 f0          	mov    -0x10(%rbp),%rsi
  40a3a2:	48 8b 7d d0          	mov    -0x30(%rbp),%rdi
  40a3a6:	e8 75 00 00 00       	callq  40a420 <_ZNSt12_Vector_baseINSt7__cxx1112basic_stringIcSt11char_traitsIcESaIcEEESaIS5_EE17_Vector_impl_data12_M_copy_dataERKS8_>
  40a3ab:	48 8b 7d f0          	mov    -0x10(%rbp),%rdi
  40a3af:	48 8d 75 d8          	lea    -0x28(%rbp),%rsi
  40a3b3:	e8 68 00 00 00       	callq  40a420 <_ZNSt12_Vector_baseINSt7__cxx1112basic_stringIcSt11char_traitsIcESaIcEEESaIS5_EE17_Vector_impl_data12_M_copy_dataERKS8_>
  40a3b8:	48 83 c4 30          	add    $0x30,%rsp
  40a3bc:	5d                   	pop    %rbp
  40a3bd:	c3                   	retq   
  40a3be:	66 90                	xchg   %ax,%ax

000000000040a3c0 <_ZN9__gnu_cxx14__alloc_traitsISaINSt7__cxx1112basic_stringIcSt11char_traitsIcESaIcEEEES6_E10_S_on_swapERS7_S9_>:
  40a3c0:	55                   	push   %rbp
  40a3c1:	48 89 e5             	mov    %rsp,%rbp
  40a3c4:	48 83 ec 10          	sub    $0x10,%rsp
  40a3c8:	48 89 7d f8          	mov    %rdi,-0x8(%rbp)
  40a3cc:	48 89 75 f0          	mov    %rsi,-0x10(%rbp)
  40a3d0:	48 8b 7d f8          	mov    -0x8(%rbp),%rdi
  40a3d4:	48 8b 75 f0          	mov    -0x10(%rbp),%rsi
  40a3d8:	e8 83 00 00 00       	callq  40a460 <_ZSt15__alloc_on_swapISaINSt7__cxx1112basic_stringIcSt11char_traitsIcESaIcEEEEEvRT_S8_>
  40a3dd:	48 83 c4 10          	add    $0x10,%rsp
  40a3e1:	5d                   	pop    %rbp
  40a3e2:	c3                   	retq   
  40a3e3:	66 2e 0f 1f 84 00 00 	nopw   %cs:0x0(%rax,%rax,1)
  40a3ea:	00 00 00 
  40a3ed:	0f 1f 00             	nopl   (%rax)

000000000040a3f0 <_ZNSt12_Vector_baseINSt7__cxx1112basic_stringIcSt11char_traitsIcESaIcEEESaIS5_EE17_Vector_impl_dataC2Ev>:
  40a3f0:	55                   	push   %rbp
  40a3f1:	48 89 e5             	mov    %rsp,%rbp
  40a3f4:	48 89 7d f8          	mov    %rdi,-0x8(%rbp)
  40a3f8:	48 8b 45 f8          	mov    -0x8(%rbp),%rax
  40a3fc:	48 c7 00 00 00 00 00 	movq   $0x0,(%rax)
  40a403:	48 c7 40 08 00 00 00 	movq   $0x0,0x8(%rax)
  40a40a:	00 
  40a40b:	48 c7 40 10 00 00 00 	movq   $0x0,0x10(%rax)
  40a412:	00 
  40a413:	5d                   	pop    %rbp
  40a414:	c3                   	retq   
  40a415:	66 2e 0f 1f 84 00 00 	nopw   %cs:0x0(%rax,%rax,1)
  40a41c:	00 00 00 
  40a41f:	90                   	nop

000000000040a420 <_ZNSt12_Vector_baseINSt7__cxx1112basic_stringIcSt11char_traitsIcESaIcEEESaIS5_EE17_Vector_impl_data12_M_copy_dataERKS8_>:
  40a420:	55                   	push   %rbp
  40a421:	48 89 e5             	mov    %rsp,%rbp
  40a424:	48 89 7d f8          	mov    %rdi,-0x8(%rbp)
  40a428:	48 89 75 f0          	mov    %rsi,-0x10(%rbp)
  40a42c:	48 8b 45 f8          	mov    -0x8(%rbp),%rax
  40a430:	48 8b 4d f0          	mov    -0x10(%rbp),%rcx
  40a434:	48 8b 09             	mov    (%rcx),%rcx
  40a437:	48 89 08             	mov    %rcx,(%rax)
  40a43a:	48 8b 4d f0          	mov    -0x10(%rbp),%rcx
  40a43e:	48 8b 49 08          	mov    0x8(%rcx),%rcx
  40a442:	48 89 48 08          	mov    %rcx,0x8(%rax)
  40a446:	48 8b 4d f0          	mov    -0x10(%rbp),%rcx
  40a44a:	48 8b 49 10          	mov    0x10(%rcx),%rcx
  40a44e:	48 89 48 10          	mov    %rcx,0x10(%rax)
  40a452:	5d                   	pop    %rbp
  40a453:	c3                   	retq   
  40a454:	66 2e 0f 1f 84 00 00 	nopw   %cs:0x0(%rax,%rax,1)
  40a45b:	00 00 00 
  40a45e:	66 90                	xchg   %ax,%ax

000000000040a460 <_ZSt15__alloc_on_swapISaINSt7__cxx1112basic_stringIcSt11char_traitsIcESaIcEEEEEvRT_S8_>:
  40a460:	55                   	push   %rbp
  40a461:	48 89 e5             	mov    %rsp,%rbp
  40a464:	48 83 ec 20          	sub    $0x20,%rsp
  40a468:	48 89 7d f8          	mov    %rdi,-0x8(%rbp)
  40a46c:	48 89 75 f0          	mov    %rsi,-0x10(%rbp)
  40a470:	48 8b 7d f8          	mov    -0x8(%rbp),%rdi
  40a474:	48 8b 75 f0          	mov    -0x10(%rbp),%rsi
  40a478:	e8 13 00 00 00       	callq  40a490 <_ZSt18__do_alloc_on_swapISaINSt7__cxx1112basic_stringIcSt11char_traitsIcESaIcEEEEEvRT_S8_St17integral_constantIbLb0EE>
  40a47d:	48 83 c4 20          	add    $0x20,%rsp
  40a481:	5d                   	pop    %rbp
  40a482:	c3                   	retq   
  40a483:	66 2e 0f 1f 84 00 00 	nopw   %cs:0x0(%rax,%rax,1)
  40a48a:	00 00 00 
  40a48d:	0f 1f 00             	nopl   (%rax)

000000000040a490 <_ZSt18__do_alloc_on_swapISaINSt7__cxx1112basic_stringIcSt11char_traitsIcESaIcEEEEEvRT_S8_St17integral_constantIbLb0EE>:
  40a490:	55                   	push   %rbp
  40a491:	48 89 e5             	mov    %rsp,%rbp
  40a494:	48 89 7d f0          	mov    %rdi,-0x10(%rbp)
  40a498:	48 89 75 e8          	mov    %rsi,-0x18(%rbp)
  40a49c:	5d                   	pop    %rbp
  40a49d:	c3                   	retq   
  40a49e:	66 90                	xchg   %ax,%ax

000000000040a4a0 <_ZN5boost9algorithm6detail13token_finderFINS1_10is_any_ofFIcEEEC2ES4_NS0_24token_compress_mode_typeE>:
  40a4a0:	55                   	push   %rbp
  40a4a1:	48 89 e5             	mov    %rsp,%rbp
  40a4a4:	48 83 ec 20          	sub    $0x20,%rsp
  40a4a8:	48 89 7d f8          	mov    %rdi,-0x8(%rbp)
  40a4ac:	89 55 f4             	mov    %edx,-0xc(%rbp)
  40a4af:	48 8b 45 f8          	mov    -0x8(%rbp),%rax
  40a4b3:	48 89 c7             	mov    %rax,%rdi
  40a4b6:	48 89 45 e8          	mov    %rax,-0x18(%rbp)
  40a4ba:	e8 41 b9 ff ff       	callq  405e00 <_ZN5boost9algorithm6detail10is_any_ofFIcEC2ERKS3_>
  40a4bf:	8b 4d f4             	mov    -0xc(%rbp),%ecx
  40a4c2:	48 8b 45 e8          	mov    -0x18(%rbp),%rax
  40a4c6:	89 48 18             	mov    %ecx,0x18(%rax)
  40a4c9:	48 83 c4 20          	add    $0x20,%rsp
  40a4cd:	5d                   	pop    %rbp
  40a4ce:	c3                   	retq   
  40a4cf:	90                   	nop

000000000040a4d0 <_ZNSt16allocator_traitsISaISt6vectorINSt7__cxx1112basic_stringIcSt11char_traitsIcESaIcEEESaIS6_EEEE9constructIS8_JRKS8_EEEvRS9_PT_DpOT0_>:
  40a4d0:	55                   	push   %rbp
  40a4d1:	48 89 e5             	mov    %rsp,%rbp
  40a4d4:	48 83 ec 30          	sub    $0x30,%rsp
  40a4d8:	48 89 7d f8          	mov    %rdi,-0x8(%rbp)
  40a4dc:	48 89 75 f0          	mov    %rsi,-0x10(%rbp)
  40a4e0:	48 89 55 e8          	mov    %rdx,-0x18(%rbp)
  40a4e4:	48 8b 45 f8          	mov    -0x8(%rbp),%rax
  40a4e8:	48 8b 75 f0          	mov    -0x10(%rbp),%rsi
  40a4ec:	48 8b 7d e8          	mov    -0x18(%rbp),%rdi
  40a4f0:	48 89 45 e0          	mov    %rax,-0x20(%rbp)
  40a4f4:	48 89 75 d8          	mov    %rsi,-0x28(%rbp)
  40a4f8:	e8 43 03 00 00       	callq  40a840 <_ZSt7forwardIRKSt6vectorINSt7__cxx1112basic_stringIcSt11char_traitsIcESaIcEEESaIS6_EEEOT_RNSt16remove_referenceISB_E4typeE>
  40a4fd:	48 8b 7d e0          	mov    -0x20(%rbp),%rdi
  40a501:	48 8b 75 d8          	mov    -0x28(%rbp),%rsi
  40a505:	48 89 c2             	mov    %rax,%rdx
  40a508:	e8 f3 02 00 00       	callq  40a800 <_ZN9__gnu_cxx13new_allocatorISt6vectorINSt7__cxx1112basic_stringIcSt11char_traitsIcESaIcEEESaIS7_EEE9constructIS9_JRKS9_EEEvPT_DpOT0_>
  40a50d:	48 83 c4 30          	add    $0x30,%rsp
  40a511:	5d                   	pop    %rbp
  40a512:	c3                   	retq   
  40a513:	66 2e 0f 1f 84 00 00 	nopw   %cs:0x0(%rax,%rax,1)
  40a51a:	00 00 00 
  40a51d:	0f 1f 00             	nopl   (%rax)

000000000040a520 <_ZNSt6vectorIS_INSt7__cxx1112basic_stringIcSt11char_traitsIcESaIcEEESaIS5_EESaIS7_EE17_M_realloc_insertIJRKS7_EEEvN9__gnu_cxx17__normal_iteratorIPS7_S9_EEDpOT_>:
  40a520:	55                   	push   %rbp
  40a521:	48 89 e5             	mov    %rsp,%rbp
  40a524:	48 81 ec c0 00 00 00 	sub    $0xc0,%rsp
  40a52b:	48 89 75 f8          	mov    %rsi,-0x8(%rbp)
  40a52f:	48 89 7d f0          	mov    %rdi,-0x10(%rbp)
  40a533:	48 89 55 e8          	mov    %rdx,-0x18(%rbp)
  40a537:	48 8b 45 f0          	mov    -0x10(%rbp),%rax
  40a53b:	ba 46 e0 40 00       	mov    $0x40e046,%edx
  40a540:	be 01 00 00 00       	mov    $0x1,%esi
  40a545:	48 89 c7             	mov    %rax,%rdi
  40a548:	48 89 45 98          	mov    %rax,-0x68(%rbp)
  40a54c:	e8 ff 07 00 00       	callq  40ad50 <_ZNKSt6vectorIS_INSt7__cxx1112basic_stringIcSt11char_traitsIcESaIcEEESaIS5_EESaIS7_EE12_M_check_lenEmPKc>
  40a551:	48 89 45 e0          	mov    %rax,-0x20(%rbp)
  40a555:	48 8b 45 98          	mov    -0x68(%rbp),%rax
  40a559:	48 8b 08             	mov    (%rax),%rcx
  40a55c:	48 89 4d d8          	mov    %rcx,-0x28(%rbp)
  40a560:	48 8b 48 08          	mov    0x8(%rax),%rcx
  40a564:	48 89 4d d0          	mov    %rcx,-0x30(%rbp)
  40a568:	48 89 c7             	mov    %rax,%rdi
  40a56b:	e8 10 09 00 00       	callq  40ae80 <_ZNSt6vectorIS_INSt7__cxx1112basic_stringIcSt11char_traitsIcESaIcEEESaIS5_EESaIS7_EE5beginEv>
  40a570:	48 89 45 c0          	mov    %rax,-0x40(%rbp)
  40a574:	48 8d 7d f8          	lea    -0x8(%rbp),%rdi
  40a578:	48 8d 75 c0          	lea    -0x40(%rbp),%rsi
  40a57c:	e8 af 08 00 00       	callq  40ae30 <_ZN9__gnu_cxxmiIPSt6vectorINSt7__cxx1112basic_stringIcSt11char_traitsIcESaIcEEESaIS7_EES1_IS9_SaIS9_EEEENS_17__normal_iteratorIT_T0_E15difference_typeERKSG_SJ_>
  40a581:	48 89 45 c8          	mov    %rax,-0x38(%rbp)
  40a585:	48 8b 75 e0          	mov    -0x20(%rbp),%rsi
  40a589:	48 8b 7d 98          	mov    -0x68(%rbp),%rdi
  40a58d:	e8 1e 09 00 00       	callq  40aeb0 <_ZNSt12_Vector_baseISt6vectorINSt7__cxx1112basic_stringIcSt11char_traitsIcESaIcEEESaIS6_EESaIS8_EE11_M_allocateEm>
  40a592:	48 89 45 b8          	mov    %rax,-0x48(%rbp)
  40a596:	48 8b 45 b8          	mov    -0x48(%rbp),%rax
  40a59a:	48 89 45 b0          	mov    %rax,-0x50(%rbp)
  40a59e:	48 8b 45 b8          	mov    -0x48(%rbp),%rax
  40a5a2:	48 8b 4d c8          	mov    -0x38(%rbp),%rcx
  40a5a6:	48 8d 0c 49          	lea    (%rcx,%rcx,2),%rcx
  40a5aa:	48 8d 34 c8          	lea    (%rax,%rcx,8),%rsi
  40a5ae:	48 8b 7d e8          	mov    -0x18(%rbp),%rdi
  40a5b2:	48 89 75 90          	mov    %rsi,-0x70(%rbp)
  40a5b6:	e8 85 02 00 00       	callq  40a840 <_ZSt7forwardIRKSt6vectorINSt7__cxx1112basic_stringIcSt11char_traitsIcESaIcEEESaIS6_EEEOT_RNSt16remove_referenceISB_E4typeE>
  40a5bb:	48 8b 7d 98          	mov    -0x68(%rbp),%rdi
  40a5bf:	48 8b 75 90          	mov    -0x70(%rbp),%rsi
  40a5c3:	48 89 c2             	mov    %rax,%rdx
  40a5c6:	e8 05 ff ff ff       	callq  40a4d0 <_ZNSt16allocator_traitsISaISt6vectorINSt7__cxx1112basic_stringIcSt11char_traitsIcESaIcEEESaIS6_EEEE9constructIS8_JRKS8_EEEvRS9_PT_DpOT0_>
  40a5cb:	e9 00 00 00 00       	jmpq   40a5d0 <_ZNSt6vectorIS_INSt7__cxx1112basic_stringIcSt11char_traitsIcESaIcEEESaIS5_EESaIS7_EE17_M_realloc_insertIJRKS7_EEEvN9__gnu_cxx17__normal_iteratorIPS7_S9_EEDpOT_+0xb0>
  40a5d0:	48 c7 45 b0 00 00 00 	movq   $0x0,-0x50(%rbp)
  40a5d7:	00 
  40a5d8:	48 8b 7d d8          	mov    -0x28(%rbp),%rdi
  40a5dc:	48 8d 45 f8          	lea    -0x8(%rbp),%rax
  40a5e0:	48 89 7d 88          	mov    %rdi,-0x78(%rbp)
  40a5e4:	48 89 c7             	mov    %rax,%rdi
  40a5e7:	e8 64 09 00 00       	callq  40af50 <_ZNK9__gnu_cxx17__normal_iteratorIPSt6vectorINSt7__cxx1112basic_stringIcSt11char_traitsIcESaIcEEESaIS7_EES1_IS9_SaIS9_EEE4baseEv>
  40a5ec:	48 8b 30             	mov    (%rax),%rsi
  40a5ef:	48 8b 55 b8          	mov    -0x48(%rbp),%rdx
  40a5f3:	48 8b 45 98          	mov    -0x68(%rbp),%rax
  40a5f7:	48 89 c7             	mov    %rax,%rdi
  40a5fa:	48 89 75 80          	mov    %rsi,-0x80(%rbp)
  40a5fe:	48 89 95 78 ff ff ff 	mov    %rdx,-0x88(%rbp)
  40a605:	e8 c6 9a ff ff       	callq  4040d0 <_ZNSt12_Vector_baseISt6vectorINSt7__cxx1112basic_stringIcSt11char_traitsIcESaIcEEESaIS6_EESaIS8_EE19_M_get_Tp_allocatorEv>
  40a60a:	48 8b 7d 88          	mov    -0x78(%rbp),%rdi
  40a60e:	48 8b 75 80          	mov    -0x80(%rbp),%rsi
  40a612:	48 8b 95 78 ff ff ff 	mov    -0x88(%rbp),%rdx
  40a619:	48 89 c1             	mov    %rax,%rcx
  40a61c:	e8 ef 08 00 00       	callq  40af10 <_ZNSt6vectorIS_INSt7__cxx1112basic_stringIcSt11char_traitsIcESaIcEEESaIS5_EESaIS7_EE11_S_relocateEPS7_SA_SA_RS8_>
  40a621:	48 89 45 b0          	mov    %rax,-0x50(%rbp)
  40a625:	48 8b 45 b0          	mov    -0x50(%rbp),%rax
  40a629:	48 05 18 00 00 00    	add    $0x18,%rax
  40a62f:	48 89 45 b0          	mov    %rax,-0x50(%rbp)
  40a633:	48 8d 7d f8          	lea    -0x8(%rbp),%rdi
  40a637:	e8 14 09 00 00       	callq  40af50 <_ZNK9__gnu_cxx17__normal_iteratorIPSt6vectorINSt7__cxx1112basic_stringIcSt11char_traitsIcESaIcEEESaIS7_EES1_IS9_SaIS9_EEE4baseEv>
  40a63c:	48 8b 38             	mov    (%rax),%rdi
  40a63f:	48 8b 75 d0          	mov    -0x30(%rbp),%rsi
  40a643:	48 8b 55 b0          	mov    -0x50(%rbp),%rdx
  40a647:	48 8b 45 98          	mov    -0x68(%rbp),%rax
  40a64b:	48 89 bd 70 ff ff ff 	mov    %rdi,-0x90(%rbp)
  40a652:	48 89 c7             	mov    %rax,%rdi
  40a655:	48 89 b5 68 ff ff ff 	mov    %rsi,-0x98(%rbp)
  40a65c:	48 89 95 60 ff ff ff 	mov    %rdx,-0xa0(%rbp)
  40a663:	e8 68 9a ff ff       	callq  4040d0 <_ZNSt12_Vector_baseISt6vectorINSt7__cxx1112basic_stringIcSt11char_traitsIcESaIcEEESaIS6_EESaIS8_EE19_M_get_Tp_allocatorEv>
  40a668:	48 8b bd 70 ff ff ff 	mov    -0x90(%rbp),%rdi
  40a66f:	48 8b b5 68 ff ff ff 	mov    -0x98(%rbp),%rsi
  40a676:	48 8b 95 60 ff ff ff 	mov    -0xa0(%rbp),%rdx
  40a67d:	48 89 c1             	mov    %rax,%rcx
  40a680:	e8 8b 08 00 00       	callq  40af10 <_ZNSt6vectorIS_INSt7__cxx1112basic_stringIcSt11char_traitsIcESaIcEEESaIS5_EESaIS7_EE11_S_relocateEPS7_SA_SA_RS8_>
  40a685:	48 89 45 b0          	mov    %rax,-0x50(%rbp)
  40a689:	e9 b6 00 00 00       	jmpq   40a744 <_ZNSt6vectorIS_INSt7__cxx1112basic_stringIcSt11char_traitsIcESaIcEEESaIS5_EESaIS7_EE17_M_realloc_insertIJRKS7_EEEvN9__gnu_cxx17__normal_iteratorIPS7_S9_EEDpOT_+0x224>
  40a68e:	48 89 45 a8          	mov    %rax,-0x58(%rbp)
  40a692:	89 55 a4             	mov    %edx,-0x5c(%rbp)
  40a695:	48 8b 7d a8          	mov    -0x58(%rbp),%rdi
  40a699:	e8 02 8a ff ff       	callq  4030a0 <__cxa_begin_catch@plt>
  40a69e:	48 83 7d b0 00       	cmpq   $0x0,-0x50(%rbp)
  40a6a3:	0f 85 23 00 00 00    	jne    40a6cc <_ZNSt6vectorIS_INSt7__cxx1112basic_stringIcSt11char_traitsIcESaIcEEESaIS5_EESaIS7_EE17_M_realloc_insertIJRKS7_EEEvN9__gnu_cxx17__normal_iteratorIPS7_S9_EEDpOT_+0x1ac>
  40a6a9:	48 8b 45 98          	mov    -0x68(%rbp),%rax
  40a6ad:	48 8b 4d b8          	mov    -0x48(%rbp),%rcx
  40a6b1:	48 69 55 c8 18 00 00 	imul   $0x18,-0x38(%rbp),%rdx
  40a6b8:	00 
  40a6b9:	48 01 d1             	add    %rdx,%rcx
  40a6bc:	48 89 c7             	mov    %rax,%rdi
  40a6bf:	48 89 ce             	mov    %rcx,%rsi
  40a6c2:	e8 99 08 00 00       	callq  40af60 <_ZNSt16allocator_traitsISaISt6vectorINSt7__cxx1112basic_stringIcSt11char_traitsIcESaIcEEESaIS6_EEEE7destroyIS8_EEvRS9_PT_>
  40a6c7:	e9 53 00 00 00       	jmpq   40a71f <_ZNSt6vectorIS_INSt7__cxx1112basic_stringIcSt11char_traitsIcESaIcEEESaIS5_EESaIS7_EE17_M_realloc_insertIJRKS7_EEEvN9__gnu_cxx17__normal_iteratorIPS7_S9_EEDpOT_+0x1ff>
  40a6cc:	48 8b 7d b8          	mov    -0x48(%rbp),%rdi
  40a6d0:	48 8b 75 b0          	mov    -0x50(%rbp),%rsi
  40a6d4:	48 8b 45 98          	mov    -0x68(%rbp),%rax
  40a6d8:	48 89 bd 58 ff ff ff 	mov    %rdi,-0xa8(%rbp)
  40a6df:	48 89 c7             	mov    %rax,%rdi
  40a6e2:	48 89 b5 50 ff ff ff 	mov    %rsi,-0xb0(%rbp)
  40a6e9:	e8 e2 99 ff ff       	callq  4040d0 <_ZNSt12_Vector_baseISt6vectorINSt7__cxx1112basic_stringIcSt11char_traitsIcESaIcEEESaIS6_EESaIS8_EE19_M_get_Tp_allocatorEv>
  40a6ee:	48 8b bd 58 ff ff ff 	mov    -0xa8(%rbp),%rdi
  40a6f5:	48 8b b5 50 ff ff ff 	mov    -0xb0(%rbp),%rsi
  40a6fc:	48 89 c2             	mov    %rax,%rdx
  40a6ff:	e8 9c 99 ff ff       	callq  4040a0 <_ZSt8_DestroyIPSt6vectorINSt7__cxx1112basic_stringIcSt11char_traitsIcESaIcEEESaIS6_EES8_EvT_SA_RSaIT0_E>
  40a704:	e9 00 00 00 00       	jmpq   40a709 <_ZNSt6vectorIS_INSt7__cxx1112basic_stringIcSt11char_traitsIcESaIcEEESaIS5_EESaIS7_EE17_M_realloc_insertIJRKS7_EEEvN9__gnu_cxx17__normal_iteratorIPS7_S9_EEDpOT_+0x1e9>
  40a709:	e9 11 00 00 00       	jmpq   40a71f <_ZNSt6vectorIS_INSt7__cxx1112basic_stringIcSt11char_traitsIcESaIcEEESaIS5_EESaIS7_EE17_M_realloc_insertIJRKS7_EEEvN9__gnu_cxx17__normal_iteratorIPS7_S9_EEDpOT_+0x1ff>
  40a70e:	48 89 45 a8          	mov    %rax,-0x58(%rbp)
  40a712:	89 55 a4             	mov    %edx,-0x5c(%rbp)
  40a715:	e8 96 8c ff ff       	callq  4033b0 <__cxa_end_catch@plt>
  40a71a:	e9 20 00 00 00       	jmpq   40a73f <_ZNSt6vectorIS_INSt7__cxx1112basic_stringIcSt11char_traitsIcESaIcEEESaIS5_EESaIS7_EE17_M_realloc_insertIJRKS7_EEEvN9__gnu_cxx17__normal_iteratorIPS7_S9_EEDpOT_+0x21f>
  40a71f:	48 8b 75 b8          	mov    -0x48(%rbp),%rsi
  40a723:	48 8b 55 e0          	mov    -0x20(%rbp),%rdx
  40a727:	48 8b 7d 98          	mov    -0x68(%rbp),%rdi
  40a72b:	e8 d0 9a ff ff       	callq  404200 <_ZNSt12_Vector_baseISt6vectorINSt7__cxx1112basic_stringIcSt11char_traitsIcESaIcEEESaIS6_EESaIS8_EE13_M_deallocateEPS8_m>
  40a730:	e9 00 00 00 00       	jmpq   40a735 <_ZNSt6vectorIS_INSt7__cxx1112basic_stringIcSt11char_traitsIcESaIcEEESaIS5_EESaIS7_EE17_M_realloc_insertIJRKS7_EEEvN9__gnu_cxx17__normal_iteratorIPS7_S9_EEDpOT_+0x215>
  40a735:	e8 26 8c ff ff       	callq  403360 <__cxa_rethrow@plt>
  40a73a:	e9 85 00 00 00       	jmpq   40a7c4 <_ZNSt6vectorIS_INSt7__cxx1112basic_stringIcSt11char_traitsIcESaIcEEESaIS5_EESaIS7_EE17_M_realloc_insertIJRKS7_EEEvN9__gnu_cxx17__normal_iteratorIPS7_S9_EEDpOT_+0x2a4>
  40a73f:	e9 69 00 00 00       	jmpq   40a7ad <_ZNSt6vectorIS_INSt7__cxx1112basic_stringIcSt11char_traitsIcESaIcEEESaIS5_EESaIS7_EE17_M_realloc_insertIJRKS7_EEEvN9__gnu_cxx17__normal_iteratorIPS7_S9_EEDpOT_+0x28d>
  40a744:	48 8b 45 98          	mov    -0x68(%rbp),%rax
  40a748:	48 8b 75 d8          	mov    -0x28(%rbp),%rsi
  40a74c:	48 8b 4d 98          	mov    -0x68(%rbp),%rcx
  40a750:	48 8b 51 10          	mov    0x10(%rcx),%rdx
  40a754:	48 8b 7d d8          	mov    -0x28(%rbp),%rdi
  40a758:	48 29 fa             	sub    %rdi,%rdx
  40a75b:	48 89 85 48 ff ff ff 	mov    %rax,-0xb8(%rbp)
  40a762:	48 89 d0             	mov    %rdx,%rax
  40a765:	48 99                	cqto   
  40a767:	bf 18 00 00 00       	mov    $0x18,%edi
  40a76c:	48 f7 ff             	idiv   %rdi
  40a76f:	48 8b bd 48 ff ff ff 	mov    -0xb8(%rbp),%rdi
  40a776:	48 89 c2             	mov    %rax,%rdx
  40a779:	e8 82 9a ff ff       	callq  404200 <_ZNSt12_Vector_baseISt6vectorINSt7__cxx1112basic_stringIcSt11char_traitsIcESaIcEEESaIS6_EESaIS8_EE13_M_deallocateEPS8_m>
  40a77e:	48 8b 45 b8          	mov    -0x48(%rbp),%rax
  40a782:	48 8b 4d 98          	mov    -0x68(%rbp),%rcx
  40a786:	48 89 01             	mov    %rax,(%rcx)
  40a789:	48 8b 45 b0          	mov    -0x50(%rbp),%rax
  40a78d:	48 89 41 08          	mov    %rax,0x8(%rcx)
  40a791:	48 8b 45 b8          	mov    -0x48(%rbp),%rax
  40a795:	48 69 55 e0 18 00 00 	imul   $0x18,-0x20(%rbp),%rdx
  40a79c:	00 
  40a79d:	48 01 d0             	add    %rdx,%rax
  40a7a0:	48 89 41 10          	mov    %rax,0x10(%rcx)
  40a7a4:	48 81 c4 c0 00 00 00 	add    $0xc0,%rsp
  40a7ab:	5d                   	pop    %rbp
  40a7ac:	c3                   	retq   
  40a7ad:	48 8b 7d a8          	mov    -0x58(%rbp),%rdi
  40a7b1:	e8 2a 8c ff ff       	callq  4033e0 <_Unwind_Resume@plt>
  40a7b6:	48 89 c7             	mov    %rax,%rdi
  40a7b9:	89 95 44 ff ff ff    	mov    %edx,-0xbc(%rbp)
  40a7bf:	e8 8c 98 ff ff       	callq  404050 <__clang_call_terminate>
  40a7c4:	66 2e 0f 1f 84 00 00 	nopw   %cs:0x0(%rax,%rax,1)
  40a7cb:	00 00 00 
  40a7ce:	66 90                	xchg   %ax,%ax

000000000040a7d0 <_ZNSt6vectorIS_INSt7__cxx1112basic_stringIcSt11char_traitsIcESaIcEEESaIS5_EESaIS7_EE3endEv>:
  40a7d0:	55                   	push   %rbp
  40a7d1:	48 89 e5             	mov    %rsp,%rbp
  40a7d4:	48 83 ec 10          	sub    $0x10,%rsp
  40a7d8:	48 89 7d f0          	mov    %rdi,-0x10(%rbp)
  40a7dc:	48 8b 45 f0          	mov    -0x10(%rbp),%rax
  40a7e0:	48 05 08 00 00 00    	add    $0x8,%rax
  40a7e6:	48 8d 7d f8          	lea    -0x8(%rbp),%rdi
  40a7ea:	48 89 c6             	mov    %rax,%rsi
  40a7ed:	e8 ae 08 00 00       	callq  40b0a0 <_ZN9__gnu_cxx17__normal_iteratorIPSt6vectorINSt7__cxx1112basic_stringIcSt11char_traitsIcESaIcEEESaIS7_EES1_IS9_SaIS9_EEEC2ERKSA_>
  40a7f2:	48 8b 45 f8          	mov    -0x8(%rbp),%rax
  40a7f6:	48 83 c4 10          	add    $0x10,%rsp
  40a7fa:	5d                   	pop    %rbp
  40a7fb:	c3                   	retq   
  40a7fc:	0f 1f 40 00          	nopl   0x0(%rax)

000000000040a800 <_ZN9__gnu_cxx13new_allocatorISt6vectorINSt7__cxx1112basic_stringIcSt11char_traitsIcESaIcEEESaIS7_EEE9constructIS9_JRKS9_EEEvPT_DpOT0_>:
  40a800:	55                   	push   %rbp
  40a801:	48 89 e5             	mov    %rsp,%rbp
  40a804:	48 83 ec 20          	sub    $0x20,%rsp
  40a808:	48 89 7d f8          	mov    %rdi,-0x8(%rbp)
  40a80c:	48 89 75 f0          	mov    %rsi,-0x10(%rbp)
  40a810:	48 89 55 e8          	mov    %rdx,-0x18(%rbp)
  40a814:	48 8b 45 f0          	mov    -0x10(%rbp),%rax
  40a818:	48 8b 7d e8          	mov    -0x18(%rbp),%rdi
  40a81c:	48 89 45 e0          	mov    %rax,-0x20(%rbp)
  40a820:	e8 1b 00 00 00       	callq  40a840 <_ZSt7forwardIRKSt6vectorINSt7__cxx1112basic_stringIcSt11char_traitsIcESaIcEEESaIS6_EEEOT_RNSt16remove_referenceISB_E4typeE>
  40a825:	48 8b 7d e0          	mov    -0x20(%rbp),%rdi
  40a829:	48 89 c6             	mov    %rax,%rsi
  40a82c:	e8 1f 00 00 00       	callq  40a850 <_ZNSt6vectorINSt7__cxx1112basic_stringIcSt11char_traitsIcESaIcEEESaIS5_EEC2ERKS7_>
  40a831:	48 83 c4 20          	add    $0x20,%rsp
  40a835:	5d                   	pop    %rbp
  40a836:	c3                   	retq   
  40a837:	66 0f 1f 84 00 00 00 	nopw   0x0(%rax,%rax,1)
  40a83e:	00 00 

000000000040a840 <_ZSt7forwardIRKSt6vectorINSt7__cxx1112basic_stringIcSt11char_traitsIcESaIcEEESaIS6_EEEOT_RNSt16remove_referenceISB_E4typeE>:
  40a840:	55                   	push   %rbp
  40a841:	48 89 e5             	mov    %rsp,%rbp
  40a844:	48 89 7d f8          	mov    %rdi,-0x8(%rbp)
  40a848:	48 8b 45 f8          	mov    -0x8(%rbp),%rax
  40a84c:	5d                   	pop    %rbp
  40a84d:	c3                   	retq   
  40a84e:	66 90                	xchg   %ax,%ax

000000000040a850 <_ZNSt6vectorINSt7__cxx1112basic_stringIcSt11char_traitsIcESaIcEEESaIS5_EEC2ERKS7_>:
  40a850:	55                   	push   %rbp
  40a851:	48 89 e5             	mov    %rsp,%rbp
  40a854:	48 83 ec 60          	sub    $0x60,%rsp
  40a858:	48 89 7d f8          	mov    %rdi,-0x8(%rbp)
  40a85c:	48 89 75 f0          	mov    %rsi,-0x10(%rbp)
  40a860:	48 8b 45 f8          	mov    -0x8(%rbp),%rax
  40a864:	48 8b 7d f0          	mov    -0x10(%rbp),%rdi
  40a868:	48 89 45 c0          	mov    %rax,-0x40(%rbp)
  40a86c:	e8 9f f0 ff ff       	callq  409910 <_ZNKSt6vectorINSt7__cxx1112basic_stringIcSt11char_traitsIcESaIcEEESaIS5_EE4sizeEv>
  40a871:	48 8b 7d f0          	mov    -0x10(%rbp),%rdi
  40a875:	48 89 45 b8          	mov    %rax,-0x48(%rbp)
  40a879:	e8 52 f1 ff ff       	callq  4099d0 <_ZNKSt12_Vector_baseINSt7__cxx1112basic_stringIcSt11char_traitsIcESaIcEEESaIS5_EE19_M_get_Tp_allocatorEv>
  40a87e:	48 8d 4d e8          	lea    -0x18(%rbp),%rcx
  40a882:	48 89 cf             	mov    %rcx,%rdi
  40a885:	48 89 c6             	mov    %rax,%rsi
  40a888:	48 89 4d b0          	mov    %rcx,-0x50(%rbp)
  40a88c:	e8 af 00 00 00       	callq  40a940 <_ZN9__gnu_cxx14__alloc_traitsISaINSt7__cxx1112basic_stringIcSt11char_traitsIcESaIcEEEES6_E17_S_select_on_copyERKS7_>
  40a891:	48 8b 7d c0          	mov    -0x40(%rbp),%rdi
  40a895:	48 8b 75 b8          	mov    -0x48(%rbp),%rsi
  40a899:	48 8b 55 b0          	mov    -0x50(%rbp),%rdx
  40a89d:	e8 ce 00 00 00       	callq  40a970 <_ZNSt12_Vector_baseINSt7__cxx1112basic_stringIcSt11char_traitsIcESaIcEEESaIS5_EEC2EmRKS6_>
  40a8a2:	e9 00 00 00 00       	jmpq   40a8a7 <_ZNSt6vectorINSt7__cxx1112basic_stringIcSt11char_traitsIcESaIcEEESaIS5_EEC2ERKS7_+0x57>
  40a8a7:	48 8d 7d e8          	lea    -0x18(%rbp),%rdi
  40a8ab:	e8 20 ba ff ff       	callq  4062d0 <_ZNSaINSt7__cxx1112basic_stringIcSt11char_traitsIcESaIcEEEED2Ev>
  40a8b0:	48 8b 7d f0          	mov    -0x10(%rbp),%rdi
  40a8b4:	e8 57 01 00 00       	callq  40aa10 <_ZNKSt6vectorINSt7__cxx1112basic_stringIcSt11char_traitsIcESaIcEEESaIS5_EE5beginEv>
  40a8b9:	48 89 45 d0          	mov    %rax,-0x30(%rbp)
  40a8bd:	48 8b 7d f0          	mov    -0x10(%rbp),%rdi
  40a8c1:	e8 7a 01 00 00       	callq  40aa40 <_ZNKSt6vectorINSt7__cxx1112basic_stringIcSt11char_traitsIcESaIcEEESaIS5_EE3endEv>
  40a8c6:	48 89 45 c8          	mov    %rax,-0x38(%rbp)
  40a8ca:	48 8b 45 c0          	mov    -0x40(%rbp),%rax
  40a8ce:	48 8b 10             	mov    (%rax),%rdx
  40a8d1:	48 89 c7             	mov    %rax,%rdi
  40a8d4:	48 89 55 a8          	mov    %rdx,-0x58(%rbp)
  40a8d8:	e8 53 9a ff ff       	callq  404330 <_ZNSt12_Vector_baseINSt7__cxx1112basic_stringIcSt11char_traitsIcESaIcEEESaIS5_EE19_M_get_Tp_allocatorEv>
  40a8dd:	48 8b 7d d0          	mov    -0x30(%rbp),%rdi
  40a8e1:	48 8b 75 c8          	mov    -0x38(%rbp),%rsi
  40a8e5:	48 8b 55 a8          	mov    -0x58(%rbp),%rdx
  40a8e9:	48 89 c1             	mov    %rax,%rcx
  40a8ec:	e8 df 00 00 00       	callq  40a9d0 <_ZSt22__uninitialized_copy_aIN9__gnu_cxx17__normal_iteratorIPKNSt7__cxx1112basic_stringIcSt11char_traitsIcESaIcEEESt6vectorIS7_SaIS7_EEEEPS7_S7_ET0_T_SG_SF_RSaIT1_E>
  40a8f1:	48 89 45 a0          	mov    %rax,-0x60(%rbp)
  40a8f5:	e9 00 00 00 00       	jmpq   40a8fa <_ZNSt6vectorINSt7__cxx1112basic_stringIcSt11char_traitsIcESaIcEEESaIS5_EEC2ERKS7_+0xaa>
  40a8fa:	48 8b 45 c0          	mov    -0x40(%rbp),%rax
  40a8fe:	48 8b 4d a0          	mov    -0x60(%rbp),%rcx
  40a902:	48 89 48 08          	mov    %rcx,0x8(%rax)
  40a906:	48 83 c4 60          	add    $0x60,%rsp
  40a90a:	5d                   	pop    %rbp
  40a90b:	c3                   	retq   
  40a90c:	48 89 45 e0          	mov    %rax,-0x20(%rbp)
  40a910:	89 55 dc             	mov    %edx,-0x24(%rbp)
  40a913:	48 8d 7d e8          	lea    -0x18(%rbp),%rdi
  40a917:	e8 b4 b9 ff ff       	callq  4062d0 <_ZNSaINSt7__cxx1112basic_stringIcSt11char_traitsIcESaIcEEEED2Ev>
  40a91c:	e9 13 00 00 00       	jmpq   40a934 <_ZNSt6vectorINSt7__cxx1112basic_stringIcSt11char_traitsIcESaIcEEESaIS5_EEC2ERKS7_+0xe4>
  40a921:	48 89 45 e0          	mov    %rax,-0x20(%rbp)
  40a925:	89 55 dc             	mov    %edx,-0x24(%rbp)
  40a928:	48 8b 45 c0          	mov    -0x40(%rbp),%rax
  40a92c:	48 89 c7             	mov    %rax,%rdi
  40a92f:	e8 0c 9a ff ff       	callq  404340 <_ZNSt12_Vector_baseINSt7__cxx1112basic_stringIcSt11char_traitsIcESaIcEEESaIS5_EED2Ev>
  40a934:	48 8b 7d e0          	mov    -0x20(%rbp),%rdi
  40a938:	e8 a3 8a ff ff       	callq  4033e0 <_Unwind_Resume@plt>
  40a93d:	0f 1f 00             	nopl   (%rax)

000000000040a940 <_ZN9__gnu_cxx14__alloc_traitsISaINSt7__cxx1112basic_stringIcSt11char_traitsIcESaIcEEEES6_E17_S_select_on_copyERKS7_>:
  40a940:	55                   	push   %rbp
  40a941:	48 89 e5             	mov    %rsp,%rbp
  40a944:	48 83 ec 20          	sub    $0x20,%rsp
  40a948:	48 89 f8             	mov    %rdi,%rax
  40a94b:	48 89 f9             	mov    %rdi,%rcx
  40a94e:	48 89 4d f8          	mov    %rcx,-0x8(%rbp)
  40a952:	48 89 75 f0          	mov    %rsi,-0x10(%rbp)
  40a956:	48 8b 75 f0          	mov    -0x10(%rbp),%rsi
  40a95a:	48 89 45 e8          	mov    %rax,-0x18(%rbp)
  40a95e:	e8 0d 01 00 00       	callq  40aa70 <_ZNSt16allocator_traitsISaINSt7__cxx1112basic_stringIcSt11char_traitsIcESaIcEEEEE37select_on_container_copy_constructionERKS6_>
  40a963:	48 8b 45 e8          	mov    -0x18(%rbp),%rax
  40a967:	48 83 c4 20          	add    $0x20,%rsp
  40a96b:	5d                   	pop    %rbp
  40a96c:	c3                   	retq   
  40a96d:	0f 1f 00             	nopl   (%rax)

000000000040a970 <_ZNSt12_Vector_baseINSt7__cxx1112basic_stringIcSt11char_traitsIcESaIcEEESaIS5_EEC2EmRKS6_>:
  40a970:	55                   	push   %rbp
  40a971:	48 89 e5             	mov    %rsp,%rbp
  40a974:	48 83 ec 30          	sub    $0x30,%rsp
  40a978:	48 89 7d f8          	mov    %rdi,-0x8(%rbp)
  40a97c:	48 89 75 f0          	mov    %rsi,-0x10(%rbp)
  40a980:	48 89 55 e8          	mov    %rdx,-0x18(%rbp)
  40a984:	48 8b 45 f8          	mov    -0x8(%rbp),%rax
  40a988:	48 8b 75 e8          	mov    -0x18(%rbp),%rsi
  40a98c:	48 89 c7             	mov    %rax,%rdi
  40a98f:	48 89 45 d0          	mov    %rax,-0x30(%rbp)
  40a993:	e8 98 e2 ff ff       	callq  408c30 <_ZNSt12_Vector_baseINSt7__cxx1112basic_stringIcSt11char_traitsIcESaIcEEESaIS5_EE12_Vector_implC2ERKS6_>
  40a998:	48 8b 75 f0          	mov    -0x10(%rbp),%rsi
  40a99c:	48 8b 7d d0          	mov    -0x30(%rbp),%rdi
  40a9a0:	e8 2b 01 00 00       	callq  40aad0 <_ZNSt12_Vector_baseINSt7__cxx1112basic_stringIcSt11char_traitsIcESaIcEEESaIS5_EE17_M_create_storageEm>
  40a9a5:	e9 00 00 00 00       	jmpq   40a9aa <_ZNSt12_Vector_baseINSt7__cxx1112basic_stringIcSt11char_traitsIcESaIcEEESaIS5_EEC2EmRKS6_+0x3a>
  40a9aa:	48 83 c4 30          	add    $0x30,%rsp
  40a9ae:	5d                   	pop    %rbp
  40a9af:	c3                   	retq   
  40a9b0:	48 89 45 e0          	mov    %rax,-0x20(%rbp)
  40a9b4:	89 55 dc             	mov    %edx,-0x24(%rbp)
  40a9b7:	48 8b 7d d0          	mov    -0x30(%rbp),%rdi
  40a9bb:	e8 e0 9a ff ff       	callq  4044a0 <_ZNSt12_Vector_baseINSt7__cxx1112basic_stringIcSt11char_traitsIcESaIcEEESaIS5_EE12_Vector_implD2Ev>
  40a9c0:	48 8b 7d e0          	mov    -0x20(%rbp),%rdi
  40a9c4:	e8 17 8a ff ff       	callq  4033e0 <_Unwind_Resume@plt>
  40a9c9:	0f 1f 80 00 00 00 00 	nopl   0x0(%rax)

000000000040a9d0 <_ZSt22__uninitialized_copy_aIN9__gnu_cxx17__normal_iteratorIPKNSt7__cxx1112basic_stringIcSt11char_traitsIcESaIcEEESt6vectorIS7_SaIS7_EEEEPS7_S7_ET0_T_SG_SF_RSaIT1_E>:
  40a9d0:	55                   	push   %rbp
  40a9d1:	48 89 e5             	mov    %rsp,%rbp
  40a9d4:	48 83 ec 30          	sub    $0x30,%rsp
  40a9d8:	48 89 7d f8          	mov    %rdi,-0x8(%rbp)
  40a9dc:	48 89 75 f0          	mov    %rsi,-0x10(%rbp)
  40a9e0:	48 89 55 e8          	mov    %rdx,-0x18(%rbp)
  40a9e4:	48 89 4d e0          	mov    %rcx,-0x20(%rbp)
  40a9e8:	48 8b 45 f8          	mov    -0x8(%rbp),%rax
  40a9ec:	48 89 45 d8          	mov    %rax,-0x28(%rbp)
  40a9f0:	48 8b 45 f0          	mov    -0x10(%rbp),%rax
  40a9f4:	48 89 45 d0          	mov    %rax,-0x30(%rbp)
  40a9f8:	48 8b 55 e8          	mov    -0x18(%rbp),%rdx
  40a9fc:	48 8b 7d d8          	mov    -0x28(%rbp),%rdi
  40aa00:	48 8b 75 d0          	mov    -0x30(%rbp),%rsi
  40aa04:	e8 17 01 00 00       	callq  40ab20 <_ZSt18uninitialized_copyIN9__gnu_cxx17__normal_iteratorIPKNSt7__cxx1112basic_stringIcSt11char_traitsIcESaIcEEESt6vectorIS7_SaIS7_EEEEPS7_ET0_T_SG_SF_>
  40aa09:	48 83 c4 30          	add    $0x30,%rsp
  40aa0d:	5d                   	pop    %rbp
  40aa0e:	c3                   	retq   
  40aa0f:	90                   	nop

000000000040aa10 <_ZNKSt6vectorINSt7__cxx1112basic_stringIcSt11char_traitsIcESaIcEEESaIS5_EE5beginEv>:
  40aa10:	55                   	push   %rbp
  40aa11:	48 89 e5             	mov    %rsp,%rbp
  40aa14:	48 83 ec 10          	sub    $0x10,%rsp
  40aa18:	48 89 7d f0          	mov    %rdi,-0x10(%rbp)
  40aa1c:	48 8b 45 f0          	mov    -0x10(%rbp),%rax
  40aa20:	48 8d 7d f8          	lea    -0x8(%rbp),%rdi
  40aa24:	48 89 c6             	mov    %rax,%rsi
  40aa27:	e8 04 03 00 00       	callq  40ad30 <_ZN9__gnu_cxx17__normal_iteratorIPKNSt7__cxx1112basic_stringIcSt11char_traitsIcESaIcEEESt6vectorIS6_SaIS6_EEEC2ERKS8_>
  40aa2c:	48 8b 45 f8          	mov    -0x8(%rbp),%rax
  40aa30:	48 83 c4 10          	add    $0x10,%rsp
  40aa34:	5d                   	pop    %rbp
  40aa35:	c3                   	retq   
  40aa36:	66 2e 0f 1f 84 00 00 	nopw   %cs:0x0(%rax,%rax,1)
  40aa3d:	00 00 00 

000000000040aa40 <_ZNKSt6vectorINSt7__cxx1112basic_stringIcSt11char_traitsIcESaIcEEESaIS5_EE3endEv>:
  40aa40:	55                   	push   %rbp
  40aa41:	48 89 e5             	mov    %rsp,%rbp
  40aa44:	48 83 ec 10          	sub    $0x10,%rsp
  40aa48:	48 89 7d f0          	mov    %rdi,-0x10(%rbp)
  40aa4c:	48 8b 45 f0          	mov    -0x10(%rbp),%rax
  40aa50:	48 05 08 00 00 00    	add    $0x8,%rax
  40aa56:	48 8d 7d f8          	lea    -0x8(%rbp),%rdi
  40aa5a:	48 89 c6             	mov    %rax,%rsi
  40aa5d:	e8 ce 02 00 00       	callq  40ad30 <_ZN9__gnu_cxx17__normal_iteratorIPKNSt7__cxx1112basic_stringIcSt11char_traitsIcESaIcEEESt6vectorIS6_SaIS6_EEEC2ERKS8_>
  40aa62:	48 8b 45 f8          	mov    -0x8(%rbp),%rax
  40aa66:	48 83 c4 10          	add    $0x10,%rsp
  40aa6a:	5d                   	pop    %rbp
  40aa6b:	c3                   	retq   
  40aa6c:	0f 1f 40 00          	nopl   0x0(%rax)

000000000040aa70 <_ZNSt16allocator_traitsISaINSt7__cxx1112basic_stringIcSt11char_traitsIcESaIcEEEEE37select_on_container_copy_constructionERKS6_>:
  40aa70:	55                   	push   %rbp
  40aa71:	48 89 e5             	mov    %rsp,%rbp
  40aa74:	48 83 ec 20          	sub    $0x20,%rsp
  40aa78:	48 89 f8             	mov    %rdi,%rax
  40aa7b:	48 89 f9             	mov    %rdi,%rcx
  40aa7e:	48 89 4d f8          	mov    %rcx,-0x8(%rbp)
  40aa82:	48 89 75 f0          	mov    %rsi,-0x10(%rbp)
  40aa86:	48 8b 75 f0          	mov    -0x10(%rbp),%rsi
  40aa8a:	48 89 45 e8          	mov    %rax,-0x18(%rbp)
  40aa8e:	e8 0d 00 00 00       	callq  40aaa0 <_ZNSaINSt7__cxx1112basic_stringIcSt11char_traitsIcESaIcEEEEC2ERKS5_>
  40aa93:	48 8b 45 e8          	mov    -0x18(%rbp),%rax
  40aa97:	48 83 c4 20          	add    $0x20,%rsp
  40aa9b:	5d                   	pop    %rbp
  40aa9c:	c3                   	retq   
  40aa9d:	0f 1f 00             	nopl   (%rax)

000000000040aaa0 <_ZNSaINSt7__cxx1112basic_stringIcSt11char_traitsIcESaIcEEEEC2ERKS5_>:
  40aaa0:	55                   	push   %rbp
  40aaa1:	48 89 e5             	mov    %rsp,%rbp
  40aaa4:	48 83 ec 10          	sub    $0x10,%rsp
  40aaa8:	48 89 7d f8          	mov    %rdi,-0x8(%rbp)
  40aaac:	48 89 75 f0          	mov    %rsi,-0x10(%rbp)
  40aab0:	48 8b 45 f8          	mov    -0x8(%rbp),%rax
  40aab4:	48 8b 4d f0          	mov    -0x10(%rbp),%rcx
  40aab8:	48 89 c7             	mov    %rax,%rdi
  40aabb:	48 89 ce             	mov    %rcx,%rsi
  40aabe:	e8 ad e1 ff ff       	callq  408c70 <_ZN9__gnu_cxx13new_allocatorINSt7__cxx1112basic_stringIcSt11char_traitsIcESaIcEEEEC2ERKS7_>
  40aac3:	48 83 c4 10          	add    $0x10,%rsp
  40aac7:	5d                   	pop    %rbp
  40aac8:	c3                   	retq   
  40aac9:	0f 1f 80 00 00 00 00 	nopl   0x0(%rax)

000000000040aad0 <_ZNSt12_Vector_baseINSt7__cxx1112basic_stringIcSt11char_traitsIcESaIcEEESaIS5_EE17_M_create_storageEm>:
  40aad0:	55                   	push   %rbp
  40aad1:	48 89 e5             	mov    %rsp,%rbp
  40aad4:	48 83 ec 20          	sub    $0x20,%rsp
  40aad8:	48 89 7d f8          	mov    %rdi,-0x8(%rbp)
  40aadc:	48 89 75 f0          	mov    %rsi,-0x10(%rbp)
  40aae0:	48 8b 45 f8          	mov    -0x8(%rbp),%rax
  40aae4:	48 8b 75 f0          	mov    -0x10(%rbp),%rsi
  40aae8:	48 89 c7             	mov    %rax,%rdi
  40aaeb:	48 89 45 e8          	mov    %rax,-0x18(%rbp)
  40aaef:	e8 3c ed ff ff       	callq  409830 <_ZNSt12_Vector_baseINSt7__cxx1112basic_stringIcSt11char_traitsIcESaIcEEESaIS5_EE11_M_allocateEm>
  40aaf4:	48 8b 4d e8          	mov    -0x18(%rbp),%rcx
  40aaf8:	48 89 01             	mov    %rax,(%rcx)
  40aafb:	48 8b 01             	mov    (%rcx),%rax
  40aafe:	48 89 41 08          	mov    %rax,0x8(%rcx)
  40ab02:	48 8b 01             	mov    (%rcx),%rax
  40ab05:	48 8b 55 f0          	mov    -0x10(%rbp),%rdx
  40ab09:	48 c1 e2 05          	shl    $0x5,%rdx
  40ab0d:	48 01 d0             	add    %rdx,%rax
  40ab10:	48 89 41 10          	mov    %rax,0x10(%rcx)
  40ab14:	48 83 c4 20          	add    $0x20,%rsp
  40ab18:	5d                   	pop    %rbp
  40ab19:	c3                   	retq   
  40ab1a:	66 0f 1f 44 00 00    	nopw   0x0(%rax,%rax,1)

000000000040ab20 <_ZSt18uninitialized_copyIN9__gnu_cxx17__normal_iteratorIPKNSt7__cxx1112basic_stringIcSt11char_traitsIcESaIcEEESt6vectorIS7_SaIS7_EEEEPS7_ET0_T_SG_SF_>:
  40ab20:	55                   	push   %rbp
  40ab21:	48 89 e5             	mov    %rsp,%rbp
  40ab24:	48 83 ec 30          	sub    $0x30,%rsp
  40ab28:	48 89 7d f8          	mov    %rdi,-0x8(%rbp)
  40ab2c:	48 89 75 f0          	mov    %rsi,-0x10(%rbp)
  40ab30:	48 89 55 e8          	mov    %rdx,-0x18(%rbp)
  40ab34:	c6 45 e7 01          	movb   $0x1,-0x19(%rbp)
  40ab38:	48 8b 45 f8          	mov    -0x8(%rbp),%rax
  40ab3c:	48 89 45 d8          	mov    %rax,-0x28(%rbp)
  40ab40:	48 8b 45 f0          	mov    -0x10(%rbp),%rax
  40ab44:	48 89 45 d0          	mov    %rax,-0x30(%rbp)
  40ab48:	48 8b 55 e8          	mov    -0x18(%rbp),%rdx
  40ab4c:	48 8b 7d d8          	mov    -0x28(%rbp),%rdi
  40ab50:	48 8b 75 d0          	mov    -0x30(%rbp),%rsi
  40ab54:	e8 07 00 00 00       	callq  40ab60 <_ZNSt20__uninitialized_copyILb0EE13__uninit_copyIN9__gnu_cxx17__normal_iteratorIPKNSt7__cxx1112basic_stringIcSt11char_traitsIcESaIcEEESt6vectorIS9_SaIS9_EEEEPS9_EET0_T_SI_SH_>
  40ab59:	48 83 c4 30          	add    $0x30,%rsp
  40ab5d:	5d                   	pop    %rbp
  40ab5e:	c3                   	retq   
  40ab5f:	90                   	nop

000000000040ab60 <_ZNSt20__uninitialized_copyILb0EE13__uninit_copyIN9__gnu_cxx17__normal_iteratorIPKNSt7__cxx1112basic_stringIcSt11char_traitsIcESaIcEEESt6vectorIS9_SaIS9_EEEEPS9_EET0_T_SI_SH_>:
  40ab60:	55                   	push   %rbp
  40ab61:	48 89 e5             	mov    %rsp,%rbp
  40ab64:	48 83 ec 50          	sub    $0x50,%rsp
  40ab68:	48 89 7d f8          	mov    %rdi,-0x8(%rbp)
  40ab6c:	48 89 75 f0          	mov    %rsi,-0x10(%rbp)
  40ab70:	48 89 55 e8          	mov    %rdx,-0x18(%rbp)
  40ab74:	48 8b 45 e8          	mov    -0x18(%rbp),%rax
  40ab78:	48 89 45 e0          	mov    %rax,-0x20(%rbp)
  40ab7c:	48 8d 7d f8          	lea    -0x8(%rbp),%rdi
  40ab80:	48 8d 75 f0          	lea    -0x10(%rbp),%rsi
  40ab84:	e8 c7 00 00 00       	callq  40ac50 <_ZN9__gnu_cxxneIPKNSt7__cxx1112basic_stringIcSt11char_traitsIcESaIcEEESt6vectorIS6_SaIS6_EEEEbRKNS_17__normal_iteratorIT_T0_EESH_>
  40ab89:	a8 01                	test   $0x1,%al
  40ab8b:	0f 85 05 00 00 00    	jne    40ab96 <_ZNSt20__uninitialized_copyILb0EE13__uninit_copyIN9__gnu_cxx17__normal_iteratorIPKNSt7__cxx1112basic_stringIcSt11char_traitsIcESaIcEEESt6vectorIS9_SaIS9_EEEEPS9_EET0_T_SI_SH_+0x36>
  40ab91:	e9 79 00 00 00       	jmpq   40ac0f <_ZNSt20__uninitialized_copyILb0EE13__uninit_copyIN9__gnu_cxx17__normal_iteratorIPKNSt7__cxx1112basic_stringIcSt11char_traitsIcESaIcEEESt6vectorIS9_SaIS9_EEEEPS9_EET0_T_SI_SH_+0xaf>
  40ab96:	48 8b 7d e0          	mov    -0x20(%rbp),%rdi
  40ab9a:	e8 a1 98 ff ff       	callq  404440 <_ZSt11__addressofINSt7__cxx1112basic_stringIcSt11char_traitsIcESaIcEEEEPT_RS6_>
  40ab9f:	48 8d 7d f8          	lea    -0x8(%rbp),%rdi
  40aba3:	48 89 45 c8          	mov    %rax,-0x38(%rbp)
  40aba7:	e8 24 01 00 00       	callq  40acd0 <_ZNK9__gnu_cxx17__normal_iteratorIPKNSt7__cxx1112basic_stringIcSt11char_traitsIcESaIcEEESt6vectorIS6_SaIS6_EEEdeEv>
  40abac:	48 8b 7d c8          	mov    -0x38(%rbp),%rdi
  40abb0:	48 89 c6             	mov    %rax,%rsi
  40abb3:	e8 d8 00 00 00       	callq  40ac90 <_ZSt10_ConstructINSt7__cxx1112basic_stringIcSt11char_traitsIcESaIcEEEJRKS5_EEvPT_DpOT0_>
  40abb8:	e9 00 00 00 00       	jmpq   40abbd <_ZNSt20__uninitialized_copyILb0EE13__uninit_copyIN9__gnu_cxx17__normal_iteratorIPKNSt7__cxx1112basic_stringIcSt11char_traitsIcESaIcEEESt6vectorIS9_SaIS9_EEEEPS9_EET0_T_SI_SH_+0x5d>
  40abbd:	e9 00 00 00 00       	jmpq   40abc2 <_ZNSt20__uninitialized_copyILb0EE13__uninit_copyIN9__gnu_cxx17__normal_iteratorIPKNSt7__cxx1112basic_stringIcSt11char_traitsIcESaIcEEESt6vectorIS9_SaIS9_EEEEPS9_EET0_T_SI_SH_+0x62>
  40abc2:	48 8d 7d f8          	lea    -0x8(%rbp),%rdi
  40abc6:	e8 25 01 00 00       	callq  40acf0 <_ZN9__gnu_cxx17__normal_iteratorIPKNSt7__cxx1112basic_stringIcSt11char_traitsIcESaIcEEESt6vectorIS6_SaIS6_EEEppEv>
  40abcb:	48 8b 4d e0          	mov    -0x20(%rbp),%rcx
  40abcf:	48 81 c1 20 00 00 00 	add    $0x20,%rcx
  40abd6:	48 89 4d e0          	mov    %rcx,-0x20(%rbp)
  40abda:	e9 9d ff ff ff       	jmpq   40ab7c <_ZNSt20__uninitialized_copyILb0EE13__uninit_copyIN9__gnu_cxx17__normal_iteratorIPKNSt7__cxx1112basic_stringIcSt11char_traitsIcESaIcEEESt6vectorIS9_SaIS9_EEEEPS9_EET0_T_SI_SH_+0x1c>
  40abdf:	48 89 45 d8          	mov    %rax,-0x28(%rbp)
  40abe3:	89 55 d4             	mov    %edx,-0x2c(%rbp)
  40abe6:	48 8b 7d d8          	mov    -0x28(%rbp),%rdi
  40abea:	e8 b1 84 ff ff       	callq  4030a0 <__cxa_begin_catch@plt>
  40abef:	48 8b 7d e8          	mov    -0x18(%rbp),%rdi
  40abf3:	48 8b 75 e0          	mov    -0x20(%rbp),%rsi
  40abf7:	48 89 45 c0          	mov    %rax,-0x40(%rbp)
  40abfb:	e8 a0 97 ff ff       	callq  4043a0 <_ZSt8_DestroyIPNSt7__cxx1112basic_stringIcSt11char_traitsIcESaIcEEEEvT_S7_>
  40ac00:	e9 00 00 00 00       	jmpq   40ac05 <_ZNSt20__uninitialized_copyILb0EE13__uninit_copyIN9__gnu_cxx17__normal_iteratorIPKNSt7__cxx1112basic_stringIcSt11char_traitsIcESaIcEEESt6vectorIS9_SaIS9_EEEEPS9_EET0_T_SI_SH_+0xa5>
  40ac05:	e8 56 87 ff ff       	callq  403360 <__cxa_rethrow@plt>
  40ac0a:	e9 34 00 00 00       	jmpq   40ac43 <_ZNSt20__uninitialized_copyILb0EE13__uninit_copyIN9__gnu_cxx17__normal_iteratorIPKNSt7__cxx1112basic_stringIcSt11char_traitsIcESaIcEEESt6vectorIS9_SaIS9_EEEEPS9_EET0_T_SI_SH_+0xe3>
  40ac0f:	48 8b 45 e0          	mov    -0x20(%rbp),%rax
  40ac13:	48 83 c4 50          	add    $0x50,%rsp
  40ac17:	5d                   	pop    %rbp
  40ac18:	c3                   	retq   
  40ac19:	48 89 45 d8          	mov    %rax,-0x28(%rbp)
  40ac1d:	89 55 d4             	mov    %edx,-0x2c(%rbp)
  40ac20:	e8 8b 87 ff ff       	callq  4033b0 <__cxa_end_catch@plt>
  40ac25:	e9 00 00 00 00       	jmpq   40ac2a <_ZNSt20__uninitialized_copyILb0EE13__uninit_copyIN9__gnu_cxx17__normal_iteratorIPKNSt7__cxx1112basic_stringIcSt11char_traitsIcESaIcEEESt6vectorIS9_SaIS9_EEEEPS9_EET0_T_SI_SH_+0xca>
  40ac2a:	e9 00 00 00 00       	jmpq   40ac2f <_ZNSt20__uninitialized_copyILb0EE13__uninit_copyIN9__gnu_cxx17__normal_iteratorIPKNSt7__cxx1112basic_stringIcSt11char_traitsIcESaIcEEESt6vectorIS9_SaIS9_EEEEPS9_EET0_T_SI_SH_+0xcf>
  40ac2f:	48 8b 7d d8          	mov    -0x28(%rbp),%rdi
  40ac33:	e8 a8 87 ff ff       	callq  4033e0 <_Unwind_Resume@plt>
  40ac38:	48 89 c7             	mov    %rax,%rdi
  40ac3b:	89 55 bc             	mov    %edx,-0x44(%rbp)
  40ac3e:	e8 0d 94 ff ff       	callq  404050 <__clang_call_terminate>
  40ac43:	66 2e 0f 1f 84 00 00 	nopw   %cs:0x0(%rax,%rax,1)
  40ac4a:	00 00 00 
  40ac4d:	0f 1f 00             	nopl   (%rax)

000000000040ac50 <_ZN9__gnu_cxxneIPKNSt7__cxx1112basic_stringIcSt11char_traitsIcESaIcEEESt6vectorIS6_SaIS6_EEEEbRKNS_17__normal_iteratorIT_T0_EESH_>:
  40ac50:	55                   	push   %rbp
  40ac51:	48 89 e5             	mov    %rsp,%rbp
  40ac54:	48 83 ec 20          	sub    $0x20,%rsp
  40ac58:	48 89 7d f8          	mov    %rdi,-0x8(%rbp)
  40ac5c:	48 89 75 f0          	mov    %rsi,-0x10(%rbp)
  40ac60:	48 8b 7d f8          	mov    -0x8(%rbp),%rdi
  40ac64:	e8 a7 00 00 00       	callq  40ad10 <_ZNK9__gnu_cxx17__normal_iteratorIPKNSt7__cxx1112basic_stringIcSt11char_traitsIcESaIcEEESt6vectorIS6_SaIS6_EEE4baseEv>
  40ac69:	48 8b 00             	mov    (%rax),%rax
  40ac6c:	48 8b 7d f0          	mov    -0x10(%rbp),%rdi
  40ac70:	48 89 45 e8          	mov    %rax,-0x18(%rbp)
  40ac74:	e8 97 00 00 00       	callq  40ad10 <_ZNK9__gnu_cxx17__normal_iteratorIPKNSt7__cxx1112basic_stringIcSt11char_traitsIcESaIcEEESt6vectorIS6_SaIS6_EEE4baseEv>
  40ac79:	48 8b 4d e8          	mov    -0x18(%rbp),%rcx
  40ac7d:	48 3b 08             	cmp    (%rax),%rcx
  40ac80:	0f 95 c2             	setne  %dl
  40ac83:	80 e2 01             	and    $0x1,%dl
  40ac86:	0f b6 c2             	movzbl %dl,%eax
  40ac89:	48 83 c4 20          	add    $0x20,%rsp
  40ac8d:	5d                   	pop    %rbp
  40ac8e:	c3                   	retq   
  40ac8f:	90                   	nop

000000000040ac90 <_ZSt10_ConstructINSt7__cxx1112basic_stringIcSt11char_traitsIcESaIcEEEJRKS5_EEvPT_DpOT0_>:
  40ac90:	55                   	push   %rbp
  40ac91:	48 89 e5             	mov    %rsp,%rbp
  40ac94:	48 83 ec 20          	sub    $0x20,%rsp
  40ac98:	48 89 7d f8          	mov    %rdi,-0x8(%rbp)
  40ac9c:	48 89 75 f0          	mov    %rsi,-0x10(%rbp)
  40aca0:	48 8b 45 f8          	mov    -0x8(%rbp),%rax
  40aca4:	48 8b 7d f0          	mov    -0x10(%rbp),%rdi
  40aca8:	48 89 45 e8          	mov    %rax,-0x18(%rbp)
  40acac:	e8 6f 00 00 00       	callq  40ad20 <_ZSt7forwardIRKNSt7__cxx1112basic_stringIcSt11char_traitsIcESaIcEEEEOT_RNSt16remove_referenceIS8_E4typeE>
  40acb1:	48 8b 7d e8          	mov    -0x18(%rbp),%rdi
  40acb5:	48 89 c6             	mov    %rax,%rsi
  40acb8:	e8 03 84 ff ff       	callq  4030c0 <_ZNSt7__cxx1112basic_stringIcSt11char_traitsIcESaIcEEC1ERKS4_@plt>
  40acbd:	48 83 c4 20          	add    $0x20,%rsp
  40acc1:	5d                   	pop    %rbp
  40acc2:	c3                   	retq   
  40acc3:	66 2e 0f 1f 84 00 00 	nopw   %cs:0x0(%rax,%rax,1)
  40acca:	00 00 00 
  40accd:	0f 1f 00             	nopl   (%rax)

000000000040acd0 <_ZNK9__gnu_cxx17__normal_iteratorIPKNSt7__cxx1112basic_stringIcSt11char_traitsIcESaIcEEESt6vectorIS6_SaIS6_EEEdeEv>:
  40acd0:	55                   	push   %rbp
  40acd1:	48 89 e5             	mov    %rsp,%rbp
  40acd4:	48 89 7d f8          	mov    %rdi,-0x8(%rbp)
  40acd8:	48 8b 45 f8          	mov    -0x8(%rbp),%rax
  40acdc:	48 8b 00             	mov    (%rax),%rax
  40acdf:	5d                   	pop    %rbp
  40ace0:	c3                   	retq   
  40ace1:	66 2e 0f 1f 84 00 00 	nopw   %cs:0x0(%rax,%rax,1)
  40ace8:	00 00 00 
  40aceb:	0f 1f 44 00 00       	nopl   0x0(%rax,%rax,1)

000000000040acf0 <_ZN9__gnu_cxx17__normal_iteratorIPKNSt7__cxx1112basic_stringIcSt11char_traitsIcESaIcEEESt6vectorIS6_SaIS6_EEEppEv>:
  40acf0:	55                   	push   %rbp
  40acf1:	48 89 e5             	mov    %rsp,%rbp
  40acf4:	48 89 7d f8          	mov    %rdi,-0x8(%rbp)
  40acf8:	48 8b 45 f8          	mov    -0x8(%rbp),%rax
  40acfc:	48 8b 08             	mov    (%rax),%rcx
  40acff:	48 81 c1 20 00 00 00 	add    $0x20,%rcx
  40ad06:	48 89 08             	mov    %rcx,(%rax)
  40ad09:	5d                   	pop    %rbp
  40ad0a:	c3                   	retq   
  40ad0b:	0f 1f 44 00 00       	nopl   0x0(%rax,%rax,1)

000000000040ad10 <_ZNK9__gnu_cxx17__normal_iteratorIPKNSt7__cxx1112basic_stringIcSt11char_traitsIcESaIcEEESt6vectorIS6_SaIS6_EEE4baseEv>:
  40ad10:	55                   	push   %rbp
  40ad11:	48 89 e5             	mov    %rsp,%rbp
  40ad14:	48 89 7d f8          	mov    %rdi,-0x8(%rbp)
  40ad18:	48 8b 45 f8          	mov    -0x8(%rbp),%rax
  40ad1c:	5d                   	pop    %rbp
  40ad1d:	c3                   	retq   
  40ad1e:	66 90                	xchg   %ax,%ax

000000000040ad20 <_ZSt7forwardIRKNSt7__cxx1112basic_stringIcSt11char_traitsIcESaIcEEEEOT_RNSt16remove_referenceIS8_E4typeE>:
  40ad20:	55                   	push   %rbp
  40ad21:	48 89 e5             	mov    %rsp,%rbp
  40ad24:	48 89 7d f8          	mov    %rdi,-0x8(%rbp)
  40ad28:	48 8b 45 f8          	mov    -0x8(%rbp),%rax
  40ad2c:	5d                   	pop    %rbp
  40ad2d:	c3                   	retq   
  40ad2e:	66 90                	xchg   %ax,%ax

000000000040ad30 <_ZN9__gnu_cxx17__normal_iteratorIPKNSt7__cxx1112basic_stringIcSt11char_traitsIcESaIcEEESt6vectorIS6_SaIS6_EEEC2ERKS8_>:
  40ad30:	55                   	push   %rbp
  40ad31:	48 89 e5             	mov    %rsp,%rbp
  40ad34:	48 89 7d f8          	mov    %rdi,-0x8(%rbp)
  40ad38:	48 89 75 f0          	mov    %rsi,-0x10(%rbp)
  40ad3c:	48 8b 45 f8          	mov    -0x8(%rbp),%rax
  40ad40:	48 8b 4d f0          	mov    -0x10(%rbp),%rcx
  40ad44:	48 8b 09             	mov    (%rcx),%rcx
  40ad47:	48 89 08             	mov    %rcx,(%rax)
  40ad4a:	5d                   	pop    %rbp
  40ad4b:	c3                   	retq   
  40ad4c:	0f 1f 40 00          	nopl   0x0(%rax)

000000000040ad50 <_ZNKSt6vectorIS_INSt7__cxx1112basic_stringIcSt11char_traitsIcESaIcEEESaIS5_EESaIS7_EE12_M_check_lenEmPKc>:
  40ad50:	55                   	push   %rbp
  40ad51:	48 89 e5             	mov    %rsp,%rbp
  40ad54:	48 83 ec 60          	sub    $0x60,%rsp
  40ad58:	48 89 7d f8          	mov    %rdi,-0x8(%rbp)
  40ad5c:	48 89 75 f0          	mov    %rsi,-0x10(%rbp)
  40ad60:	48 89 55 e8          	mov    %rdx,-0x18(%rbp)
  40ad64:	48 8b 45 f8          	mov    -0x8(%rbp),%rax
  40ad68:	48 89 c7             	mov    %rax,%rdi
  40ad6b:	48 89 45 d0          	mov    %rax,-0x30(%rbp)
  40ad6f:	e8 1c 02 00 00       	callq  40af90 <_ZNKSt6vectorIS_INSt7__cxx1112basic_stringIcSt11char_traitsIcESaIcEEESaIS5_EESaIS7_EE8max_sizeEv>
  40ad74:	48 8b 7d d0          	mov    -0x30(%rbp),%rdi
  40ad78:	48 89 45 c8          	mov    %rax,-0x38(%rbp)
  40ad7c:	e8 3f 02 00 00       	callq  40afc0 <_ZNKSt6vectorIS_INSt7__cxx1112basic_stringIcSt11char_traitsIcESaIcEEESaIS5_EESaIS7_EE4sizeEv>
  40ad81:	48 8b 4d c8          	mov    -0x38(%rbp),%rcx
  40ad85:	48 29 c1             	sub    %rax,%rcx
  40ad88:	48 3b 4d f0          	cmp    -0x10(%rbp),%rcx
  40ad8c:	0f 83 09 00 00 00    	jae    40ad9b <_ZNKSt6vectorIS_INSt7__cxx1112basic_stringIcSt11char_traitsIcESaIcEEESaIS5_EESaIS7_EE12_M_check_lenEmPKc+0x4b>
  40ad92:	48 8b 7d e8          	mov    -0x18(%rbp),%rdi
  40ad96:	e8 75 83 ff ff       	callq  403110 <_ZSt20__throw_length_errorPKc@plt>
  40ad9b:	48 8b 7d d0          	mov    -0x30(%rbp),%rdi
  40ad9f:	e8 1c 02 00 00       	callq  40afc0 <_ZNKSt6vectorIS_INSt7__cxx1112basic_stringIcSt11char_traitsIcESaIcEEESaIS5_EESaIS7_EE4sizeEv>
  40ada4:	48 8b 7d d0          	mov    -0x30(%rbp),%rdi
  40ada8:	48 89 45 c0          	mov    %rax,-0x40(%rbp)
  40adac:	e8 0f 02 00 00       	callq  40afc0 <_ZNKSt6vectorIS_INSt7__cxx1112basic_stringIcSt11char_traitsIcESaIcEEESaIS5_EESaIS7_EE4sizeEv>
  40adb1:	48 89 45 d8          	mov    %rax,-0x28(%rbp)
  40adb5:	48 8d 7d d8          	lea    -0x28(%rbp),%rdi
  40adb9:	48 8d 75 f0          	lea    -0x10(%rbp),%rsi
  40adbd:	e8 6e eb ff ff       	callq  409930 <_ZSt3maxImERKT_S2_S2_>
  40adc2:	48 8b 4d c0          	mov    -0x40(%rbp),%rcx
  40adc6:	48 03 08             	add    (%rax),%rcx
  40adc9:	48 89 4d e0          	mov    %rcx,-0x20(%rbp)
  40adcd:	48 8b 45 e0          	mov    -0x20(%rbp),%rax
  40add1:	48 8b 7d d0          	mov    -0x30(%rbp),%rdi
  40add5:	48 89 45 b8          	mov    %rax,-0x48(%rbp)
  40add9:	e8 e2 01 00 00       	callq  40afc0 <_ZNKSt6vectorIS_INSt7__cxx1112basic_stringIcSt11char_traitsIcESaIcEEESaIS5_EESaIS7_EE4sizeEv>
  40adde:	48 8b 4d b8          	mov    -0x48(%rbp),%rcx
  40ade2:	48 39 c1             	cmp    %rax,%rcx
  40ade5:	0f 82 1e 00 00 00    	jb     40ae09 <_ZNKSt6vectorIS_INSt7__cxx1112basic_stringIcSt11char_traitsIcESaIcEEESaIS5_EESaIS7_EE12_M_check_lenEmPKc+0xb9>
  40adeb:	48 8b 45 e0          	mov    -0x20(%rbp),%rax
  40adef:	48 8b 7d d0          	mov    -0x30(%rbp),%rdi
  40adf3:	48 89 45 b0          	mov    %rax,-0x50(%rbp)
  40adf7:	e8 94 01 00 00       	callq  40af90 <_ZNKSt6vectorIS_INSt7__cxx1112basic_stringIcSt11char_traitsIcESaIcEEESaIS5_EESaIS7_EE8max_sizeEv>
  40adfc:	48 8b 4d b0          	mov    -0x50(%rbp),%rcx
  40ae00:	48 39 c1             	cmp    %rax,%rcx
  40ae03:	0f 86 12 00 00 00    	jbe    40ae1b <_ZNKSt6vectorIS_INSt7__cxx1112basic_stringIcSt11char_traitsIcESaIcEEESaIS5_EESaIS7_EE12_M_check_lenEmPKc+0xcb>
  40ae09:	48 8b 7d d0          	mov    -0x30(%rbp),%rdi
  40ae0d:	e8 7e 01 00 00       	callq  40af90 <_ZNKSt6vectorIS_INSt7__cxx1112basic_stringIcSt11char_traitsIcESaIcEEESaIS5_EESaIS7_EE8max_sizeEv>
  40ae12:	48 89 45 a8          	mov    %rax,-0x58(%rbp)
  40ae16:	e9 08 00 00 00       	jmpq   40ae23 <_ZNKSt6vectorIS_INSt7__cxx1112basic_stringIcSt11char_traitsIcESaIcEEESaIS5_EESaIS7_EE12_M_check_lenEmPKc+0xd3>
  40ae1b:	48 8b 45 e0          	mov    -0x20(%rbp),%rax
  40ae1f:	48 89 45 a8          	mov    %rax,-0x58(%rbp)
  40ae23:	48 8b 45 a8          	mov    -0x58(%rbp),%rax
  40ae27:	48 83 c4 60          	add    $0x60,%rsp
  40ae2b:	5d                   	pop    %rbp
  40ae2c:	c3                   	retq   
  40ae2d:	0f 1f 00             	nopl   (%rax)

000000000040ae30 <_ZN9__gnu_cxxmiIPSt6vectorINSt7__cxx1112basic_stringIcSt11char_traitsIcESaIcEEESaIS7_EES1_IS9_SaIS9_EEEENS_17__normal_iteratorIT_T0_E15difference_typeERKSG_SJ_>:
  40ae30:	55                   	push   %rbp
  40ae31:	48 89 e5             	mov    %rsp,%rbp
  40ae34:	48 83 ec 20          	sub    $0x20,%rsp
  40ae38:	48 89 7d f8          	mov    %rdi,-0x8(%rbp)
  40ae3c:	48 89 75 f0          	mov    %rsi,-0x10(%rbp)
  40ae40:	48 8b 7d f8          	mov    -0x8(%rbp),%rdi
  40ae44:	e8 07 01 00 00       	callq  40af50 <_ZNK9__gnu_cxx17__normal_iteratorIPSt6vectorINSt7__cxx1112basic_stringIcSt11char_traitsIcESaIcEEESaIS7_EES1_IS9_SaIS9_EEE4baseEv>
  40ae49:	48 8b 00             	mov    (%rax),%rax
  40ae4c:	48 8b 7d f0          	mov    -0x10(%rbp),%rdi
  40ae50:	48 89 45 e8          	mov    %rax,-0x18(%rbp)
  40ae54:	e8 f7 00 00 00       	callq  40af50 <_ZNK9__gnu_cxx17__normal_iteratorIPSt6vectorINSt7__cxx1112basic_stringIcSt11char_traitsIcESaIcEEESaIS7_EES1_IS9_SaIS9_EEE4baseEv>
  40ae59:	48 8b 00             	mov    (%rax),%rax
  40ae5c:	48 8b 4d e8          	mov    -0x18(%rbp),%rcx
  40ae60:	48 29 c1             	sub    %rax,%rcx
  40ae63:	48 89 c8             	mov    %rcx,%rax
  40ae66:	48 99                	cqto   
  40ae68:	b9 18 00 00 00       	mov    $0x18,%ecx
  40ae6d:	48 f7 f9             	idiv   %rcx
  40ae70:	48 83 c4 20          	add    $0x20,%rsp
  40ae74:	5d                   	pop    %rbp
  40ae75:	c3                   	retq   
  40ae76:	66 2e 0f 1f 84 00 00 	nopw   %cs:0x0(%rax,%rax,1)
  40ae7d:	00 00 00 

000000000040ae80 <_ZNSt6vectorIS_INSt7__cxx1112basic_stringIcSt11char_traitsIcESaIcEEESaIS5_EESaIS7_EE5beginEv>:
  40ae80:	55                   	push   %rbp
  40ae81:	48 89 e5             	mov    %rsp,%rbp
  40ae84:	48 83 ec 10          	sub    $0x10,%rsp
  40ae88:	48 89 7d f0          	mov    %rdi,-0x10(%rbp)
  40ae8c:	48 8b 45 f0          	mov    -0x10(%rbp),%rax
  40ae90:	48 8d 7d f8          	lea    -0x8(%rbp),%rdi
  40ae94:	48 89 c6             	mov    %rax,%rsi
  40ae97:	e8 04 02 00 00       	callq  40b0a0 <_ZN9__gnu_cxx17__normal_iteratorIPSt6vectorINSt7__cxx1112basic_stringIcSt11char_traitsIcESaIcEEESaIS7_EES1_IS9_SaIS9_EEEC2ERKSA_>
  40ae9c:	48 8b 45 f8          	mov    -0x8(%rbp),%rax
  40aea0:	48 83 c4 10          	add    $0x10,%rsp
  40aea4:	5d                   	pop    %rbp
  40aea5:	c3                   	retq   
  40aea6:	66 2e 0f 1f 84 00 00 	nopw   %cs:0x0(%rax,%rax,1)
  40aead:	00 00 00 

000000000040aeb0 <_ZNSt12_Vector_baseISt6vectorINSt7__cxx1112basic_stringIcSt11char_traitsIcESaIcEEESaIS6_EESaIS8_EE11_M_allocateEm>:
  40aeb0:	55                   	push   %rbp
  40aeb1:	48 89 e5             	mov    %rsp,%rbp
  40aeb4:	48 83 ec 20          	sub    $0x20,%rsp
  40aeb8:	48 89 7d f8          	mov    %rdi,-0x8(%rbp)
  40aebc:	48 89 75 f0          	mov    %rsi,-0x10(%rbp)
  40aec0:	48 8b 45 f8          	mov    -0x8(%rbp),%rax
  40aec4:	48 83 7d f0 00       	cmpq   $0x0,-0x10(%rbp)
  40aec9:	48 89 45 e8          	mov    %rax,-0x18(%rbp)
  40aecd:	0f 84 19 00 00 00    	je     40aeec <_ZNSt12_Vector_baseISt6vectorINSt7__cxx1112basic_stringIcSt11char_traitsIcESaIcEEESaIS6_EESaIS8_EE11_M_allocateEm+0x3c>
  40aed3:	48 8b 45 e8          	mov    -0x18(%rbp),%rax
  40aed7:	48 8b 75 f0          	mov    -0x10(%rbp),%rsi
  40aedb:	48 89 c7             	mov    %rax,%rdi
  40aede:	e8 dd 01 00 00       	callq  40b0c0 <_ZNSt16allocator_traitsISaISt6vectorINSt7__cxx1112basic_stringIcSt11char_traitsIcESaIcEEESaIS6_EEEE8allocateERS9_m>
  40aee3:	48 89 45 e0          	mov    %rax,-0x20(%rbp)
  40aee7:	e9 0d 00 00 00       	jmpq   40aef9 <_ZNSt12_Vector_baseISt6vectorINSt7__cxx1112basic_stringIcSt11char_traitsIcESaIcEEESaIS6_EESaIS8_EE11_M_allocateEm+0x49>
  40aeec:	31 c0                	xor    %eax,%eax
  40aeee:	89 c1                	mov    %eax,%ecx
  40aef0:	48 89 4d e0          	mov    %rcx,-0x20(%rbp)
  40aef4:	e9 00 00 00 00       	jmpq   40aef9 <_ZNSt12_Vector_baseISt6vectorINSt7__cxx1112basic_stringIcSt11char_traitsIcESaIcEEESaIS6_EESaIS8_EE11_M_allocateEm+0x49>
  40aef9:	48 8b 45 e0          	mov    -0x20(%rbp),%rax
  40aefd:	48 83 c4 20          	add    $0x20,%rsp
  40af01:	5d                   	pop    %rbp
  40af02:	c3                   	retq   
  40af03:	66 2e 0f 1f 84 00 00 	nopw   %cs:0x0(%rax,%rax,1)
  40af0a:	00 00 00 
  40af0d:	0f 1f 00             	nopl   (%rax)

000000000040af10 <_ZNSt6vectorIS_INSt7__cxx1112basic_stringIcSt11char_traitsIcESaIcEEESaIS5_EESaIS7_EE11_S_relocateEPS7_SA_SA_RS8_>:
  40af10:	55                   	push   %rbp
  40af11:	48 89 e5             	mov    %rsp,%rbp
  40af14:	48 83 ec 30          	sub    $0x30,%rsp
  40af18:	48 89 7d f8          	mov    %rdi,-0x8(%rbp)
  40af1c:	48 89 75 f0          	mov    %rsi,-0x10(%rbp)
  40af20:	48 89 55 e8          	mov    %rdx,-0x18(%rbp)
  40af24:	48 89 4d e0          	mov    %rcx,-0x20(%rbp)
  40af28:	48 8b 7d f8          	mov    -0x8(%rbp),%rdi
  40af2c:	48 8b 75 f0          	mov    -0x10(%rbp),%rsi
  40af30:	48 8b 55 e8          	mov    -0x18(%rbp),%rdx
  40af34:	48 8b 4d e0          	mov    -0x20(%rbp),%rcx
  40af38:	e8 03 02 00 00       	callq  40b140 <_ZNSt6vectorIS_INSt7__cxx1112basic_stringIcSt11char_traitsIcESaIcEEESaIS5_EESaIS7_EE14_S_do_relocateEPS7_SA_SA_RS8_St17integral_constantIbLb1EE>
  40af3d:	48 83 c4 30          	add    $0x30,%rsp
  40af41:	5d                   	pop    %rbp
  40af42:	c3                   	retq   
  40af43:	66 2e 0f 1f 84 00 00 	nopw   %cs:0x0(%rax,%rax,1)
  40af4a:	00 00 00 
  40af4d:	0f 1f 00             	nopl   (%rax)

000000000040af50 <_ZNK9__gnu_cxx17__normal_iteratorIPSt6vectorINSt7__cxx1112basic_stringIcSt11char_traitsIcESaIcEEESaIS7_EES1_IS9_SaIS9_EEE4baseEv>:
  40af50:	55                   	push   %rbp
  40af51:	48 89 e5             	mov    %rsp,%rbp
  40af54:	48 89 7d f8          	mov    %rdi,-0x8(%rbp)
  40af58:	48 8b 45 f8          	mov    -0x8(%rbp),%rax
  40af5c:	5d                   	pop    %rbp
  40af5d:	c3                   	retq   
  40af5e:	66 90                	xchg   %ax,%ax

000000000040af60 <_ZNSt16allocator_traitsISaISt6vectorINSt7__cxx1112basic_stringIcSt11char_traitsIcESaIcEEESaIS6_EEEE7destroyIS8_EEvRS9_PT_>:
  40af60:	55                   	push   %rbp
  40af61:	48 89 e5             	mov    %rsp,%rbp
  40af64:	48 83 ec 10          	sub    $0x10,%rsp
  40af68:	48 89 7d f8          	mov    %rdi,-0x8(%rbp)
  40af6c:	48 89 75 f0          	mov    %rsi,-0x10(%rbp)
  40af70:	48 8b 45 f8          	mov    -0x8(%rbp),%rax
  40af74:	48 8b 75 f0          	mov    -0x10(%rbp),%rsi
  40af78:	48 89 c7             	mov    %rax,%rdi
  40af7b:	e8 40 05 00 00       	callq  40b4c0 <_ZN9__gnu_cxx13new_allocatorISt6vectorINSt7__cxx1112basic_stringIcSt11char_traitsIcESaIcEEESaIS7_EEE7destroyIS9_EEvPT_>
  40af80:	48 83 c4 10          	add    $0x10,%rsp
  40af84:	5d                   	pop    %rbp
  40af85:	c3                   	retq   
  40af86:	66 2e 0f 1f 84 00 00 	nopw   %cs:0x0(%rax,%rax,1)
  40af8d:	00 00 00 

000000000040af90 <_ZNKSt6vectorIS_INSt7__cxx1112basic_stringIcSt11char_traitsIcESaIcEEESaIS5_EESaIS7_EE8max_sizeEv>:
  40af90:	55                   	push   %rbp
  40af91:	48 89 e5             	mov    %rsp,%rbp
  40af94:	48 83 ec 10          	sub    $0x10,%rsp
  40af98:	48 89 7d f8          	mov    %rdi,-0x8(%rbp)
  40af9c:	48 8b 45 f8          	mov    -0x8(%rbp),%rax
  40afa0:	48 89 c7             	mov    %rax,%rdi
  40afa3:	e8 a8 00 00 00       	callq  40b050 <_ZNKSt12_Vector_baseISt6vectorINSt7__cxx1112basic_stringIcSt11char_traitsIcESaIcEEESaIS6_EESaIS8_EE19_M_get_Tp_allocatorEv>
  40afa8:	48 89 c7             	mov    %rax,%rdi
  40afab:	e8 40 00 00 00       	callq  40aff0 <_ZNSt6vectorIS_INSt7__cxx1112basic_stringIcSt11char_traitsIcESaIcEEESaIS5_EESaIS7_EE11_S_max_sizeERKS8_>
  40afb0:	48 83 c4 10          	add    $0x10,%rsp
  40afb4:	5d                   	pop    %rbp
  40afb5:	c3                   	retq   
  40afb6:	66 2e 0f 1f 84 00 00 	nopw   %cs:0x0(%rax,%rax,1)
  40afbd:	00 00 00 

000000000040afc0 <_ZNKSt6vectorIS_INSt7__cxx1112basic_stringIcSt11char_traitsIcESaIcEEESaIS5_EESaIS7_EE4sizeEv>:
  40afc0:	55                   	push   %rbp
  40afc1:	48 89 e5             	mov    %rsp,%rbp
  40afc4:	48 89 7d f8          	mov    %rdi,-0x8(%rbp)
  40afc8:	48 8b 45 f8          	mov    -0x8(%rbp),%rax
  40afcc:	48 8b 48 08          	mov    0x8(%rax),%rcx
  40afd0:	48 8b 00             	mov    (%rax),%rax
  40afd3:	48 29 c1             	sub    %rax,%rcx
  40afd6:	48 89 c8             	mov    %rcx,%rax
  40afd9:	48 99                	cqto   
  40afdb:	b9 18 00 00 00       	mov    $0x18,%ecx
  40afe0:	48 f7 f9             	idiv   %rcx
  40afe3:	5d                   	pop    %rbp
  40afe4:	c3                   	retq   
  40afe5:	66 2e 0f 1f 84 00 00 	nopw   %cs:0x0(%rax,%rax,1)
  40afec:	00 00 00 
  40afef:	90                   	nop

000000000040aff0 <_ZNSt6vectorIS_INSt7__cxx1112basic_stringIcSt11char_traitsIcESaIcEEESaIS5_EESaIS7_EE11_S_max_sizeERKS8_>:
  40aff0:	55                   	push   %rbp
  40aff1:	48 89 e5             	mov    %rsp,%rbp
  40aff4:	48 83 ec 30          	sub    $0x30,%rsp
  40aff8:	48 89 7d f8          	mov    %rdi,-0x8(%rbp)
  40affc:	48 b8 55 55 55 55 55 	movabs $0x555555555555555,%rax
  40b003:	55 55 05 
  40b006:	48 89 45 f0          	mov    %rax,-0x10(%rbp)
  40b00a:	48 8b 7d f8          	mov    -0x8(%rbp),%rdi
  40b00e:	e8 4d 00 00 00       	callq  40b060 <_ZNSt16allocator_traitsISaISt6vectorINSt7__cxx1112basic_stringIcSt11char_traitsIcESaIcEEESaIS6_EEEE8max_sizeERKS9_>
  40b013:	48 89 45 e8          	mov    %rax,-0x18(%rbp)
  40b017:	48 8d 7d f0          	lea    -0x10(%rbp),%rdi
  40b01b:	48 8d 75 e8          	lea    -0x18(%rbp),%rsi
  40b01f:	e8 dc e9 ff ff       	callq  409a00 <_ZSt3minImERKT_S2_S2_>
  40b024:	48 89 45 e0          	mov    %rax,-0x20(%rbp)
  40b028:	e9 00 00 00 00       	jmpq   40b02d <_ZNSt6vectorIS_INSt7__cxx1112basic_stringIcSt11char_traitsIcESaIcEEESaIS5_EESaIS7_EE11_S_max_sizeERKS8_+0x3d>
  40b02d:	48 8b 45 e0          	mov    -0x20(%rbp),%rax
  40b031:	48 8b 00             	mov    (%rax),%rax
  40b034:	48 83 c4 30          	add    $0x30,%rsp
  40b038:	5d                   	pop    %rbp
  40b039:	c3                   	retq   
  40b03a:	48 89 c7             	mov    %rax,%rdi
  40b03d:	89 55 dc             	mov    %edx,-0x24(%rbp)
  40b040:	e8 0b 90 ff ff       	callq  404050 <__clang_call_terminate>
  40b045:	66 2e 0f 1f 84 00 00 	nopw   %cs:0x0(%rax,%rax,1)
  40b04c:	00 00 00 
  40b04f:	90                   	nop

000000000040b050 <_ZNKSt12_Vector_baseISt6vectorINSt7__cxx1112basic_stringIcSt11char_traitsIcESaIcEEESaIS6_EESaIS8_EE19_M_get_Tp_allocatorEv>:
  40b050:	55                   	push   %rbp
  40b051:	48 89 e5             	mov    %rsp,%rbp
  40b054:	48 89 7d f8          	mov    %rdi,-0x8(%rbp)
  40b058:	48 8b 45 f8          	mov    -0x8(%rbp),%rax
  40b05c:	5d                   	pop    %rbp
  40b05d:	c3                   	retq   
  40b05e:	66 90                	xchg   %ax,%ax

000000000040b060 <_ZNSt16allocator_traitsISaISt6vectorINSt7__cxx1112basic_stringIcSt11char_traitsIcESaIcEEESaIS6_EEEE8max_sizeERKS9_>:
  40b060:	55                   	push   %rbp
  40b061:	48 89 e5             	mov    %rsp,%rbp
  40b064:	48 83 ec 10          	sub    $0x10,%rsp
  40b068:	48 89 7d f8          	mov    %rdi,-0x8(%rbp)
  40b06c:	48 8b 45 f8          	mov    -0x8(%rbp),%rax
  40b070:	48 89 c7             	mov    %rax,%rdi
  40b073:	e8 08 00 00 00       	callq  40b080 <_ZNK9__gnu_cxx13new_allocatorISt6vectorINSt7__cxx1112basic_stringIcSt11char_traitsIcESaIcEEESaIS7_EEE8max_sizeEv>
  40b078:	48 83 c4 10          	add    $0x10,%rsp
  40b07c:	5d                   	pop    %rbp
  40b07d:	c3                   	retq   
  40b07e:	66 90                	xchg   %ax,%ax

000000000040b080 <_ZNK9__gnu_cxx13new_allocatorISt6vectorINSt7__cxx1112basic_stringIcSt11char_traitsIcESaIcEEESaIS7_EEE8max_sizeEv>:
  40b080:	55                   	push   %rbp
  40b081:	48 89 e5             	mov    %rsp,%rbp
  40b084:	48 89 7d f8          	mov    %rdi,-0x8(%rbp)
  40b088:	48 b8 55 55 55 55 55 	movabs $0x555555555555555,%rax
  40b08f:	55 55 05 
  40b092:	5d                   	pop    %rbp
  40b093:	c3                   	retq   
  40b094:	66 2e 0f 1f 84 00 00 	nopw   %cs:0x0(%rax,%rax,1)
  40b09b:	00 00 00 
  40b09e:	66 90                	xchg   %ax,%ax

000000000040b0a0 <_ZN9__gnu_cxx17__normal_iteratorIPSt6vectorINSt7__cxx1112basic_stringIcSt11char_traitsIcESaIcEEESaIS7_EES1_IS9_SaIS9_EEEC2ERKSA_>:
  40b0a0:	55                   	push   %rbp
  40b0a1:	48 89 e5             	mov    %rsp,%rbp
  40b0a4:	48 89 7d f8          	mov    %rdi,-0x8(%rbp)
  40b0a8:	48 89 75 f0          	mov    %rsi,-0x10(%rbp)
  40b0ac:	48 8b 45 f8          	mov    -0x8(%rbp),%rax
  40b0b0:	48 8b 4d f0          	mov    -0x10(%rbp),%rcx
  40b0b4:	48 8b 09             	mov    (%rcx),%rcx
  40b0b7:	48 89 08             	mov    %rcx,(%rax)
  40b0ba:	5d                   	pop    %rbp
  40b0bb:	c3                   	retq   
  40b0bc:	0f 1f 40 00          	nopl   0x0(%rax)

000000000040b0c0 <_ZNSt16allocator_traitsISaISt6vectorINSt7__cxx1112basic_stringIcSt11char_traitsIcESaIcEEESaIS6_EEEE8allocateERS9_m>:
  40b0c0:	55                   	push   %rbp
  40b0c1:	48 89 e5             	mov    %rsp,%rbp
  40b0c4:	48 83 ec 10          	sub    $0x10,%rsp
  40b0c8:	31 c0                	xor    %eax,%eax
  40b0ca:	89 c2                	mov    %eax,%edx
  40b0cc:	48 89 7d f8          	mov    %rdi,-0x8(%rbp)
  40b0d0:	48 89 75 f0          	mov    %rsi,-0x10(%rbp)
  40b0d4:	48 8b 4d f8          	mov    -0x8(%rbp),%rcx
  40b0d8:	48 8b 75 f0          	mov    -0x10(%rbp),%rsi
  40b0dc:	48 89 cf             	mov    %rcx,%rdi
  40b0df:	e8 0c 00 00 00       	callq  40b0f0 <_ZN9__gnu_cxx13new_allocatorISt6vectorINSt7__cxx1112basic_stringIcSt11char_traitsIcESaIcEEESaIS7_EEE8allocateEmPKv>
  40b0e4:	48 83 c4 10          	add    $0x10,%rsp
  40b0e8:	5d                   	pop    %rbp
  40b0e9:	c3                   	retq   
  40b0ea:	66 0f 1f 44 00 00    	nopw   0x0(%rax,%rax,1)

000000000040b0f0 <_ZN9__gnu_cxx13new_allocatorISt6vectorINSt7__cxx1112basic_stringIcSt11char_traitsIcESaIcEEESaIS7_EEE8allocateEmPKv>:
  40b0f0:	55                   	push   %rbp
  40b0f1:	48 89 e5             	mov    %rsp,%rbp
  40b0f4:	48 83 ec 20          	sub    $0x20,%rsp
  40b0f8:	48 89 7d f8          	mov    %rdi,-0x8(%rbp)
  40b0fc:	48 89 75 f0          	mov    %rsi,-0x10(%rbp)
  40b100:	48 89 55 e8          	mov    %rdx,-0x18(%rbp)
  40b104:	48 8b 7d f8          	mov    -0x8(%rbp),%rdi
  40b108:	48 8b 45 f0          	mov    -0x10(%rbp),%rax
  40b10c:	48 89 45 e0          	mov    %rax,-0x20(%rbp)
  40b110:	e8 6b ff ff ff       	callq  40b080 <_ZNK9__gnu_cxx13new_allocatorISt6vectorINSt7__cxx1112basic_stringIcSt11char_traitsIcESaIcEEESaIS7_EEE8max_sizeEv>
  40b115:	48 8b 4d e0          	mov    -0x20(%rbp),%rcx
  40b119:	48 39 c1             	cmp    %rax,%rcx
  40b11c:	0f 86 05 00 00 00    	jbe    40b127 <_ZN9__gnu_cxx13new_allocatorISt6vectorINSt7__cxx1112basic_stringIcSt11char_traitsIcESaIcEEESaIS7_EEE8allocateEmPKv+0x37>
  40b122:	e8 69 7f ff ff       	callq  403090 <_ZSt17__throw_bad_allocv@plt>
  40b127:	48 69 7d f0 18 00 00 	imul   $0x18,-0x10(%rbp),%rdi
  40b12e:	00 
  40b12f:	e8 1c 81 ff ff       	callq  403250 <_Znwm@plt>
  40b134:	48 83 c4 20          	add    $0x20,%rsp
  40b138:	5d                   	pop    %rbp
  40b139:	c3                   	retq   
  40b13a:	66 0f 1f 44 00 00    	nopw   0x0(%rax,%rax,1)

000000000040b140 <_ZNSt6vectorIS_INSt7__cxx1112basic_stringIcSt11char_traitsIcESaIcEEESaIS5_EESaIS7_EE14_S_do_relocateEPS7_SA_SA_RS8_St17integral_constantIbLb1EE>:
  40b140:	55                   	push   %rbp
  40b141:	48 89 e5             	mov    %rsp,%rbp
  40b144:	48 83 ec 30          	sub    $0x30,%rsp
  40b148:	48 89 7d f0          	mov    %rdi,-0x10(%rbp)
  40b14c:	48 89 75 e8          	mov    %rsi,-0x18(%rbp)
  40b150:	48 89 55 e0          	mov    %rdx,-0x20(%rbp)
  40b154:	48 89 4d d8          	mov    %rcx,-0x28(%rbp)
  40b158:	48 8b 7d f0          	mov    -0x10(%rbp),%rdi
  40b15c:	48 8b 75 e8          	mov    -0x18(%rbp),%rsi
  40b160:	48 8b 55 e0          	mov    -0x20(%rbp),%rdx
  40b164:	48 8b 4d d8          	mov    -0x28(%rbp),%rcx
  40b168:	e8 13 00 00 00       	callq  40b180 <_ZSt12__relocate_aIPSt6vectorINSt7__cxx1112basic_stringIcSt11char_traitsIcESaIcEEESaIS6_EES9_SaIS8_EET0_T_SC_SB_RT1_>
  40b16d:	48 83 c4 30          	add    $0x30,%rsp
  40b171:	5d                   	pop    %rbp
  40b172:	c3                   	retq   
  40b173:	66 2e 0f 1f 84 00 00 	nopw   %cs:0x0(%rax,%rax,1)
  40b17a:	00 00 00 
  40b17d:	0f 1f 00             	nopl   (%rax)

000000000040b180 <_ZSt12__relocate_aIPSt6vectorINSt7__cxx1112basic_stringIcSt11char_traitsIcESaIcEEESaIS6_EES9_SaIS8_EET0_T_SC_SB_RT1_>:
  40b180:	55                   	push   %rbp
  40b181:	48 89 e5             	mov    %rsp,%rbp
  40b184:	48 83 ec 30          	sub    $0x30,%rsp
  40b188:	48 89 7d f8          	mov    %rdi,-0x8(%rbp)
  40b18c:	48 89 75 f0          	mov    %rsi,-0x10(%rbp)
  40b190:	48 89 55 e8          	mov    %rdx,-0x18(%rbp)
  40b194:	48 89 4d e0          	mov    %rcx,-0x20(%rbp)
  40b198:	48 8b 7d f8          	mov    -0x8(%rbp),%rdi
  40b19c:	e8 bf 00 00 00       	callq  40b260 <_ZSt12__niter_baseIPSt6vectorINSt7__cxx1112basic_stringIcSt11char_traitsIcESaIcEEESaIS6_EEET_SA_>
  40b1a1:	48 8b 7d f0          	mov    -0x10(%rbp),%rdi
  40b1a5:	48 89 45 d8          	mov    %rax,-0x28(%rbp)
  40b1a9:	e8 b2 00 00 00       	callq  40b260 <_ZSt12__niter_baseIPSt6vectorINSt7__cxx1112basic_stringIcSt11char_traitsIcESaIcEEESaIS6_EEET_SA_>
  40b1ae:	48 8b 7d e8          	mov    -0x18(%rbp),%rdi
  40b1b2:	48 89 45 d0          	mov    %rax,-0x30(%rbp)
  40b1b6:	e8 a5 00 00 00       	callq  40b260 <_ZSt12__niter_baseIPSt6vectorINSt7__cxx1112basic_stringIcSt11char_traitsIcESaIcEEESaIS6_EEET_SA_>
  40b1bb:	48 8b 4d e0          	mov    -0x20(%rbp),%rcx
  40b1bf:	48 8b 7d d8          	mov    -0x28(%rbp),%rdi
  40b1c3:	48 8b 75 d0          	mov    -0x30(%rbp),%rsi
  40b1c7:	48 89 c2             	mov    %rax,%rdx
  40b1ca:	e8 11 00 00 00       	callq  40b1e0 <_ZSt14__relocate_a_1IPSt6vectorINSt7__cxx1112basic_stringIcSt11char_traitsIcESaIcEEESaIS6_EES9_SaIS8_EET0_T_SC_SB_RT1_>
  40b1cf:	48 83 c4 30          	add    $0x30,%rsp
  40b1d3:	5d                   	pop    %rbp
  40b1d4:	c3                   	retq   
  40b1d5:	66 2e 0f 1f 84 00 00 	nopw   %cs:0x0(%rax,%rax,1)
  40b1dc:	00 00 00 
  40b1df:	90                   	nop

000000000040b1e0 <_ZSt14__relocate_a_1IPSt6vectorINSt7__cxx1112basic_stringIcSt11char_traitsIcESaIcEEESaIS6_EES9_SaIS8_EET0_T_SC_SB_RT1_>:
  40b1e0:	55                   	push   %rbp
  40b1e1:	48 89 e5             	mov    %rsp,%rbp
  40b1e4:	48 83 ec 30          	sub    $0x30,%rsp
  40b1e8:	48 89 7d f8          	mov    %rdi,-0x8(%rbp)
  40b1ec:	48 89 75 f0          	mov    %rsi,-0x10(%rbp)
  40b1f0:	48 89 55 e8          	mov    %rdx,-0x18(%rbp)
  40b1f4:	48 89 4d e0          	mov    %rcx,-0x20(%rbp)
  40b1f8:	48 8b 45 e8          	mov    -0x18(%rbp),%rax
  40b1fc:	48 89 45 d8          	mov    %rax,-0x28(%rbp)
  40b200:	48 8b 45 f8          	mov    -0x8(%rbp),%rax
  40b204:	48 3b 45 f0          	cmp    -0x10(%rbp),%rax
  40b208:	0f 84 47 00 00 00    	je     40b255 <_ZSt14__relocate_a_1IPSt6vectorINSt7__cxx1112basic_stringIcSt11char_traitsIcESaIcEEESaIS6_EES9_SaIS8_EET0_T_SC_SB_RT1_+0x75>
  40b20e:	48 8b 7d d8          	mov    -0x28(%rbp),%rdi
  40b212:	e8 d9 8f ff ff       	callq  4041f0 <_ZSt11__addressofISt6vectorINSt7__cxx1112basic_stringIcSt11char_traitsIcESaIcEEESaIS6_EEEPT_RS9_>
  40b217:	48 8b 7d f8          	mov    -0x8(%rbp),%rdi
  40b21b:	48 89 45 d0          	mov    %rax,-0x30(%rbp)
  40b21f:	e8 cc 8f ff ff       	callq  4041f0 <_ZSt11__addressofISt6vectorINSt7__cxx1112basic_stringIcSt11char_traitsIcESaIcEEESaIS6_EEEPT_RS9_>
  40b224:	48 8b 55 e0          	mov    -0x20(%rbp),%rdx
  40b228:	48 8b 7d d0          	mov    -0x30(%rbp),%rdi
  40b22c:	48 89 c6             	mov    %rax,%rsi
  40b22f:	e8 3c 00 00 00       	callq  40b270 <_ZSt19__relocate_object_aISt6vectorINSt7__cxx1112basic_stringIcSt11char_traitsIcESaIcEEESaIS6_EES8_SaIS8_EEvPT_PT0_RT1_>
  40b234:	48 8b 45 f8          	mov    -0x8(%rbp),%rax
  40b238:	48 05 18 00 00 00    	add    $0x18,%rax
  40b23e:	48 89 45 f8          	mov    %rax,-0x8(%rbp)
  40b242:	48 8b 45 d8          	mov    -0x28(%rbp),%rax
  40b246:	48 05 18 00 00 00    	add    $0x18,%rax
  40b24c:	48 89 45 d8          	mov    %rax,-0x28(%rbp)
  40b250:	e9 ab ff ff ff       	jmpq   40b200 <_ZSt14__relocate_a_1IPSt6vectorINSt7__cxx1112basic_stringIcSt11char_traitsIcESaIcEEESaIS6_EES9_SaIS8_EET0_T_SC_SB_RT1_+0x20>
  40b255:	48 8b 45 d8          	mov    -0x28(%rbp),%rax
  40b259:	48 83 c4 30          	add    $0x30,%rsp
  40b25d:	5d                   	pop    %rbp
  40b25e:	c3                   	retq   
  40b25f:	90                   	nop

000000000040b260 <_ZSt12__niter_baseIPSt6vectorINSt7__cxx1112basic_stringIcSt11char_traitsIcESaIcEEESaIS6_EEET_SA_>:
  40b260:	55                   	push   %rbp
  40b261:	48 89 e5             	mov    %rsp,%rbp
  40b264:	48 89 7d f8          	mov    %rdi,-0x8(%rbp)
  40b268:	48 8b 45 f8          	mov    -0x8(%rbp),%rax
  40b26c:	5d                   	pop    %rbp
  40b26d:	c3                   	retq   
  40b26e:	66 90                	xchg   %ax,%ax

000000000040b270 <_ZSt19__relocate_object_aISt6vectorINSt7__cxx1112basic_stringIcSt11char_traitsIcESaIcEEESaIS6_EES8_SaIS8_EEvPT_PT0_RT1_>:
  40b270:	55                   	push   %rbp
  40b271:	48 89 e5             	mov    %rsp,%rbp
  40b274:	48 83 ec 30          	sub    $0x30,%rsp
  40b278:	48 89 7d f8          	mov    %rdi,-0x8(%rbp)
  40b27c:	48 89 75 f0          	mov    %rsi,-0x10(%rbp)
  40b280:	48 89 55 e8          	mov    %rdx,-0x18(%rbp)
  40b284:	48 8b 7d e8          	mov    -0x18(%rbp),%rdi
  40b288:	48 8b 75 f8          	mov    -0x8(%rbp),%rsi
  40b28c:	48 8b 45 f0          	mov    -0x10(%rbp),%rax
  40b290:	48 89 7d e0          	mov    %rdi,-0x20(%rbp)
  40b294:	48 89 c7             	mov    %rax,%rdi
  40b297:	48 89 75 d8          	mov    %rsi,-0x28(%rbp)
  40b29b:	e8 90 00 00 00       	callq  40b330 <_ZSt4moveIRSt6vectorINSt7__cxx1112basic_stringIcSt11char_traitsIcESaIcEEESaIS6_EEEONSt16remove_referenceIT_E4typeEOSB_>
  40b2a0:	48 8b 7d e0          	mov    -0x20(%rbp),%rdi
  40b2a4:	48 8b 75 d8          	mov    -0x28(%rbp),%rsi
  40b2a8:	48 89 c2             	mov    %rax,%rdx
  40b2ab:	e8 30 00 00 00       	callq  40b2e0 <_ZNSt16allocator_traitsISaISt6vectorINSt7__cxx1112basic_stringIcSt11char_traitsIcESaIcEEESaIS6_EEEE9constructIS8_JS8_EEEvRS9_PT_DpOT0_>
  40b2b0:	48 8b 7d e8          	mov    -0x18(%rbp),%rdi
  40b2b4:	48 8b 45 f0          	mov    -0x10(%rbp),%rax
  40b2b8:	48 89 7d d0          	mov    %rdi,-0x30(%rbp)
  40b2bc:	48 89 c7             	mov    %rax,%rdi
  40b2bf:	e8 2c 8f ff ff       	callq  4041f0 <_ZSt11__addressofISt6vectorINSt7__cxx1112basic_stringIcSt11char_traitsIcESaIcEEESaIS6_EEEPT_RS9_>
  40b2c4:	48 8b 7d d0          	mov    -0x30(%rbp),%rdi
  40b2c8:	48 89 c6             	mov    %rax,%rsi
  40b2cb:	e8 90 fc ff ff       	callq  40af60 <_ZNSt16allocator_traitsISaISt6vectorINSt7__cxx1112basic_stringIcSt11char_traitsIcESaIcEEESaIS6_EEEE7destroyIS8_EEvRS9_PT_>
  40b2d0:	48 83 c4 30          	add    $0x30,%rsp
  40b2d4:	5d                   	pop    %rbp
  40b2d5:	c3                   	retq   
  40b2d6:	66 2e 0f 1f 84 00 00 	nopw   %cs:0x0(%rax,%rax,1)
  40b2dd:	00 00 00 

000000000040b2e0 <_ZNSt16allocator_traitsISaISt6vectorINSt7__cxx1112basic_stringIcSt11char_traitsIcESaIcEEESaIS6_EEEE9constructIS8_JS8_EEEvRS9_PT_DpOT0_>:
  40b2e0:	55                   	push   %rbp
  40b2e1:	48 89 e5             	mov    %rsp,%rbp
  40b2e4:	48 83 ec 30          	sub    $0x30,%rsp
  40b2e8:	48 89 7d f8          	mov    %rdi,-0x8(%rbp)
  40b2ec:	48 89 75 f0          	mov    %rsi,-0x10(%rbp)
  40b2f0:	48 89 55 e8          	mov    %rdx,-0x18(%rbp)
  40b2f4:	48 8b 45 f8          	mov    -0x8(%rbp),%rax
  40b2f8:	48 8b 75 f0          	mov    -0x10(%rbp),%rsi
  40b2fc:	48 8b 7d e8          	mov    -0x18(%rbp),%rdi
  40b300:	48 89 45 e0          	mov    %rax,-0x20(%rbp)
  40b304:	48 89 75 d8          	mov    %rsi,-0x28(%rbp)
  40b308:	e8 73 00 00 00       	callq  40b380 <_ZSt7forwardISt6vectorINSt7__cxx1112basic_stringIcSt11char_traitsIcESaIcEEESaIS6_EEEOT_RNSt16remove_referenceIS9_E4typeE>
  40b30d:	48 8b 7d e0          	mov    -0x20(%rbp),%rdi
  40b311:	48 8b 75 d8          	mov    -0x28(%rbp),%rsi
  40b315:	48 89 c2             	mov    %rax,%rdx
  40b318:	e8 23 00 00 00       	callq  40b340 <_ZN9__gnu_cxx13new_allocatorISt6vectorINSt7__cxx1112basic_stringIcSt11char_traitsIcESaIcEEESaIS7_EEE9constructIS9_JS9_EEEvPT_DpOT0_>
  40b31d:	48 83 c4 30          	add    $0x30,%rsp
  40b321:	5d                   	pop    %rbp
  40b322:	c3                   	retq   
  40b323:	66 2e 0f 1f 84 00 00 	nopw   %cs:0x0(%rax,%rax,1)
  40b32a:	00 00 00 
  40b32d:	0f 1f 00             	nopl   (%rax)

000000000040b330 <_ZSt4moveIRSt6vectorINSt7__cxx1112basic_stringIcSt11char_traitsIcESaIcEEESaIS6_EEEONSt16remove_referenceIT_E4typeEOSB_>:
  40b330:	55                   	push   %rbp
  40b331:	48 89 e5             	mov    %rsp,%rbp
  40b334:	48 89 7d f8          	mov    %rdi,-0x8(%rbp)
  40b338:	48 8b 45 f8          	mov    -0x8(%rbp),%rax
  40b33c:	5d                   	pop    %rbp
  40b33d:	c3                   	retq   
  40b33e:	66 90                	xchg   %ax,%ax

000000000040b340 <_ZN9__gnu_cxx13new_allocatorISt6vectorINSt7__cxx1112basic_stringIcSt11char_traitsIcESaIcEEESaIS7_EEE9constructIS9_JS9_EEEvPT_DpOT0_>:
  40b340:	55                   	push   %rbp
  40b341:	48 89 e5             	mov    %rsp,%rbp
  40b344:	48 83 ec 20          	sub    $0x20,%rsp
  40b348:	48 89 7d f8          	mov    %rdi,-0x8(%rbp)
  40b34c:	48 89 75 f0          	mov    %rsi,-0x10(%rbp)
  40b350:	48 89 55 e8          	mov    %rdx,-0x18(%rbp)
  40b354:	48 8b 45 f0          	mov    -0x10(%rbp),%rax
  40b358:	48 8b 7d e8          	mov    -0x18(%rbp),%rdi
  40b35c:	48 89 45 e0          	mov    %rax,-0x20(%rbp)
  40b360:	e8 1b 00 00 00       	callq  40b380 <_ZSt7forwardISt6vectorINSt7__cxx1112basic_stringIcSt11char_traitsIcESaIcEEESaIS6_EEEOT_RNSt16remove_referenceIS9_E4typeE>
  40b365:	48 8b 7d e0          	mov    -0x20(%rbp),%rdi
  40b369:	48 89 c6             	mov    %rax,%rsi
  40b36c:	e8 1f 00 00 00       	callq  40b390 <_ZNSt6vectorINSt7__cxx1112basic_stringIcSt11char_traitsIcESaIcEEESaIS5_EEC2EOS7_>
  40b371:	48 83 c4 20          	add    $0x20,%rsp
  40b375:	5d                   	pop    %rbp
  40b376:	c3                   	retq   
  40b377:	66 0f 1f 84 00 00 00 	nopw   0x0(%rax,%rax,1)
  40b37e:	00 00 

000000000040b380 <_ZSt7forwardISt6vectorINSt7__cxx1112basic_stringIcSt11char_traitsIcESaIcEEESaIS6_EEEOT_RNSt16remove_referenceIS9_E4typeE>:
  40b380:	55                   	push   %rbp
  40b381:	48 89 e5             	mov    %rsp,%rbp
  40b384:	48 89 7d f8          	mov    %rdi,-0x8(%rbp)
  40b388:	48 8b 45 f8          	mov    -0x8(%rbp),%rax
  40b38c:	5d                   	pop    %rbp
  40b38d:	c3                   	retq   
  40b38e:	66 90                	xchg   %ax,%ax

000000000040b390 <_ZNSt6vectorINSt7__cxx1112basic_stringIcSt11char_traitsIcESaIcEEESaIS5_EEC2EOS7_>:
  40b390:	55                   	push   %rbp
  40b391:	48 89 e5             	mov    %rsp,%rbp
  40b394:	48 83 ec 10          	sub    $0x10,%rsp
  40b398:	48 89 7d f8          	mov    %rdi,-0x8(%rbp)
  40b39c:	48 89 75 f0          	mov    %rsi,-0x10(%rbp)
  40b3a0:	48 8b 45 f8          	mov    -0x8(%rbp),%rax
  40b3a4:	48 8b 4d f0          	mov    -0x10(%rbp),%rcx
  40b3a8:	48 89 c7             	mov    %rax,%rdi
  40b3ab:	48 89 ce             	mov    %rcx,%rsi
  40b3ae:	e8 0d 00 00 00       	callq  40b3c0 <_ZNSt12_Vector_baseINSt7__cxx1112basic_stringIcSt11char_traitsIcESaIcEEESaIS5_EEC2EOS7_>
  40b3b3:	48 83 c4 10          	add    $0x10,%rsp
  40b3b7:	5d                   	pop    %rbp
  40b3b8:	c3                   	retq   
  40b3b9:	0f 1f 80 00 00 00 00 	nopl   0x0(%rax)

000000000040b3c0 <_ZNSt12_Vector_baseINSt7__cxx1112basic_stringIcSt11char_traitsIcESaIcEEESaIS5_EEC2EOS7_>:
  40b3c0:	55                   	push   %rbp
  40b3c1:	48 89 e5             	mov    %rsp,%rbp
  40b3c4:	48 83 ec 10          	sub    $0x10,%rsp
  40b3c8:	48 89 7d f8          	mov    %rdi,-0x8(%rbp)
  40b3cc:	48 89 75 f0          	mov    %rsi,-0x10(%rbp)
  40b3d0:	48 8b 7d f8          	mov    -0x8(%rbp),%rdi
  40b3d4:	48 8b 75 f0          	mov    -0x10(%rbp),%rsi
  40b3d8:	e8 13 00 00 00       	callq  40b3f0 <_ZNSt12_Vector_baseINSt7__cxx1112basic_stringIcSt11char_traitsIcESaIcEEESaIS5_EE12_Vector_implC2EOS8_>
  40b3dd:	48 83 c4 10          	add    $0x10,%rsp
  40b3e1:	5d                   	pop    %rbp
  40b3e2:	c3                   	retq   
  40b3e3:	66 2e 0f 1f 84 00 00 	nopw   %cs:0x0(%rax,%rax,1)
  40b3ea:	00 00 00 
  40b3ed:	0f 1f 00             	nopl   (%rax)

000000000040b3f0 <_ZNSt12_Vector_baseINSt7__cxx1112basic_stringIcSt11char_traitsIcESaIcEEESaIS5_EE12_Vector_implC2EOS8_>:
  40b3f0:	55                   	push   %rbp
  40b3f1:	48 89 e5             	mov    %rsp,%rbp
  40b3f4:	48 83 ec 30          	sub    $0x30,%rsp
  40b3f8:	48 89 7d f8          	mov    %rdi,-0x8(%rbp)
  40b3fc:	48 89 75 f0          	mov    %rsi,-0x10(%rbp)
  40b400:	48 8b 45 f8          	mov    -0x8(%rbp),%rax
  40b404:	48 89 c1             	mov    %rax,%rcx
  40b407:	48 8b 7d f0          	mov    -0x10(%rbp),%rdi
  40b40b:	48 89 45 e8          	mov    %rax,-0x18(%rbp)
  40b40f:	48 89 4d e0          	mov    %rcx,-0x20(%rbp)
  40b413:	e8 38 00 00 00       	callq  40b450 <_ZSt4moveIRNSt12_Vector_baseINSt7__cxx1112basic_stringIcSt11char_traitsIcESaIcEEESaIS6_EE12_Vector_implEEONSt16remove_referenceIT_E4typeEOSC_>
  40b418:	48 8b 7d e0          	mov    -0x20(%rbp),%rdi
  40b41c:	48 89 c6             	mov    %rax,%rsi
  40b41f:	e8 7c f6 ff ff       	callq  40aaa0 <_ZNSaINSt7__cxx1112basic_stringIcSt11char_traitsIcESaIcEEEEC2ERKS5_>
  40b424:	48 8b 45 e8          	mov    -0x18(%rbp),%rax
  40b428:	48 8b 7d f0          	mov    -0x10(%rbp),%rdi
  40b42c:	48 89 45 d8          	mov    %rax,-0x28(%rbp)
  40b430:	e8 1b 00 00 00       	callq  40b450 <_ZSt4moveIRNSt12_Vector_baseINSt7__cxx1112basic_stringIcSt11char_traitsIcESaIcEEESaIS6_EE12_Vector_implEEONSt16remove_referenceIT_E4typeEOSC_>
  40b435:	48 8b 7d d8          	mov    -0x28(%rbp),%rdi
  40b439:	48 89 c6             	mov    %rax,%rsi
  40b43c:	e8 1f 00 00 00       	callq  40b460 <_ZNSt12_Vector_baseINSt7__cxx1112basic_stringIcSt11char_traitsIcESaIcEEESaIS5_EE17_Vector_impl_dataC2EOS8_>
  40b441:	48 83 c4 30          	add    $0x30,%rsp
  40b445:	5d                   	pop    %rbp
  40b446:	c3                   	retq   
  40b447:	66 0f 1f 84 00 00 00 	nopw   0x0(%rax,%rax,1)
  40b44e:	00 00 

000000000040b450 <_ZSt4moveIRNSt12_Vector_baseINSt7__cxx1112basic_stringIcSt11char_traitsIcESaIcEEESaIS6_EE12_Vector_implEEONSt16remove_referenceIT_E4typeEOSC_>:
  40b450:	55                   	push   %rbp
  40b451:	48 89 e5             	mov    %rsp,%rbp
  40b454:	48 89 7d f8          	mov    %rdi,-0x8(%rbp)
  40b458:	48 8b 45 f8          	mov    -0x8(%rbp),%rax
  40b45c:	5d                   	pop    %rbp
  40b45d:	c3                   	retq   
  40b45e:	66 90                	xchg   %ax,%ax

000000000040b460 <_ZNSt12_Vector_baseINSt7__cxx1112basic_stringIcSt11char_traitsIcESaIcEEESaIS5_EE17_Vector_impl_dataC2EOS8_>:
  40b460:	55                   	push   %rbp
  40b461:	48 89 e5             	mov    %rsp,%rbp
  40b464:	48 89 7d f8          	mov    %rdi,-0x8(%rbp)
  40b468:	48 89 75 f0          	mov    %rsi,-0x10(%rbp)
  40b46c:	48 8b 45 f8          	mov    -0x8(%rbp),%rax
  40b470:	48 8b 4d f0          	mov    -0x10(%rbp),%rcx
  40b474:	48 8b 09             	mov    (%rcx),%rcx
  40b477:	48 89 08             	mov    %rcx,(%rax)
  40b47a:	48 8b 4d f0          	mov    -0x10(%rbp),%rcx
  40b47e:	48 8b 49 08          	mov    0x8(%rcx),%rcx
  40b482:	48 89 48 08          	mov    %rcx,0x8(%rax)
  40b486:	48 8b 4d f0          	mov    -0x10(%rbp),%rcx
  40b48a:	48 8b 49 10          	mov    0x10(%rcx),%rcx
  40b48e:	48 89 48 10          	mov    %rcx,0x10(%rax)
  40b492:	48 8b 45 f0          	mov    -0x10(%rbp),%rax
  40b496:	48 c7 40 10 00 00 00 	movq   $0x0,0x10(%rax)
  40b49d:	00 
  40b49e:	48 8b 45 f0          	mov    -0x10(%rbp),%rax
  40b4a2:	48 c7 40 08 00 00 00 	movq   $0x0,0x8(%rax)
  40b4a9:	00 
  40b4aa:	48 8b 45 f0          	mov    -0x10(%rbp),%rax
  40b4ae:	48 c7 00 00 00 00 00 	movq   $0x0,(%rax)
  40b4b5:	5d                   	pop    %rbp
  40b4b6:	c3                   	retq   
  40b4b7:	66 0f 1f 84 00 00 00 	nopw   0x0(%rax,%rax,1)
  40b4be:	00 00 

000000000040b4c0 <_ZN9__gnu_cxx13new_allocatorISt6vectorINSt7__cxx1112basic_stringIcSt11char_traitsIcESaIcEEESaIS7_EEE7destroyIS9_EEvPT_>:
  40b4c0:	55                   	push   %rbp
  40b4c1:	48 89 e5             	mov    %rsp,%rbp
  40b4c4:	48 83 ec 10          	sub    $0x10,%rsp
  40b4c8:	48 89 7d f8          	mov    %rdi,-0x8(%rbp)
  40b4cc:	48 89 75 f0          	mov    %rsi,-0x10(%rbp)
  40b4d0:	48 8b 7d f0          	mov    -0x10(%rbp),%rdi
  40b4d4:	e8 67 87 ff ff       	callq  403c40 <_ZNSt6vectorINSt7__cxx1112basic_stringIcSt11char_traitsIcESaIcEEESaIS5_EED2Ev>
  40b4d9:	48 83 c4 10          	add    $0x10,%rsp
  40b4dd:	5d                   	pop    %rbp
  40b4de:	c3                   	retq   
  40b4df:	90                   	nop

000000000040b4e0 <_ZN5Eigen15PlainObjectBaseINS_6MatrixIdLin1ELin1ELi0ELin1ELin1EEEEC2Ev>:
  40b4e0:	55                   	push   %rbp
  40b4e1:	48 89 e5             	mov    %rsp,%rbp
  40b4e4:	48 83 ec 10          	sub    $0x10,%rsp
  40b4e8:	48 89 7d f8          	mov    %rdi,-0x8(%rbp)
  40b4ec:	48 8b 45 f8          	mov    -0x8(%rbp),%rax
  40b4f0:	48 89 c1             	mov    %rax,%rcx
  40b4f3:	48 89 cf             	mov    %rcx,%rdi
  40b4f6:	48 89 45 f0          	mov    %rax,-0x10(%rbp)
  40b4fa:	e8 61 00 00 00       	callq  40b560 <_ZN5Eigen10MatrixBaseINS_6MatrixIdLin1ELin1ELi0ELin1ELin1EEEEC2Ev>
  40b4ff:	48 8b 7d f0          	mov    -0x10(%rbp),%rdi
  40b503:	e8 78 00 00 00       	callq  40b580 <_ZN5Eigen12DenseStorageIdLin1ELin1ELin1ELi0EEC2Ev>
  40b508:	48 83 c4 10          	add    $0x10,%rsp
  40b50c:	5d                   	pop    %rbp
  40b50d:	c3                   	retq   
  40b50e:	66 90                	xchg   %ax,%ax

000000000040b510 <_ZN5Eigen15PlainObjectBaseINS_6MatrixIdLin1ELin1ELi0ELin1ELin1EEEE22_check_template_paramsEv>:
  40b510:	55                   	push   %rbp
  40b511:	48 89 e5             	mov    %rsp,%rbp
  40b514:	5d                   	pop    %rbp
  40b515:	c3                   	retq   
  40b516:	66 2e 0f 1f 84 00 00 	nopw   %cs:0x0(%rax,%rax,1)
  40b51d:	00 00 00 

000000000040b520 <_ZN5Eigen15PlainObjectBaseINS_6MatrixIdLin1ELin1ELi0ELin1ELin1EEEE6_init2IiiEEvllPNS_8internal9enable_ifILb1ET_E4typeE>:
  40b520:	55                   	push   %rbp
  40b521:	48 89 e5             	mov    %rsp,%rbp
  40b524:	48 83 ec 30          	sub    $0x30,%rsp
  40b528:	48 89 7d f8          	mov    %rdi,-0x8(%rbp)
  40b52c:	48 89 75 f0          	mov    %rsi,-0x10(%rbp)
  40b530:	48 89 55 e8          	mov    %rdx,-0x18(%rbp)
  40b534:	48 89 4d e0          	mov    %rcx,-0x20(%rbp)
  40b538:	48 8b 7d f8          	mov    -0x8(%rbp),%rdi
  40b53c:	c6 45 df 01          	movb   $0x1,-0x21(%rbp)
  40b540:	c6 45 de 01          	movb   $0x1,-0x22(%rbp)
  40b544:	48 8b 75 f0          	mov    -0x10(%rbp),%rsi
  40b548:	48 8b 55 e8          	mov    -0x18(%rbp),%rdx
  40b54c:	e8 6f 00 00 00       	callq  40b5c0 <_ZN5Eigen15PlainObjectBaseINS_6MatrixIdLin1ELin1ELi0ELin1ELin1EEEE6resizeEll>
  40b551:	48 83 c4 30          	add    $0x30,%rsp
  40b555:	5d                   	pop    %rbp
  40b556:	c3                   	retq   
  40b557:	66 0f 1f 84 00 00 00 	nopw   0x0(%rax,%rax,1)
  40b55e:	00 00 

000000000040b560 <_ZN5Eigen10MatrixBaseINS_6MatrixIdLin1ELin1ELi0ELin1ELin1EEEEC2Ev>:
  40b560:	55                   	push   %rbp
  40b561:	48 89 e5             	mov    %rsp,%rbp
  40b564:	48 83 ec 10          	sub    $0x10,%rsp
  40b568:	48 89 7d f8          	mov    %rdi,-0x8(%rbp)
  40b56c:	48 8b 45 f8          	mov    -0x8(%rbp),%rax
  40b570:	48 89 c7             	mov    %rax,%rdi
  40b573:	e8 38 00 00 00       	callq  40b5b0 <_ZN5Eigen9DenseBaseINS_6MatrixIdLin1ELin1ELi0ELin1ELin1EEEEC2Ev>
  40b578:	48 83 c4 10          	add    $0x10,%rsp
  40b57c:	5d                   	pop    %rbp
  40b57d:	c3                   	retq   
  40b57e:	66 90                	xchg   %ax,%ax

000000000040b580 <_ZN5Eigen12DenseStorageIdLin1ELin1ELin1ELi0EEC2Ev>:
  40b580:	55                   	push   %rbp
  40b581:	48 89 e5             	mov    %rsp,%rbp
  40b584:	48 89 7d f8          	mov    %rdi,-0x8(%rbp)
  40b588:	48 8b 45 f8          	mov    -0x8(%rbp),%rax
  40b58c:	48 c7 00 00 00 00 00 	movq   $0x0,(%rax)
  40b593:	48 c7 40 08 00 00 00 	movq   $0x0,0x8(%rax)
  40b59a:	00 
  40b59b:	48 c7 40 10 00 00 00 	movq   $0x0,0x10(%rax)
  40b5a2:	00 
  40b5a3:	5d                   	pop    %rbp
  40b5a4:	c3                   	retq   
  40b5a5:	66 2e 0f 1f 84 00 00 	nopw   %cs:0x0(%rax,%rax,1)
  40b5ac:	00 00 00 
  40b5af:	90                   	nop

000000000040b5b0 <_ZN5Eigen9DenseBaseINS_6MatrixIdLin1ELin1ELi0ELin1ELin1EEEEC2Ev>:
  40b5b0:	55                   	push   %rbp
  40b5b1:	48 89 e5             	mov    %rsp,%rbp
  40b5b4:	48 89 7d f8          	mov    %rdi,-0x8(%rbp)
  40b5b8:	5d                   	pop    %rbp
  40b5b9:	c3                   	retq   
  40b5ba:	66 0f 1f 44 00 00    	nopw   0x0(%rax,%rax,1)

000000000040b5c0 <_ZN5Eigen15PlainObjectBaseINS_6MatrixIdLin1ELin1ELi0ELin1ELin1EEEE6resizeEll>:
  40b5c0:	55                   	push   %rbp
  40b5c1:	48 89 e5             	mov    %rsp,%rbp
  40b5c4:	48 83 ec 50          	sub    $0x50,%rsp
  40b5c8:	48 89 7d d8          	mov    %rdi,-0x28(%rbp)
  40b5cc:	48 89 75 d0          	mov    %rsi,-0x30(%rbp)
  40b5d0:	48 89 55 c8          	mov    %rdx,-0x38(%rbp)
  40b5d4:	48 8b 7d d8          	mov    -0x28(%rbp),%rdi
  40b5d8:	48 8b 45 d0          	mov    -0x30(%rbp),%rax
  40b5dc:	48 8b 4d c8          	mov    -0x38(%rbp),%rcx
  40b5e0:	48 89 45 f8          	mov    %rax,-0x8(%rbp)
  40b5e4:	48 89 4d f0          	mov    %rcx,-0x10(%rbp)
  40b5e8:	48 b8 ff ff ff ff ff 	movabs $0x7fffffffffffffff,%rax
  40b5ef:	ff ff 7f 
  40b5f2:	48 89 45 e8          	mov    %rax,-0x18(%rbp)
  40b5f6:	48 83 7d f8 00       	cmpq   $0x0,-0x8(%rbp)
  40b5fb:	48 89 7d c0          	mov    %rdi,-0x40(%rbp)
  40b5ff:	0f 84 0b 00 00 00    	je     40b610 <_ZN5Eigen15PlainObjectBaseINS_6MatrixIdLin1ELin1ELi0ELin1ELin1EEEE6resizeEll+0x50>
  40b605:	48 83 7d f0 00       	cmpq   $0x0,-0x10(%rbp)
  40b60a:	0f 85 0a 00 00 00    	jne    40b61a <_ZN5Eigen15PlainObjectBaseINS_6MatrixIdLin1ELin1ELi0ELin1ELin1EEEE6resizeEll+0x5a>
  40b610:	31 c0                	xor    %eax,%eax
  40b612:	88 45 bf             	mov    %al,-0x41(%rbp)
  40b615:	e9 24 00 00 00       	jmpq   40b63e <_ZN5Eigen15PlainObjectBaseINS_6MatrixIdLin1ELin1ELi0ELin1ELin1EEEE6resizeEll+0x7e>
  40b61a:	48 8b 45 f8          	mov    -0x8(%rbp),%rax
  40b61e:	48 8b 4d e8          	mov    -0x18(%rbp),%rcx
  40b622:	48 89 45 b0          	mov    %rax,-0x50(%rbp)
  40b626:	48 89 c8             	mov    %rcx,%rax
  40b629:	48 99                	cqto   
  40b62b:	48 f7 7d f0          	idivq  -0x10(%rbp)
  40b62f:	48 8b 4d b0          	mov    -0x50(%rbp),%rcx
  40b633:	48 39 c1             	cmp    %rax,%rcx
  40b636:	40 0f 9f c6          	setg   %sil
  40b63a:	40 88 75 bf          	mov    %sil,-0x41(%rbp)
  40b63e:	8a 45 bf             	mov    -0x41(%rbp),%al
  40b641:	24 01                	and    $0x1,%al
  40b643:	88 45 e7             	mov    %al,-0x19(%rbp)
  40b646:	f6 45 e7 01          	testb  $0x1,-0x19(%rbp)
  40b64a:	0f 84 05 00 00 00    	je     40b655 <_ZN5Eigen15PlainObjectBaseINS_6MatrixIdLin1ELin1ELi0ELin1ELin1EEEE6resizeEll+0x95>
  40b650:	e8 cb 00 00 00       	callq  40b720 <_ZN5Eigen8internal19throw_std_bad_allocEv>
  40b655:	48 8b 45 d0          	mov    -0x30(%rbp),%rax
  40b659:	48 0f af 45 c8       	imul   -0x38(%rbp),%rax
  40b65e:	48 8b 55 d0          	mov    -0x30(%rbp),%rdx
  40b662:	48 8b 4d c8          	mov    -0x38(%rbp),%rcx
  40b666:	48 8b 7d c0          	mov    -0x40(%rbp),%rdi
  40b66a:	48 89 c6             	mov    %rax,%rsi
  40b66d:	e8 0e 00 00 00       	callq  40b680 <_ZN5Eigen12DenseStorageIdLin1ELin1ELin1ELi0EE6resizeElll>
  40b672:	48 83 c4 50          	add    $0x50,%rsp
  40b676:	5d                   	pop    %rbp
  40b677:	c3                   	retq   
  40b678:	0f 1f 84 00 00 00 00 	nopl   0x0(%rax,%rax,1)
  40b67f:	00 

000000000040b680 <_ZN5Eigen12DenseStorageIdLin1ELin1ELin1ELi0EE6resizeElll>:
  40b680:	55                   	push   %rbp
  40b681:	48 89 e5             	mov    %rsp,%rbp
  40b684:	48 83 ec 30          	sub    $0x30,%rsp
  40b688:	48 89 7d f8          	mov    %rdi,-0x8(%rbp)
  40b68c:	48 89 75 f0          	mov    %rsi,-0x10(%rbp)
  40b690:	48 89 55 e8          	mov    %rdx,-0x18(%rbp)
  40b694:	48 89 4d e0          	mov    %rcx,-0x20(%rbp)
  40b698:	48 8b 45 f8          	mov    -0x8(%rbp),%rax
  40b69c:	48 8b 4d f0          	mov    -0x10(%rbp),%rcx
  40b6a0:	48 8b 50 08          	mov    0x8(%rax),%rdx
  40b6a4:	48 0f af 50 10       	imul   0x10(%rax),%rdx
  40b6a9:	48 39 d1             	cmp    %rdx,%rcx
  40b6ac:	48 89 45 d8          	mov    %rax,-0x28(%rbp)
  40b6b0:	0f 84 48 00 00 00    	je     40b6fe <_ZN5Eigen12DenseStorageIdLin1ELin1ELin1ELi0EE6resizeElll+0x7e>
  40b6b6:	48 8b 45 d8          	mov    -0x28(%rbp),%rax
  40b6ba:	48 8b 38             	mov    (%rax),%rdi
  40b6bd:	48 8b 48 08          	mov    0x8(%rax),%rcx
  40b6c1:	48 0f af 48 10       	imul   0x10(%rax),%rcx
  40b6c6:	48 89 ce             	mov    %rcx,%rsi
  40b6c9:	e8 52 89 ff ff       	callq  404020 <_ZN5Eigen8internal31conditional_aligned_delete_autoIdLb1EEEvPT_m>
  40b6ce:	48 83 7d f0 00       	cmpq   $0x0,-0x10(%rbp)
  40b6d3:	0f 8e 15 00 00 00    	jle    40b6ee <_ZN5Eigen12DenseStorageIdLin1ELin1ELin1ELi0EE6resizeElll+0x6e>
  40b6d9:	48 8b 7d f0          	mov    -0x10(%rbp),%rdi
  40b6dd:	e8 fe 00 00 00       	callq  40b7e0 <_ZN5Eigen8internal28conditional_aligned_new_autoIdLb1EEEPT_m>
  40b6e2:	48 8b 4d d8          	mov    -0x28(%rbp),%rcx
  40b6e6:	48 89 01             	mov    %rax,(%rcx)
  40b6e9:	e9 0b 00 00 00       	jmpq   40b6f9 <_ZN5Eigen12DenseStorageIdLin1ELin1ELin1ELi0EE6resizeElll+0x79>
  40b6ee:	48 8b 45 d8          	mov    -0x28(%rbp),%rax
  40b6f2:	48 c7 00 00 00 00 00 	movq   $0x0,(%rax)
  40b6f9:	e9 00 00 00 00       	jmpq   40b6fe <_ZN5Eigen12DenseStorageIdLin1ELin1ELin1ELi0EE6resizeElll+0x7e>
  40b6fe:	48 8b 45 e8          	mov    -0x18(%rbp),%rax
  40b702:	48 8b 4d d8          	mov    -0x28(%rbp),%rcx
  40b706:	48 89 41 08          	mov    %rax,0x8(%rcx)
  40b70a:	48 8b 45 e0          	mov    -0x20(%rbp),%rax
  40b70e:	48 89 41 10          	mov    %rax,0x10(%rcx)
  40b712:	48 83 c4 30          	add    $0x30,%rsp
  40b716:	5d                   	pop    %rbp
  40b717:	c3                   	retq   
  40b718:	0f 1f 84 00 00 00 00 	nopl   0x0(%rax,%rax,1)
  40b71f:	00 

000000000040b720 <_ZN5Eigen8internal19throw_std_bad_allocEv>:
  40b720:	55                   	push   %rbp
  40b721:	48 89 e5             	mov    %rsp,%rbp
  40b724:	48 83 ec 10          	sub    $0x10,%rsp
  40b728:	bf 08 00 00 00       	mov    $0x8,%edi
  40b72d:	e8 ce 79 ff ff       	callq  403100 <__cxa_allocate_exception@plt>
  40b732:	48 89 c1             	mov    %rax,%rcx
  40b735:	48 89 cf             	mov    %rcx,%rdi
  40b738:	48 89 45 f8          	mov    %rax,-0x8(%rbp)
  40b73c:	e8 2f 00 00 00       	callq  40b770 <_ZNSt9bad_allocC2Ev>
  40b741:	48 b8 e0 5c 41 00 00 	movabs $0x415ce0,%rax
  40b748:	00 00 00 
  40b74b:	48 b9 60 31 40 00 00 	movabs $0x403160,%rcx
  40b752:	00 00 00 
  40b755:	48 8b 7d f8          	mov    -0x8(%rbp),%rdi
  40b759:	48 89 c6             	mov    %rax,%rsi
  40b75c:	48 89 ca             	mov    %rcx,%rdx
  40b75f:	e8 6c 7c ff ff       	callq  4033d0 <__cxa_throw@plt>
  40b764:	66 2e 0f 1f 84 00 00 	nopw   %cs:0x0(%rax,%rax,1)
  40b76b:	00 00 00 
  40b76e:	66 90                	xchg   %ax,%ax

000000000040b770 <_ZNSt9bad_allocC2Ev>:
  40b770:	55                   	push   %rbp
  40b771:	48 89 e5             	mov    %rsp,%rbp
  40b774:	48 83 ec 10          	sub    $0x10,%rsp
  40b778:	48 89 7d f8          	mov    %rdi,-0x8(%rbp)
  40b77c:	48 8b 45 f8          	mov    -0x8(%rbp),%rax
  40b780:	48 89 c1             	mov    %rax,%rcx
  40b783:	48 89 cf             	mov    %rcx,%rdi
  40b786:	48 89 45 f0          	mov    %rax,-0x10(%rbp)
  40b78a:	e8 21 00 00 00       	callq  40b7b0 <_ZNSt9exceptionC2Ev>
  40b78f:	48 b8 78 5c 41 00 00 	movabs $0x415c78,%rax
  40b796:	00 00 00 
  40b799:	48 05 10 00 00 00    	add    $0x10,%rax
  40b79f:	48 8b 4d f0          	mov    -0x10(%rbp),%rcx
  40b7a3:	48 89 01             	mov    %rax,(%rcx)
  40b7a6:	48 83 c4 10          	add    $0x10,%rsp
  40b7aa:	5d                   	pop    %rbp
  40b7ab:	c3                   	retq   
  40b7ac:	0f 1f 40 00          	nopl   0x0(%rax)

000000000040b7b0 <_ZNSt9exceptionC2Ev>:
  40b7b0:	55                   	push   %rbp
  40b7b1:	48 89 e5             	mov    %rsp,%rbp
  40b7b4:	48 b8 a0 5c 41 00 00 	movabs $0x415ca0,%rax
  40b7bb:	00 00 00 
  40b7be:	48 05 10 00 00 00    	add    $0x10,%rax
  40b7c4:	48 89 7d f8          	mov    %rdi,-0x8(%rbp)
  40b7c8:	48 8b 4d f8          	mov    -0x8(%rbp),%rcx
  40b7cc:	48 89 01             	mov    %rax,(%rcx)
  40b7cf:	5d                   	pop    %rbp
  40b7d0:	c3                   	retq   
  40b7d1:	66 2e 0f 1f 84 00 00 	nopw   %cs:0x0(%rax,%rax,1)
  40b7d8:	00 00 00 
  40b7db:	0f 1f 44 00 00       	nopl   0x0(%rax,%rax,1)

000000000040b7e0 <_ZN5Eigen8internal28conditional_aligned_new_autoIdLb1EEEPT_m>:
  40b7e0:	55                   	push   %rbp
  40b7e1:	48 89 e5             	mov    %rsp,%rbp
  40b7e4:	48 83 ec 20          	sub    $0x20,%rsp
  40b7e8:	48 89 7d e8          	mov    %rdi,-0x18(%rbp)
  40b7ec:	48 83 7d e8 00       	cmpq   $0x0,-0x18(%rbp)
  40b7f1:	0f 85 0d 00 00 00    	jne    40b804 <_ZN5Eigen8internal28conditional_aligned_new_autoIdLb1EEEPT_m+0x24>
  40b7f7:	48 c7 45 f0 00 00 00 	movq   $0x0,-0x10(%rbp)
  40b7fe:	00 
  40b7ff:	e9 3d 00 00 00       	jmpq   40b841 <_ZN5Eigen8internal28conditional_aligned_new_autoIdLb1EEEPT_m+0x61>
  40b804:	48 8b 45 e8          	mov    -0x18(%rbp),%rax
  40b808:	48 89 45 f8          	mov    %rax,-0x8(%rbp)
  40b80c:	48 b8 ff ff ff ff ff 	movabs $0x1fffffffffffffff,%rax
  40b813:	ff ff 1f 
  40b816:	48 39 45 f8          	cmp    %rax,-0x8(%rbp)
  40b81a:	0f 86 05 00 00 00    	jbe    40b825 <_ZN5Eigen8internal28conditional_aligned_new_autoIdLb1EEEPT_m+0x45>
  40b820:	e8 fb fe ff ff       	callq  40b720 <_ZN5Eigen8internal19throw_std_bad_allocEv>
  40b825:	48 8b 45 e8          	mov    -0x18(%rbp),%rax
  40b829:	48 c1 e0 03          	shl    $0x3,%rax
  40b82d:	48 89 c7             	mov    %rax,%rdi
  40b830:	e8 1b 00 00 00       	callq  40b850 <_ZN5Eigen8internal26conditional_aligned_mallocILb1EEEPvm>
  40b835:	48 89 45 e0          	mov    %rax,-0x20(%rbp)
  40b839:	48 8b 45 e0          	mov    -0x20(%rbp),%rax
  40b83d:	48 89 45 f0          	mov    %rax,-0x10(%rbp)
  40b841:	48 8b 45 f0          	mov    -0x10(%rbp),%rax
  40b845:	48 83 c4 20          	add    $0x20,%rsp
  40b849:	5d                   	pop    %rbp
  40b84a:	c3                   	retq   
  40b84b:	0f 1f 44 00 00       	nopl   0x0(%rax,%rax,1)

000000000040b850 <_ZN5Eigen8internal26conditional_aligned_mallocILb1EEEPvm>:
  40b850:	55                   	push   %rbp
  40b851:	48 89 e5             	mov    %rsp,%rbp
  40b854:	48 83 ec 10          	sub    $0x10,%rsp
  40b858:	48 89 7d f8          	mov    %rdi,-0x8(%rbp)
  40b85c:	48 8b 7d f8          	mov    -0x8(%rbp),%rdi
  40b860:	e8 0b 00 00 00       	callq  40b870 <_ZN5Eigen8internal14aligned_mallocEm>
  40b865:	48 83 c4 10          	add    $0x10,%rsp
  40b869:	5d                   	pop    %rbp
  40b86a:	c3                   	retq   
  40b86b:	0f 1f 44 00 00       	nopl   0x0(%rax,%rax,1)

000000000040b870 <_ZN5Eigen8internal14aligned_mallocEm>:
  40b870:	55                   	push   %rbp
  40b871:	48 89 e5             	mov    %rsp,%rbp
  40b874:	48 83 ec 10          	sub    $0x10,%rsp
  40b878:	48 89 7d f8          	mov    %rdi,-0x8(%rbp)
  40b87c:	e8 3f 00 00 00       	callq  40b8c0 <_ZN5Eigen8internal28check_that_malloc_is_allowedEv>
  40b881:	48 8b 7d f8          	mov    -0x8(%rbp),%rdi
  40b885:	e8 96 7a ff ff       	callq  403320 <malloc@plt>
  40b88a:	48 89 45 f0          	mov    %rax,-0x10(%rbp)
  40b88e:	48 83 7d f0 00       	cmpq   $0x0,-0x10(%rbp)
  40b893:	0f 85 10 00 00 00    	jne    40b8a9 <_ZN5Eigen8internal14aligned_mallocEm+0x39>
  40b899:	48 83 7d f8 00       	cmpq   $0x0,-0x8(%rbp)
  40b89e:	0f 84 05 00 00 00    	je     40b8a9 <_ZN5Eigen8internal14aligned_mallocEm+0x39>
  40b8a4:	e8 77 fe ff ff       	callq  40b720 <_ZN5Eigen8internal19throw_std_bad_allocEv>
  40b8a9:	48 8b 45 f0          	mov    -0x10(%rbp),%rax
  40b8ad:	48 83 c4 10          	add    $0x10,%rsp
  40b8b1:	5d                   	pop    %rbp
  40b8b2:	c3                   	retq   
  40b8b3:	66 2e 0f 1f 84 00 00 	nopw   %cs:0x0(%rax,%rax,1)
  40b8ba:	00 00 00 
  40b8bd:	0f 1f 00             	nopl   (%rax)

000000000040b8c0 <_ZN5Eigen8internal28check_that_malloc_is_allowedEv>:
  40b8c0:	55                   	push   %rbp
  40b8c1:	48 89 e5             	mov    %rsp,%rbp
  40b8c4:	5d                   	pop    %rbp
  40b8c5:	c3                   	retq   
  40b8c6:	66 2e 0f 1f 84 00 00 	nopw   %cs:0x0(%rax,%rax,1)
  40b8cd:	00 00 00 

000000000040b8d0 <_ZN5Eigen15DenseCoeffsBaseINS_6MatrixIdLin1ELin1ELi0ELin1ELin1EEELi1EE8coeffRefEll>:
  40b8d0:	55                   	push   %rbp
  40b8d1:	48 89 e5             	mov    %rsp,%rbp
  40b8d4:	48 83 ec 50          	sub    $0x50,%rsp
  40b8d8:	48 89 7d f8          	mov    %rdi,-0x8(%rbp)
  40b8dc:	48 89 75 f0          	mov    %rsi,-0x10(%rbp)
  40b8e0:	48 89 55 e8          	mov    %rdx,-0x18(%rbp)
  40b8e4:	48 8b 7d f8          	mov    -0x8(%rbp),%rdi
  40b8e8:	e8 63 00 00 00       	callq  40b950 <_ZN5Eigen9EigenBaseINS_6MatrixIdLin1ELin1ELi0ELin1ELin1EEEE7derivedEv>
  40b8ed:	48 8d 4d d8          	lea    -0x28(%rbp),%rcx
  40b8f1:	48 89 cf             	mov    %rcx,%rdi
  40b8f4:	48 89 c6             	mov    %rax,%rsi
  40b8f7:	48 89 4d c0          	mov    %rcx,-0x40(%rbp)
  40b8fb:	e8 60 00 00 00       	callq  40b960 <_ZN5Eigen8internal9evaluatorINS_6MatrixIdLin1ELin1ELi0ELin1ELin1EEEEC2ERKS3_>
  40b900:	48 8b 75 f0          	mov    -0x10(%rbp),%rsi
  40b904:	48 8b 55 e8          	mov    -0x18(%rbp),%rdx
  40b908:	48 8b 7d c0          	mov    -0x40(%rbp),%rdi
  40b90c:	e8 7f 00 00 00       	callq  40b990 <_ZN5Eigen8internal9evaluatorINS_15PlainObjectBaseINS_6MatrixIdLin1ELin1ELi0ELin1ELin1EEEEEE8coeffRefEll>
  40b911:	48 89 45 b8          	mov    %rax,-0x48(%rbp)
  40b915:	e9 00 00 00 00       	jmpq   40b91a <_ZN5Eigen15DenseCoeffsBaseINS_6MatrixIdLin1ELin1ELi0ELin1ELin1EEELi1EE8coeffRefEll+0x4a>
  40b91a:	48 8d 7d d8          	lea    -0x28(%rbp),%rdi
  40b91e:	e8 cd 00 00 00       	callq  40b9f0 <_ZN5Eigen8internal9evaluatorINS_6MatrixIdLin1ELin1ELi0ELin1ELin1EEEED2Ev>
  40b923:	48 8b 45 b8          	mov    -0x48(%rbp),%rax
  40b927:	48 83 c4 50          	add    $0x50,%rsp
  40b92b:	5d                   	pop    %rbp
  40b92c:	c3                   	retq   
  40b92d:	48 89 45 d0          	mov    %rax,-0x30(%rbp)
  40b931:	89 55 cc             	mov    %edx,-0x34(%rbp)
  40b934:	48 8d 7d d8          	lea    -0x28(%rbp),%rdi
  40b938:	e8 b3 00 00 00       	callq  40b9f0 <_ZN5Eigen8internal9evaluatorINS_6MatrixIdLin1ELin1ELi0ELin1ELin1EEEED2Ev>
  40b93d:	48 8b 7d d0          	mov    -0x30(%rbp),%rdi
  40b941:	e8 9a 7a ff ff       	callq  4033e0 <_Unwind_Resume@plt>
  40b946:	66 2e 0f 1f 84 00 00 	nopw   %cs:0x0(%rax,%rax,1)
  40b94d:	00 00 00 

000000000040b950 <_ZN5Eigen9EigenBaseINS_6MatrixIdLin1ELin1ELi0ELin1ELin1EEEE7derivedEv>:
  40b950:	55                   	push   %rbp
  40b951:	48 89 e5             	mov    %rsp,%rbp
  40b954:	48 89 7d f8          	mov    %rdi,-0x8(%rbp)
  40b958:	48 8b 45 f8          	mov    -0x8(%rbp),%rax
  40b95c:	5d                   	pop    %rbp
  40b95d:	c3                   	retq   
  40b95e:	66 90                	xchg   %ax,%ax

000000000040b960 <_ZN5Eigen8internal9evaluatorINS_6MatrixIdLin1ELin1ELi0ELin1ELin1EEEEC2ERKS3_>:
  40b960:	55                   	push   %rbp
  40b961:	48 89 e5             	mov    %rsp,%rbp
  40b964:	48 83 ec 10          	sub    $0x10,%rsp
  40b968:	48 89 7d f8          	mov    %rdi,-0x8(%rbp)
  40b96c:	48 89 75 f0          	mov    %rsi,-0x10(%rbp)
  40b970:	48 8b 45 f8          	mov    -0x8(%rbp),%rax
  40b974:	48 8b 4d f0          	mov    -0x10(%rbp),%rcx
  40b978:	48 89 c7             	mov    %rax,%rdi
  40b97b:	48 89 ce             	mov    %rcx,%rsi
  40b97e:	e8 8d 00 00 00       	callq  40ba10 <_ZN5Eigen8internal9evaluatorINS_15PlainObjectBaseINS_6MatrixIdLin1ELin1ELi0ELin1ELin1EEEEEEC2ERKS5_>
  40b983:	48 83 c4 10          	add    $0x10,%rsp
  40b987:	5d                   	pop    %rbp
  40b988:	c3                   	retq   
  40b989:	0f 1f 80 00 00 00 00 	nopl   0x0(%rax)

000000000040b990 <_ZN5Eigen8internal9evaluatorINS_15PlainObjectBaseINS_6MatrixIdLin1ELin1ELi0ELin1ELin1EEEEEE8coeffRefEll>:
  40b990:	55                   	push   %rbp
  40b991:	48 89 e5             	mov    %rsp,%rbp
  40b994:	48 83 ec 30          	sub    $0x30,%rsp
  40b998:	48 89 7d f8          	mov    %rdi,-0x8(%rbp)
  40b99c:	48 89 75 f0          	mov    %rsi,-0x10(%rbp)
  40b9a0:	48 89 55 e8          	mov    %rdx,-0x18(%rbp)
  40b9a4:	48 8b 45 f8          	mov    -0x8(%rbp),%rax
  40b9a8:	48 8b 08             	mov    (%rax),%rcx
  40b9ab:	48 8b 55 f0          	mov    -0x10(%rbp),%rdx
  40b9af:	48 8b 75 e8          	mov    -0x18(%rbp),%rsi
  40b9b3:	48 05 08 00 00 00    	add    $0x8,%rax
  40b9b9:	48 89 c7             	mov    %rax,%rdi
  40b9bc:	48 89 4d e0          	mov    %rcx,-0x20(%rbp)
  40b9c0:	48 89 55 d8          	mov    %rdx,-0x28(%rbp)
  40b9c4:	48 89 75 d0          	mov    %rsi,-0x30(%rbp)
  40b9c8:	e8 93 02 00 00       	callq  40bc60 <_ZNK5Eigen8internal19variable_if_dynamicIlLin1EE5valueEv>
  40b9cd:	48 8b 4d d0          	mov    -0x30(%rbp),%rcx
  40b9d1:	48 0f af c8          	imul   %rax,%rcx
  40b9d5:	48 8b 45 d8          	mov    -0x28(%rbp),%rax
  40b9d9:	48 01 c8             	add    %rcx,%rax
  40b9dc:	48 c1 e0 03          	shl    $0x3,%rax
  40b9e0:	48 8b 4d e0          	mov    -0x20(%rbp),%rcx
  40b9e4:	48 01 c1             	add    %rax,%rcx
  40b9e7:	48 89 c8             	mov    %rcx,%rax
  40b9ea:	48 83 c4 30          	add    $0x30,%rsp
  40b9ee:	5d                   	pop    %rbp
  40b9ef:	c3                   	retq   

000000000040b9f0 <_ZN5Eigen8internal9evaluatorINS_6MatrixIdLin1ELin1ELi0ELin1ELin1EEEED2Ev>:
  40b9f0:	55                   	push   %rbp
  40b9f1:	48 89 e5             	mov    %rsp,%rbp
  40b9f4:	48 83 ec 10          	sub    $0x10,%rsp
  40b9f8:	48 89 7d f8          	mov    %rdi,-0x8(%rbp)
  40b9fc:	48 8b 45 f8          	mov    -0x8(%rbp),%rax
  40ba00:	48 89 c7             	mov    %rax,%rdi
  40ba03:	e8 78 02 00 00       	callq  40bc80 <_ZN5Eigen8internal9evaluatorINS_15PlainObjectBaseINS_6MatrixIdLin1ELin1ELi0ELin1ELin1EEEEEED2Ev>
  40ba08:	48 83 c4 10          	add    $0x10,%rsp
  40ba0c:	5d                   	pop    %rbp
  40ba0d:	c3                   	retq   
  40ba0e:	66 90                	xchg   %ax,%ax

000000000040ba10 <_ZN5Eigen8internal9evaluatorINS_15PlainObjectBaseINS_6MatrixIdLin1ELin1ELi0ELin1ELin1EEEEEEC2ERKS5_>:
  40ba10:	55                   	push   %rbp
  40ba11:	48 89 e5             	mov    %rsp,%rbp
  40ba14:	48 83 ec 50          	sub    $0x50,%rsp
  40ba18:	48 89 7d f8          	mov    %rdi,-0x8(%rbp)
  40ba1c:	48 89 75 f0          	mov    %rsi,-0x10(%rbp)
  40ba20:	48 8b 45 f8          	mov    -0x8(%rbp),%rax
  40ba24:	48 89 c1             	mov    %rax,%rcx
  40ba27:	48 89 c7             	mov    %rax,%rdi
  40ba2a:	48 89 45 d8          	mov    %rax,-0x28(%rbp)
  40ba2e:	48 89 4d d0          	mov    %rcx,-0x30(%rbp)
  40ba32:	e8 79 00 00 00       	callq  40bab0 <_ZN5Eigen8internal14evaluator_baseINS_6MatrixIdLin1ELin1ELi0ELin1ELin1EEEEC2Ev>
  40ba37:	48 8b 7d f0          	mov    -0x10(%rbp),%rdi
  40ba3b:	e8 90 00 00 00       	callq  40bad0 <_ZNK5Eigen15PlainObjectBaseINS_6MatrixIdLin1ELin1ELi0ELin1ELin1EEEE4dataEv>
  40ba40:	48 89 45 c8          	mov    %rax,-0x38(%rbp)
  40ba44:	e9 00 00 00 00       	jmpq   40ba49 <_ZN5Eigen8internal9evaluatorINS_15PlainObjectBaseINS_6MatrixIdLin1ELin1ELi0ELin1ELin1EEEEEEC2ERKS5_+0x39>
  40ba49:	48 8b 45 d8          	mov    -0x28(%rbp),%rax
  40ba4d:	48 8b 4d c8          	mov    -0x38(%rbp),%rcx
  40ba51:	48 89 08             	mov    %rcx,(%rax)
  40ba54:	48 8b 55 d0          	mov    -0x30(%rbp),%rdx
  40ba58:	48 83 c2 08          	add    $0x8,%rdx
  40ba5c:	48 8b 7d f0          	mov    -0x10(%rbp),%rdi
  40ba60:	48 89 55 c0          	mov    %rdx,-0x40(%rbp)
  40ba64:	e8 87 00 00 00       	callq  40baf0 <_ZNK5Eigen15DenseCoeffsBaseINS_6MatrixIdLin1ELin1ELi0ELin1ELin1EEELi3EE11outerStrideEv>
  40ba69:	48 89 45 b8          	mov    %rax,-0x48(%rbp)
  40ba6d:	e9 00 00 00 00       	jmpq   40ba72 <_ZN5Eigen8internal9evaluatorINS_15PlainObjectBaseINS_6MatrixIdLin1ELin1ELi0ELin1ELin1EEEEEEC2ERKS5_+0x62>
  40ba72:	48 8b 7d c0          	mov    -0x40(%rbp),%rdi
  40ba76:	48 8b 75 b8          	mov    -0x48(%rbp),%rsi
  40ba7a:	e8 a1 00 00 00       	callq  40bb20 <_ZN5Eigen8internal19variable_if_dynamicIlLin1EEC2El>
  40ba7f:	e9 00 00 00 00       	jmpq   40ba84 <_ZN5Eigen8internal9evaluatorINS_15PlainObjectBaseINS_6MatrixIdLin1ELin1ELi0ELin1ELin1EEEEEEC2ERKS5_+0x74>
  40ba84:	48 83 c4 50          	add    $0x50,%rsp
  40ba88:	5d                   	pop    %rbp
  40ba89:	c3                   	retq   
  40ba8a:	48 89 45 e8          	mov    %rax,-0x18(%rbp)
  40ba8e:	89 55 e4             	mov    %edx,-0x1c(%rbp)
  40ba91:	48 8b 45 d0          	mov    -0x30(%rbp),%rax
  40ba95:	48 89 c7             	mov    %rax,%rdi
  40ba98:	e8 a3 00 00 00       	callq  40bb40 <_ZN5Eigen8internal14evaluator_baseINS_6MatrixIdLin1ELin1ELi0ELin1ELin1EEEED2Ev>
  40ba9d:	48 8b 7d e8          	mov    -0x18(%rbp),%rdi
  40baa1:	e8 3a 79 ff ff       	callq  4033e0 <_Unwind_Resume@plt>
  40baa6:	66 2e 0f 1f 84 00 00 	nopw   %cs:0x0(%rax,%rax,1)
  40baad:	00 00 00 

000000000040bab0 <_ZN5Eigen8internal14evaluator_baseINS_6MatrixIdLin1ELin1ELi0ELin1ELin1EEEEC2Ev>:
  40bab0:	55                   	push   %rbp
  40bab1:	48 89 e5             	mov    %rsp,%rbp
  40bab4:	48 83 ec 10          	sub    $0x10,%rsp
  40bab8:	48 89 7d f8          	mov    %rdi,-0x8(%rbp)
  40babc:	48 8b 45 f8          	mov    -0x8(%rbp),%rax
  40bac0:	48 89 c7             	mov    %rax,%rdi
  40bac3:	e8 98 00 00 00       	callq  40bb60 <_ZN5Eigen8internal11noncopyableC2Ev>
  40bac8:	48 83 c4 10          	add    $0x10,%rsp
  40bacc:	5d                   	pop    %rbp
  40bacd:	c3                   	retq   
  40bace:	66 90                	xchg   %ax,%ax

000000000040bad0 <_ZNK5Eigen15PlainObjectBaseINS_6MatrixIdLin1ELin1ELi0ELin1ELin1EEEE4dataEv>:
  40bad0:	55                   	push   %rbp
  40bad1:	48 89 e5             	mov    %rsp,%rbp
  40bad4:	48 83 ec 10          	sub    $0x10,%rsp
  40bad8:	48 89 7d f8          	mov    %rdi,-0x8(%rbp)
  40badc:	48 8b 7d f8          	mov    -0x8(%rbp),%rdi
  40bae0:	e8 8b 00 00 00       	callq  40bb70 <_ZNK5Eigen12DenseStorageIdLin1ELin1ELin1ELi0EE4dataEv>
  40bae5:	48 83 c4 10          	add    $0x10,%rsp
  40bae9:	5d                   	pop    %rbp
  40baea:	c3                   	retq   
  40baeb:	0f 1f 44 00 00       	nopl   0x0(%rax,%rax,1)

000000000040baf0 <_ZNK5Eigen15DenseCoeffsBaseINS_6MatrixIdLin1ELin1ELi0ELin1ELin1EEELi3EE11outerStrideEv>:
  40baf0:	55                   	push   %rbp
  40baf1:	48 89 e5             	mov    %rsp,%rbp
  40baf4:	48 83 ec 10          	sub    $0x10,%rsp
  40baf8:	48 89 7d f8          	mov    %rdi,-0x8(%rbp)
  40bafc:	48 8b 45 f8          	mov    -0x8(%rbp),%rax
  40bb00:	48 89 c7             	mov    %rax,%rdi
  40bb03:	e8 88 00 00 00       	callq  40bb90 <_ZNK5Eigen9EigenBaseINS_6MatrixIdLin1ELin1ELi0ELin1ELin1EEEE7derivedEv>
  40bb08:	48 89 c7             	mov    %rax,%rdi
  40bb0b:	e8 90 00 00 00       	callq  40bba0 <_ZNK5Eigen6MatrixIdLin1ELin1ELi0ELin1ELin1EE11outerStrideEv>
  40bb10:	48 83 c4 10          	add    $0x10,%rsp
  40bb14:	5d                   	pop    %rbp
  40bb15:	c3                   	retq   
  40bb16:	66 2e 0f 1f 84 00 00 	nopw   %cs:0x0(%rax,%rax,1)
  40bb1d:	00 00 00 

000000000040bb20 <_ZN5Eigen8internal19variable_if_dynamicIlLin1EEC2El>:
  40bb20:	55                   	push   %rbp
  40bb21:	48 89 e5             	mov    %rsp,%rbp
  40bb24:	48 89 7d f8          	mov    %rdi,-0x8(%rbp)
  40bb28:	48 89 75 f0          	mov    %rsi,-0x10(%rbp)
  40bb2c:	48 8b 45 f8          	mov    -0x8(%rbp),%rax
  40bb30:	48 8b 4d f0          	mov    -0x10(%rbp),%rcx
  40bb34:	48 89 08             	mov    %rcx,(%rax)
  40bb37:	5d                   	pop    %rbp
  40bb38:	c3                   	retq   
  40bb39:	0f 1f 80 00 00 00 00 	nopl   0x0(%rax)

000000000040bb40 <_ZN5Eigen8internal14evaluator_baseINS_6MatrixIdLin1ELin1ELi0ELin1ELin1EEEED2Ev>:
  40bb40:	55                   	push   %rbp
  40bb41:	48 89 e5             	mov    %rsp,%rbp
  40bb44:	48 83 ec 10          	sub    $0x10,%rsp
  40bb48:	48 89 7d f8          	mov    %rdi,-0x8(%rbp)
  40bb4c:	48 8b 45 f8          	mov    -0x8(%rbp),%rax
  40bb50:	48 89 c7             	mov    %rax,%rdi
  40bb53:	e8 f8 00 00 00       	callq  40bc50 <_ZN5Eigen8internal11noncopyableD2Ev>
  40bb58:	48 83 c4 10          	add    $0x10,%rsp
  40bb5c:	5d                   	pop    %rbp
  40bb5d:	c3                   	retq   
  40bb5e:	66 90                	xchg   %ax,%ax

000000000040bb60 <_ZN5Eigen8internal11noncopyableC2Ev>:
  40bb60:	55                   	push   %rbp
  40bb61:	48 89 e5             	mov    %rsp,%rbp
  40bb64:	48 89 7d f8          	mov    %rdi,-0x8(%rbp)
  40bb68:	5d                   	pop    %rbp
  40bb69:	c3                   	retq   
  40bb6a:	66 0f 1f 44 00 00    	nopw   0x0(%rax,%rax,1)

000000000040bb70 <_ZNK5Eigen12DenseStorageIdLin1ELin1ELin1ELi0EE4dataEv>:
  40bb70:	55                   	push   %rbp
  40bb71:	48 89 e5             	mov    %rsp,%rbp
  40bb74:	48 89 7d f8          	mov    %rdi,-0x8(%rbp)
  40bb78:	48 8b 45 f8          	mov    -0x8(%rbp),%rax
  40bb7c:	48 8b 00             	mov    (%rax),%rax
  40bb7f:	5d                   	pop    %rbp
  40bb80:	c3                   	retq   
  40bb81:	66 2e 0f 1f 84 00 00 	nopw   %cs:0x0(%rax,%rax,1)
  40bb88:	00 00 00 
  40bb8b:	0f 1f 44 00 00       	nopl   0x0(%rax,%rax,1)

000000000040bb90 <_ZNK5Eigen9EigenBaseINS_6MatrixIdLin1ELin1ELi0ELin1ELin1EEEE7derivedEv>:
  40bb90:	55                   	push   %rbp
  40bb91:	48 89 e5             	mov    %rsp,%rbp
  40bb94:	48 89 7d f8          	mov    %rdi,-0x8(%rbp)
  40bb98:	48 8b 45 f8          	mov    -0x8(%rbp),%rax
  40bb9c:	5d                   	pop    %rbp
  40bb9d:	c3                   	retq   
  40bb9e:	66 90                	xchg   %ax,%ax

000000000040bba0 <_ZNK5Eigen6MatrixIdLin1ELin1ELi0ELin1ELin1EE11outerStrideEv>:
  40bba0:	55                   	push   %rbp
  40bba1:	48 89 e5             	mov    %rsp,%rbp
  40bba4:	48 83 ec 10          	sub    $0x10,%rsp
  40bba8:	48 89 7d f8          	mov    %rdi,-0x8(%rbp)
  40bbac:	48 8b 45 f8          	mov    -0x8(%rbp),%rax
  40bbb0:	48 89 c7             	mov    %rax,%rdi
  40bbb3:	e8 08 00 00 00       	callq  40bbc0 <_ZNK5Eigen9DenseBaseINS_6MatrixIdLin1ELin1ELi0ELin1ELin1EEEE9innerSizeEv>
  40bbb8:	48 83 c4 10          	add    $0x10,%rsp
  40bbbc:	5d                   	pop    %rbp
  40bbbd:	c3                   	retq   
  40bbbe:	66 90                	xchg   %ax,%ax

000000000040bbc0 <_ZNK5Eigen9DenseBaseINS_6MatrixIdLin1ELin1ELi0ELin1ELin1EEEE9innerSizeEv>:
  40bbc0:	55                   	push   %rbp
  40bbc1:	48 89 e5             	mov    %rsp,%rbp
  40bbc4:	48 83 ec 10          	sub    $0x10,%rsp
  40bbc8:	48 89 7d f8          	mov    %rdi,-0x8(%rbp)
  40bbcc:	48 8b 45 f8          	mov    -0x8(%rbp),%rax
  40bbd0:	48 89 c7             	mov    %rax,%rdi
  40bbd3:	e8 08 00 00 00       	callq  40bbe0 <_ZNK5Eigen9EigenBaseINS_6MatrixIdLin1ELin1ELi0ELin1ELin1EEEE4rowsEv>
  40bbd8:	48 83 c4 10          	add    $0x10,%rsp
  40bbdc:	5d                   	pop    %rbp
  40bbdd:	c3                   	retq   
  40bbde:	66 90                	xchg   %ax,%ax

000000000040bbe0 <_ZNK5Eigen9EigenBaseINS_6MatrixIdLin1ELin1ELi0ELin1ELin1EEEE4rowsEv>:
  40bbe0:	55                   	push   %rbp
  40bbe1:	48 89 e5             	mov    %rsp,%rbp
  40bbe4:	48 83 ec 10          	sub    $0x10,%rsp
  40bbe8:	48 89 7d f8          	mov    %rdi,-0x8(%rbp)
  40bbec:	48 8b 7d f8          	mov    -0x8(%rbp),%rdi
  40bbf0:	e8 9b ff ff ff       	callq  40bb90 <_ZNK5Eigen9EigenBaseINS_6MatrixIdLin1ELin1ELi0ELin1ELin1EEEE7derivedEv>
  40bbf5:	48 89 c7             	mov    %rax,%rdi
  40bbf8:	e8 13 00 00 00       	callq  40bc10 <_ZNK5Eigen15PlainObjectBaseINS_6MatrixIdLin1ELin1ELi0ELin1ELin1EEEE4rowsEv>
  40bbfd:	48 83 c4 10          	add    $0x10,%rsp
  40bc01:	5d                   	pop    %rbp
  40bc02:	c3                   	retq   
  40bc03:	66 2e 0f 1f 84 00 00 	nopw   %cs:0x0(%rax,%rax,1)
  40bc0a:	00 00 00 
  40bc0d:	0f 1f 00             	nopl   (%rax)

000000000040bc10 <_ZNK5Eigen15PlainObjectBaseINS_6MatrixIdLin1ELin1ELi0ELin1ELin1EEEE4rowsEv>:
  40bc10:	55                   	push   %rbp
  40bc11:	48 89 e5             	mov    %rsp,%rbp
  40bc14:	48 83 ec 10          	sub    $0x10,%rsp
  40bc18:	48 89 7d f8          	mov    %rdi,-0x8(%rbp)
  40bc1c:	48 8b 7d f8          	mov    -0x8(%rbp),%rdi
  40bc20:	e8 0b 00 00 00       	callq  40bc30 <_ZNK5Eigen12DenseStorageIdLin1ELin1ELin1ELi0EE4rowsEv>
  40bc25:	48 83 c4 10          	add    $0x10,%rsp
  40bc29:	5d                   	pop    %rbp
  40bc2a:	c3                   	retq   
  40bc2b:	0f 1f 44 00 00       	nopl   0x0(%rax,%rax,1)

000000000040bc30 <_ZNK5Eigen12DenseStorageIdLin1ELin1ELin1ELi0EE4rowsEv>:
  40bc30:	55                   	push   %rbp
  40bc31:	48 89 e5             	mov    %rsp,%rbp
  40bc34:	48 89 7d f8          	mov    %rdi,-0x8(%rbp)
  40bc38:	48 8b 45 f8          	mov    -0x8(%rbp),%rax
  40bc3c:	48 8b 40 08          	mov    0x8(%rax),%rax
  40bc40:	5d                   	pop    %rbp
  40bc41:	c3                   	retq   
  40bc42:	66 2e 0f 1f 84 00 00 	nopw   %cs:0x0(%rax,%rax,1)
  40bc49:	00 00 00 
  40bc4c:	0f 1f 40 00          	nopl   0x0(%rax)

000000000040bc50 <_ZN5Eigen8internal11noncopyableD2Ev>:
  40bc50:	55                   	push   %rbp
  40bc51:	48 89 e5             	mov    %rsp,%rbp
  40bc54:	48 89 7d f8          	mov    %rdi,-0x8(%rbp)
  40bc58:	5d                   	pop    %rbp
  40bc59:	c3                   	retq   
  40bc5a:	66 0f 1f 44 00 00    	nopw   0x0(%rax,%rax,1)

000000000040bc60 <_ZNK5Eigen8internal19variable_if_dynamicIlLin1EE5valueEv>:
  40bc60:	55                   	push   %rbp
  40bc61:	48 89 e5             	mov    %rsp,%rbp
  40bc64:	48 89 7d f8          	mov    %rdi,-0x8(%rbp)
  40bc68:	48 8b 45 f8          	mov    -0x8(%rbp),%rax
  40bc6c:	48 8b 00             	mov    (%rax),%rax
  40bc6f:	5d                   	pop    %rbp
  40bc70:	c3                   	retq   
  40bc71:	66 2e 0f 1f 84 00 00 	nopw   %cs:0x0(%rax,%rax,1)
  40bc78:	00 00 00 
  40bc7b:	0f 1f 44 00 00       	nopl   0x0(%rax,%rax,1)

000000000040bc80 <_ZN5Eigen8internal9evaluatorINS_15PlainObjectBaseINS_6MatrixIdLin1ELin1ELi0ELin1ELin1EEEEEED2Ev>:
  40bc80:	55                   	push   %rbp
  40bc81:	48 89 e5             	mov    %rsp,%rbp
  40bc84:	48 83 ec 10          	sub    $0x10,%rsp
  40bc88:	48 89 7d f8          	mov    %rdi,-0x8(%rbp)
  40bc8c:	48 8b 45 f8          	mov    -0x8(%rbp),%rax
  40bc90:	48 89 c7             	mov    %rax,%rdi
  40bc93:	e8 a8 fe ff ff       	callq  40bb40 <_ZN5Eigen8internal14evaluator_baseINS_6MatrixIdLin1ELin1ELi0ELin1ELin1EEEED2Ev>
  40bc98:	48 83 c4 10          	add    $0x10,%rsp
  40bc9c:	5d                   	pop    %rbp
  40bc9d:	c3                   	retq   
  40bc9e:	66 90                	xchg   %ax,%ax

000000000040bca0 <_ZN5Eigen9TransposeINS_6MatrixIdLin1ELin1ELi0ELin1ELin1EEEEC2ERS2_>:
  40bca0:	55                   	push   %rbp
  40bca1:	48 89 e5             	mov    %rsp,%rbp
  40bca4:	48 83 ec 20          	sub    $0x20,%rsp
  40bca8:	48 89 7d f8          	mov    %rdi,-0x8(%rbp)
  40bcac:	48 89 75 f0          	mov    %rsi,-0x10(%rbp)
  40bcb0:	48 8b 45 f8          	mov    -0x8(%rbp),%rax
  40bcb4:	48 89 c1             	mov    %rax,%rcx
  40bcb7:	48 89 cf             	mov    %rcx,%rdi
  40bcba:	48 89 45 e8          	mov    %rax,-0x18(%rbp)
  40bcbe:	e8 1d 00 00 00       	callq  40bce0 <_ZN5Eigen13TransposeImplINS_6MatrixIdLin1ELin1ELi0ELin1ELin1EEENS_5DenseEEC2Ev>
  40bcc3:	48 8b 45 f0          	mov    -0x10(%rbp),%rax
  40bcc7:	48 8b 4d e8          	mov    -0x18(%rbp),%rcx
  40bccb:	48 89 01             	mov    %rax,(%rcx)
  40bcce:	48 83 c4 20          	add    $0x20,%rsp
  40bcd2:	5d                   	pop    %rbp
  40bcd3:	c3                   	retq   
  40bcd4:	66 2e 0f 1f 84 00 00 	nopw   %cs:0x0(%rax,%rax,1)
  40bcdb:	00 00 00 
  40bcde:	66 90                	xchg   %ax,%ax

000000000040bce0 <_ZN5Eigen13TransposeImplINS_6MatrixIdLin1ELin1ELi0ELin1ELin1EEENS_5DenseEEC2Ev>:
  40bce0:	55                   	push   %rbp
  40bce1:	48 89 e5             	mov    %rsp,%rbp
  40bce4:	48 83 ec 10          	sub    $0x10,%rsp
  40bce8:	48 89 7d f8          	mov    %rdi,-0x8(%rbp)
  40bcec:	48 8b 45 f8          	mov    -0x8(%rbp),%rax
  40bcf0:	48 89 c7             	mov    %rax,%rdi
  40bcf3:	e8 08 00 00 00       	callq  40bd00 <_ZN5Eigen10MatrixBaseINS_9TransposeINS_6MatrixIdLin1ELin1ELi0ELin1ELin1EEEEEEC2Ev>
  40bcf8:	48 83 c4 10          	add    $0x10,%rsp
  40bcfc:	5d                   	pop    %rbp
  40bcfd:	c3                   	retq   
  40bcfe:	66 90                	xchg   %ax,%ax

000000000040bd00 <_ZN5Eigen10MatrixBaseINS_9TransposeINS_6MatrixIdLin1ELin1ELi0ELin1ELin1EEEEEEC2Ev>:
  40bd00:	55                   	push   %rbp
  40bd01:	48 89 e5             	mov    %rsp,%rbp
  40bd04:	48 83 ec 10          	sub    $0x10,%rsp
  40bd08:	48 89 7d f8          	mov    %rdi,-0x8(%rbp)
  40bd0c:	48 8b 45 f8          	mov    -0x8(%rbp),%rax
  40bd10:	48 89 c7             	mov    %rax,%rdi
  40bd13:	e8 08 00 00 00       	callq  40bd20 <_ZN5Eigen9DenseBaseINS_9TransposeINS_6MatrixIdLin1ELin1ELi0ELin1ELin1EEEEEEC2Ev>
  40bd18:	48 83 c4 10          	add    $0x10,%rsp
  40bd1c:	5d                   	pop    %rbp
  40bd1d:	c3                   	retq   
  40bd1e:	66 90                	xchg   %ax,%ax

000000000040bd20 <_ZN5Eigen9DenseBaseINS_9TransposeINS_6MatrixIdLin1ELin1ELi0ELin1ELin1EEEEEEC2Ev>:
  40bd20:	55                   	push   %rbp
  40bd21:	48 89 e5             	mov    %rsp,%rbp
  40bd24:	48 89 7d f8          	mov    %rdi,-0x8(%rbp)
  40bd28:	5d                   	pop    %rbp
  40bd29:	c3                   	retq   
  40bd2a:	66 0f 1f 44 00 00    	nopw   0x0(%rax,%rax,1)

000000000040bd30 <_ZNK5Eigen9EigenBaseINS_9TransposeINS_6MatrixIdLin1ELin1ELi0ELin1ELin1EEEEEE7derivedEv>:
  40bd30:	55                   	push   %rbp
  40bd31:	48 89 e5             	mov    %rsp,%rbp
  40bd34:	48 89 7d f8          	mov    %rdi,-0x8(%rbp)
  40bd38:	48 8b 45 f8          	mov    -0x8(%rbp),%rax
  40bd3c:	5d                   	pop    %rbp
  40bd3d:	c3                   	retq   
  40bd3e:	66 90                	xchg   %ax,%ax

000000000040bd40 <_ZN5Eigen15PlainObjectBaseINS_6MatrixIdLin1ELin1ELi0ELin1ELin1EEEEC2INS_9TransposeIS2_EEEERKNS_9DenseBaseIT_EE>:
  40bd40:	55                   	push   %rbp
  40bd41:	48 89 e5             	mov    %rsp,%rbp
  40bd44:	48 83 ec 30          	sub    $0x30,%rsp
  40bd48:	48 89 7d f8          	mov    %rdi,-0x8(%rbp)
  40bd4c:	48 89 75 f0          	mov    %rsi,-0x10(%rbp)
  40bd50:	48 8b 45 f8          	mov    -0x8(%rbp),%rax
  40bd54:	48 89 c1             	mov    %rax,%rcx
  40bd57:	48 89 c7             	mov    %rax,%rdi
  40bd5a:	48 89 45 d8          	mov    %rax,-0x28(%rbp)
  40bd5e:	48 89 4d d0          	mov    %rcx,-0x30(%rbp)
  40bd62:	e8 f9 f7 ff ff       	callq  40b560 <_ZN5Eigen10MatrixBaseINS_6MatrixIdLin1ELin1ELi0ELin1ELin1EEEEC2Ev>
  40bd67:	48 8b 7d d8          	mov    -0x28(%rbp),%rdi
  40bd6b:	e8 10 f8 ff ff       	callq  40b580 <_ZN5Eigen12DenseStorageIdLin1ELin1ELin1ELi0EEC2Ev>
  40bd70:	e8 9b f7 ff ff       	callq  40b510 <_ZN5Eigen15PlainObjectBaseINS_6MatrixIdLin1ELin1ELi0ELin1ELin1EEEE22_check_template_paramsEv>
  40bd75:	e9 00 00 00 00       	jmpq   40bd7a <_ZN5Eigen15PlainObjectBaseINS_6MatrixIdLin1ELin1ELi0ELin1ELin1EEEEC2INS_9TransposeIS2_EEEERKNS_9DenseBaseIT_EE+0x3a>
  40bd7a:	48 8b 75 f0          	mov    -0x10(%rbp),%rsi
  40bd7e:	48 8b 7d d0          	mov    -0x30(%rbp),%rdi
  40bd82:	e8 39 00 00 00       	callq  40bdc0 <_ZN5Eigen15PlainObjectBaseINS_6MatrixIdLin1ELin1ELi0ELin1ELin1EEEE10resizeLikeINS_9TransposeIS2_EEEEvRKNS_9EigenBaseIT_EE>
  40bd87:	e9 00 00 00 00       	jmpq   40bd8c <_ZN5Eigen15PlainObjectBaseINS_6MatrixIdLin1ELin1ELi0ELin1ELin1EEEEC2INS_9TransposeIS2_EEEERKNS_9DenseBaseIT_EE+0x4c>
  40bd8c:	48 8b 75 f0          	mov    -0x10(%rbp),%rsi
  40bd90:	48 8b 7d d0          	mov    -0x30(%rbp),%rdi
  40bd94:	e8 37 01 00 00       	callq  40bed0 <_ZN5Eigen15PlainObjectBaseINS_6MatrixIdLin1ELin1ELi0ELin1ELin1EEEE12_set_noaliasINS_9TransposeIS2_EEEERS2_RKNS_9DenseBaseIT_EE>
  40bd99:	e9 00 00 00 00       	jmpq   40bd9e <_ZN5Eigen15PlainObjectBaseINS_6MatrixIdLin1ELin1ELi0ELin1ELin1EEEEC2INS_9TransposeIS2_EEEERKNS_9DenseBaseIT_EE+0x5e>
  40bd9e:	48 83 c4 30          	add    $0x30,%rsp
  40bda2:	5d                   	pop    %rbp
  40bda3:	c3                   	retq   
  40bda4:	48 89 45 e8          	mov    %rax,-0x18(%rbp)
  40bda8:	89 55 e4             	mov    %edx,-0x1c(%rbp)
  40bdab:	48 8b 7d d8          	mov    -0x28(%rbp),%rdi
  40bdaf:	e8 2c 82 ff ff       	callq  403fe0 <_ZN5Eigen12DenseStorageIdLin1ELin1ELin1ELi0EED2Ev>
  40bdb4:	48 8b 7d e8          	mov    -0x18(%rbp),%rdi
  40bdb8:	e8 23 76 ff ff       	callq  4033e0 <_Unwind_Resume@plt>
  40bdbd:	0f 1f 00             	nopl   (%rax)

000000000040bdc0 <_ZN5Eigen15PlainObjectBaseINS_6MatrixIdLin1ELin1ELi0ELin1ELin1EEEE10resizeLikeINS_9TransposeIS2_EEEEvRKNS_9EigenBaseIT_EE>:
  40bdc0:	55                   	push   %rbp
  40bdc1:	48 89 e5             	mov    %rsp,%rbp
  40bdc4:	48 83 ec 70          	sub    $0x70,%rsp
  40bdc8:	48 89 7d d8          	mov    %rdi,-0x28(%rbp)
  40bdcc:	48 89 75 d0          	mov    %rsi,-0x30(%rbp)
  40bdd0:	48 8b 7d d8          	mov    -0x28(%rbp),%rdi
  40bdd4:	48 8b 45 d0          	mov    -0x30(%rbp),%rax
  40bdd8:	48 89 7d b8          	mov    %rdi,-0x48(%rbp)
  40bddc:	48 89 c7             	mov    %rax,%rdi
  40bddf:	e8 4c ff ff ff       	callq  40bd30 <_ZNK5Eigen9EigenBaseINS_9TransposeINS_6MatrixIdLin1ELin1ELi0ELin1ELin1EEEEEE7derivedEv>
  40bde4:	48 89 45 c8          	mov    %rax,-0x38(%rbp)
  40bde8:	48 8b 7d c8          	mov    -0x38(%rbp),%rdi
  40bdec:	e8 4f 01 00 00       	callq  40bf40 <_ZNK5Eigen9TransposeINS_6MatrixIdLin1ELin1ELi0ELin1ELin1EEEE4rowsEv>
  40bdf1:	48 8b 7d c8          	mov    -0x38(%rbp),%rdi
  40bdf5:	48 89 45 b0          	mov    %rax,-0x50(%rbp)
  40bdf9:	e8 72 01 00 00       	callq  40bf70 <_ZNK5Eigen9TransposeINS_6MatrixIdLin1ELin1ELi0ELin1ELin1EEEE4colsEv>
  40bdfe:	48 8b 4d b0          	mov    -0x50(%rbp),%rcx
  40be02:	48 89 4d f8          	mov    %rcx,-0x8(%rbp)
  40be06:	48 89 45 f0          	mov    %rax,-0x10(%rbp)
  40be0a:	48 b8 ff ff ff ff ff 	movabs $0x7fffffffffffffff,%rax
  40be11:	ff ff 7f 
  40be14:	48 89 45 e8          	mov    %rax,-0x18(%rbp)
  40be18:	48 83 7d f8 00       	cmpq   $0x0,-0x8(%rbp)
  40be1d:	0f 84 0b 00 00 00    	je     40be2e <_ZN5Eigen15PlainObjectBaseINS_6MatrixIdLin1ELin1ELi0ELin1ELin1EEEE10resizeLikeINS_9TransposeIS2_EEEEvRKNS_9EigenBaseIT_EE+0x6e>
  40be23:	48 83 7d f0 00       	cmpq   $0x0,-0x10(%rbp)
  40be28:	0f 85 0a 00 00 00    	jne    40be38 <_ZN5Eigen15PlainObjectBaseINS_6MatrixIdLin1ELin1ELi0ELin1ELin1EEEE10resizeLikeINS_9TransposeIS2_EEEEvRKNS_9EigenBaseIT_EE+0x78>
  40be2e:	31 c0                	xor    %eax,%eax
  40be30:	88 45 af             	mov    %al,-0x51(%rbp)
  40be33:	e9 24 00 00 00       	jmpq   40be5c <_ZN5Eigen15PlainObjectBaseINS_6MatrixIdLin1ELin1ELi0ELin1ELin1EEEE10resizeLikeINS_9TransposeIS2_EEEEvRKNS_9EigenBaseIT_EE+0x9c>
  40be38:	48 8b 45 f8          	mov    -0x8(%rbp),%rax
  40be3c:	48 8b 4d e8          	mov    -0x18(%rbp),%rcx
  40be40:	48 89 45 a0          	mov    %rax,-0x60(%rbp)
  40be44:	48 89 c8             	mov    %rcx,%rax
  40be47:	48 99                	cqto   
  40be49:	48 f7 7d f0          	idivq  -0x10(%rbp)
  40be4d:	48 8b 4d a0          	mov    -0x60(%rbp),%rcx
  40be51:	48 39 c1             	cmp    %rax,%rcx
  40be54:	40 0f 9f c6          	setg   %sil
  40be58:	40 88 75 af          	mov    %sil,-0x51(%rbp)
  40be5c:	8a 45 af             	mov    -0x51(%rbp),%al
  40be5f:	24 01                	and    $0x1,%al
  40be61:	88 45 e7             	mov    %al,-0x19(%rbp)
  40be64:	f6 45 e7 01          	testb  $0x1,-0x19(%rbp)
  40be68:	0f 84 05 00 00 00    	je     40be73 <_ZN5Eigen15PlainObjectBaseINS_6MatrixIdLin1ELin1ELi0ELin1ELin1EEEE10resizeLikeINS_9TransposeIS2_EEEEvRKNS_9EigenBaseIT_EE+0xb3>
  40be6e:	e8 ad f8 ff ff       	callq  40b720 <_ZN5Eigen8internal19throw_std_bad_allocEv>
  40be73:	48 8b 7d c8          	mov    -0x38(%rbp),%rdi
  40be77:	e8 c4 00 00 00       	callq  40bf40 <_ZNK5Eigen9TransposeINS_6MatrixIdLin1ELin1ELi0ELin1ELin1EEEE4rowsEv>
  40be7c:	48 8b 7d c8          	mov    -0x38(%rbp),%rdi
  40be80:	48 89 45 98          	mov    %rax,-0x68(%rbp)
  40be84:	e8 e7 00 00 00       	callq  40bf70 <_ZNK5Eigen9TransposeINS_6MatrixIdLin1ELin1ELi0ELin1ELin1EEEE4colsEv>
  40be89:	48 8b 4d 98          	mov    -0x68(%rbp),%rcx
  40be8d:	48 0f af c8          	imul   %rax,%rcx
  40be91:	48 89 4d c0          	mov    %rcx,-0x40(%rbp)
  40be95:	48 8b 7d c8          	mov    -0x38(%rbp),%rdi
  40be99:	e8 a2 00 00 00       	callq  40bf40 <_ZNK5Eigen9TransposeINS_6MatrixIdLin1ELin1ELi0ELin1ELin1EEEE4rowsEv>
  40be9e:	48 8b 7d c8          	mov    -0x38(%rbp),%rdi
  40bea2:	48 89 45 90          	mov    %rax,-0x70(%rbp)
  40bea6:	e8 c5 00 00 00       	callq  40bf70 <_ZNK5Eigen9TransposeINS_6MatrixIdLin1ELin1ELi0ELin1ELin1EEEE4colsEv>
  40beab:	48 8b 7d b8          	mov    -0x48(%rbp),%rdi
  40beaf:	48 8b 75 90          	mov    -0x70(%rbp),%rsi
  40beb3:	48 89 c2             	mov    %rax,%rdx
  40beb6:	e8 05 f7 ff ff       	callq  40b5c0 <_ZN5Eigen15PlainObjectBaseINS_6MatrixIdLin1ELin1ELi0ELin1ELin1EEEE6resizeEll>
  40bebb:	48 83 c4 70          	add    $0x70,%rsp
  40bebf:	5d                   	pop    %rbp
  40bec0:	c3                   	retq   
  40bec1:	66 2e 0f 1f 84 00 00 	nopw   %cs:0x0(%rax,%rax,1)
  40bec8:	00 00 00 
  40becb:	0f 1f 44 00 00       	nopl   0x0(%rax,%rax,1)

000000000040bed0 <_ZN5Eigen15PlainObjectBaseINS_6MatrixIdLin1ELin1ELi0ELin1ELin1EEEE12_set_noaliasINS_9TransposeIS2_EEEERS2_RKNS_9DenseBaseIT_EE>:
  40bed0:	55                   	push   %rbp
  40bed1:	48 89 e5             	mov    %rsp,%rbp
  40bed4:	48 83 ec 30          	sub    $0x30,%rsp
  40bed8:	48 89 7d f8          	mov    %rdi,-0x8(%rbp)
  40bedc:	48 89 75 f0          	mov    %rsi,-0x10(%rbp)
  40bee0:	48 8b 45 f8          	mov    -0x8(%rbp),%rax
  40bee4:	48 89 c1             	mov    %rax,%rcx
  40bee7:	48 89 cf             	mov    %rcx,%rdi
  40beea:	48 89 45 e0          	mov    %rax,-0x20(%rbp)
  40beee:	e8 5d fa ff ff       	callq  40b950 <_ZN5Eigen9EigenBaseINS_6MatrixIdLin1ELin1ELi0ELin1ELin1EEEE7derivedEv>
  40bef3:	48 8b 4d f0          	mov    -0x10(%rbp),%rcx
  40bef7:	48 89 cf             	mov    %rcx,%rdi
  40befa:	48 89 45 d8          	mov    %rax,-0x28(%rbp)
  40befe:	e8 2d fe ff ff       	callq  40bd30 <_ZNK5Eigen9EigenBaseINS_9TransposeINS_6MatrixIdLin1ELin1ELi0ELin1ELin1EEEEEE7derivedEv>
  40bf03:	48 8d 7d e8          	lea    -0x18(%rbp),%rdi
  40bf07:	48 89 45 d0          	mov    %rax,-0x30(%rbp)
  40bf0b:	e8 10 01 00 00       	callq  40c020 <_ZN5Eigen8internal9assign_opIddEC2Ev>
  40bf10:	48 8b 7d d8          	mov    -0x28(%rbp),%rdi
  40bf14:	48 8b 75 d0          	mov    -0x30(%rbp),%rsi
  40bf18:	48 8d 55 e8          	lea    -0x18(%rbp),%rdx
  40bf1c:	e8 bf 00 00 00       	callq  40bfe0 <_ZN5Eigen8internal24call_assignment_no_aliasINS_6MatrixIdLin1ELin1ELi0ELin1ELin1EEENS_9TransposeIS3_EENS0_9assign_opIddEEEEvRT_RKT0_RKT1_>
  40bf21:	48 8b 45 e0          	mov    -0x20(%rbp),%rax
  40bf25:	48 89 c7             	mov    %rax,%rdi
  40bf28:	e8 23 fa ff ff       	callq  40b950 <_ZN5Eigen9EigenBaseINS_6MatrixIdLin1ELin1ELi0ELin1ELin1EEEE7derivedEv>
  40bf2d:	48 83 c4 30          	add    $0x30,%rsp
  40bf31:	5d                   	pop    %rbp
  40bf32:	c3                   	retq   
  40bf33:	66 2e 0f 1f 84 00 00 	nopw   %cs:0x0(%rax,%rax,1)
  40bf3a:	00 00 00 
  40bf3d:	0f 1f 00             	nopl   (%rax)

000000000040bf40 <_ZNK5Eigen9TransposeINS_6MatrixIdLin1ELin1ELi0ELin1ELin1EEEE4rowsEv>:
  40bf40:	55                   	push   %rbp
  40bf41:	48 89 e5             	mov    %rsp,%rbp
  40bf44:	48 83 ec 10          	sub    $0x10,%rsp
  40bf48:	48 89 7d f8          	mov    %rdi,-0x8(%rbp)
  40bf4c:	48 8b 45 f8          	mov    -0x8(%rbp),%rax
  40bf50:	48 8b 00             	mov    (%rax),%rax
  40bf53:	48 89 c7             	mov    %rax,%rdi
  40bf56:	e8 45 00 00 00       	callq  40bfa0 <_ZNK5Eigen15PlainObjectBaseINS_6MatrixIdLin1ELin1ELi0ELin1ELin1EEEE4colsEv>
  40bf5b:	48 83 c4 10          	add    $0x10,%rsp
  40bf5f:	5d                   	pop    %rbp
  40bf60:	c3                   	retq   
  40bf61:	66 2e 0f 1f 84 00 00 	nopw   %cs:0x0(%rax,%rax,1)
  40bf68:	00 00 00 
  40bf6b:	0f 1f 44 00 00       	nopl   0x0(%rax,%rax,1)

000000000040bf70 <_ZNK5Eigen9TransposeINS_6MatrixIdLin1ELin1ELi0ELin1ELin1EEEE4colsEv>:
  40bf70:	55                   	push   %rbp
  40bf71:	48 89 e5             	mov    %rsp,%rbp
  40bf74:	48 83 ec 10          	sub    $0x10,%rsp
  40bf78:	48 89 7d f8          	mov    %rdi,-0x8(%rbp)
  40bf7c:	48 8b 45 f8          	mov    -0x8(%rbp),%rax
  40bf80:	48 8b 00             	mov    (%rax),%rax
  40bf83:	48 89 c7             	mov    %rax,%rdi
  40bf86:	e8 85 fc ff ff       	callq  40bc10 <_ZNK5Eigen15PlainObjectBaseINS_6MatrixIdLin1ELin1ELi0ELin1ELin1EEEE4rowsEv>
  40bf8b:	48 83 c4 10          	add    $0x10,%rsp
  40bf8f:	5d                   	pop    %rbp
  40bf90:	c3                   	retq   
  40bf91:	66 2e 0f 1f 84 00 00 	nopw   %cs:0x0(%rax,%rax,1)
  40bf98:	00 00 00 
  40bf9b:	0f 1f 44 00 00       	nopl   0x0(%rax,%rax,1)

000000000040bfa0 <_ZNK5Eigen15PlainObjectBaseINS_6MatrixIdLin1ELin1ELi0ELin1ELin1EEEE4colsEv>:
  40bfa0:	55                   	push   %rbp
  40bfa1:	48 89 e5             	mov    %rsp,%rbp
  40bfa4:	48 83 ec 10          	sub    $0x10,%rsp
  40bfa8:	48 89 7d f8          	mov    %rdi,-0x8(%rbp)
  40bfac:	48 8b 7d f8          	mov    -0x8(%rbp),%rdi
  40bfb0:	e8 0b 00 00 00       	callq  40bfc0 <_ZNK5Eigen12DenseStorageIdLin1ELin1ELin1ELi0EE4colsEv>
  40bfb5:	48 83 c4 10          	add    $0x10,%rsp
  40bfb9:	5d                   	pop    %rbp
  40bfba:	c3                   	retq   
  40bfbb:	0f 1f 44 00 00       	nopl   0x0(%rax,%rax,1)

000000000040bfc0 <_ZNK5Eigen12DenseStorageIdLin1ELin1ELin1ELi0EE4colsEv>:
  40bfc0:	55                   	push   %rbp
  40bfc1:	48 89 e5             	mov    %rsp,%rbp
  40bfc4:	48 89 7d f8          	mov    %rdi,-0x8(%rbp)
  40bfc8:	48 8b 45 f8          	mov    -0x8(%rbp),%rax
  40bfcc:	48 8b 40 10          	mov    0x10(%rax),%rax
  40bfd0:	5d                   	pop    %rbp
  40bfd1:	c3                   	retq   
  40bfd2:	66 2e 0f 1f 84 00 00 	nopw   %cs:0x0(%rax,%rax,1)
  40bfd9:	00 00 00 
  40bfdc:	0f 1f 40 00          	nopl   0x0(%rax)

000000000040bfe0 <_ZN5Eigen8internal24call_assignment_no_aliasINS_6MatrixIdLin1ELin1ELi0ELin1ELin1EEENS_9TransposeIS3_EENS0_9assign_opIddEEEEvRT_RKT0_RKT1_>:
  40bfe0:	55                   	push   %rbp
  40bfe1:	48 89 e5             	mov    %rsp,%rbp
  40bfe4:	48 83 ec 20          	sub    $0x20,%rsp
  40bfe8:	48 89 7d f8          	mov    %rdi,-0x8(%rbp)
  40bfec:	48 89 75 f0          	mov    %rsi,-0x10(%rbp)
  40bff0:	48 89 55 e8          	mov    %rdx,-0x18(%rbp)
  40bff4:	48 8b 45 f8          	mov    -0x8(%rbp),%rax
  40bff8:	48 89 45 e0          	mov    %rax,-0x20(%rbp)
  40bffc:	48 8b 7d e0          	mov    -0x20(%rbp),%rdi
  40c000:	48 8b 75 f0          	mov    -0x10(%rbp),%rsi
  40c004:	48 8b 55 e8          	mov    -0x18(%rbp),%rdx
  40c008:	e8 23 00 00 00       	callq  40c030 <_ZN5Eigen8internal10AssignmentINS_6MatrixIdLin1ELin1ELi0ELin1ELin1EEENS_9TransposeIS3_EENS0_9assign_opIddEENS0_11Dense2DenseEvE3runERS3_RKS5_RKS7_>
  40c00d:	48 83 c4 20          	add    $0x20,%rsp
  40c011:	5d                   	pop    %rbp
  40c012:	c3                   	retq   
  40c013:	66 2e 0f 1f 84 00 00 	nopw   %cs:0x0(%rax,%rax,1)
  40c01a:	00 00 00 
  40c01d:	0f 1f 00             	nopl   (%rax)

000000000040c020 <_ZN5Eigen8internal9assign_opIddEC2Ev>:
  40c020:	55                   	push   %rbp
  40c021:	48 89 e5             	mov    %rsp,%rbp
  40c024:	48 89 7d f8          	mov    %rdi,-0x8(%rbp)
  40c028:	5d                   	pop    %rbp
  40c029:	c3                   	retq   
  40c02a:	66 0f 1f 44 00 00    	nopw   0x0(%rax,%rax,1)

000000000040c030 <_ZN5Eigen8internal10AssignmentINS_6MatrixIdLin1ELin1ELi0ELin1ELin1EEENS_9TransposeIS3_EENS0_9assign_opIddEENS0_11Dense2DenseEvE3runERS3_RKS5_RKS7_>:
  40c030:	55                   	push   %rbp
  40c031:	48 89 e5             	mov    %rsp,%rbp
  40c034:	48 83 ec 20          	sub    $0x20,%rsp
  40c038:	48 89 7d f8          	mov    %rdi,-0x8(%rbp)
  40c03c:	48 89 75 f0          	mov    %rsi,-0x10(%rbp)
  40c040:	48 89 55 e8          	mov    %rdx,-0x18(%rbp)
  40c044:	48 8b 7d f8          	mov    -0x8(%rbp),%rdi
  40c048:	48 8b 75 f0          	mov    -0x10(%rbp),%rsi
  40c04c:	48 8b 55 e8          	mov    -0x18(%rbp),%rdx
  40c050:	e8 0b 00 00 00       	callq  40c060 <_ZN5Eigen8internal26call_dense_assignment_loopINS_6MatrixIdLin1ELin1ELi0ELin1ELin1EEENS_9TransposeIS3_EENS0_9assign_opIddEEEEvRT_RKT0_RKT1_>
  40c055:	48 83 c4 20          	add    $0x20,%rsp
  40c059:	5d                   	pop    %rbp
  40c05a:	c3                   	retq   
  40c05b:	0f 1f 44 00 00       	nopl   0x0(%rax,%rax,1)

000000000040c060 <_ZN5Eigen8internal26call_dense_assignment_loopINS_6MatrixIdLin1ELin1ELi0ELin1ELin1EEENS_9TransposeIS3_EENS0_9assign_opIddEEEEvRT_RKT0_RKT1_>:
  40c060:	55                   	push   %rbp
  40c061:	48 89 e5             	mov    %rsp,%rbp
  40c064:	48 81 ec 80 00 00 00 	sub    $0x80,%rsp
  40c06b:	48 89 7d f8          	mov    %rdi,-0x8(%rbp)
  40c06f:	48 89 75 f0          	mov    %rsi,-0x10(%rbp)
  40c073:	48 89 55 e8          	mov    %rdx,-0x18(%rbp)
  40c077:	48 8b 75 f0          	mov    -0x10(%rbp),%rsi
  40c07b:	48 8d 7d d0          	lea    -0x30(%rbp),%rdi
  40c07f:	e8 bc 00 00 00       	callq  40c140 <_ZN5Eigen8internal9evaluatorINS_9TransposeINS_6MatrixIdLin1ELin1ELi0ELin1ELin1EEEEEEC2ERKS5_>
  40c084:	48 8b 7d f8          	mov    -0x8(%rbp),%rdi
  40c088:	48 8b 75 f0          	mov    -0x10(%rbp),%rsi
  40c08c:	48 8b 55 e8          	mov    -0x18(%rbp),%rdx
  40c090:	e8 db 00 00 00       	callq  40c170 <_ZN5Eigen8internal17resize_if_allowedINS_6MatrixIdLin1ELin1ELi0ELin1ELin1EEENS_9TransposeIS3_EEddEEvRT_RKT0_RKNS0_9assign_opIT1_T2_EE>
  40c095:	e9 00 00 00 00       	jmpq   40c09a <_ZN5Eigen8internal26call_dense_assignment_loopINS_6MatrixIdLin1ELin1ELi0ELin1ELin1EEENS_9TransposeIS3_EENS0_9assign_opIddEEEEvRT_RKT0_RKT1_+0x3a>
  40c09a:	48 8b 75 f8          	mov    -0x8(%rbp),%rsi
  40c09e:	48 8d 7d b0          	lea    -0x50(%rbp),%rdi
  40c0a2:	e8 b9 f8 ff ff       	callq  40b960 <_ZN5Eigen8internal9evaluatorINS_6MatrixIdLin1ELin1ELi0ELin1ELin1EEEEC2ERKS3_>
  40c0a7:	e9 00 00 00 00       	jmpq   40c0ac <_ZN5Eigen8internal26call_dense_assignment_loopINS_6MatrixIdLin1ELin1ELi0ELin1ELin1EEENS_9TransposeIS3_EENS0_9assign_opIddEEEEvRT_RKT0_RKT1_+0x4c>
  40c0ac:	48 8b 4d e8          	mov    -0x18(%rbp),%rcx
  40c0b0:	48 8b 7d f8          	mov    -0x8(%rbp),%rdi
  40c0b4:	48 89 4d 88          	mov    %rcx,-0x78(%rbp)
  40c0b8:	e8 33 01 00 00       	callq  40c1f0 <_ZNK5Eigen9EigenBaseINS_6MatrixIdLin1ELin1ELi0ELin1ELin1EEEE18const_cast_derivedEv>
  40c0bd:	48 89 45 80          	mov    %rax,-0x80(%rbp)
  40c0c1:	e9 00 00 00 00       	jmpq   40c0c6 <_ZN5Eigen8internal26call_dense_assignment_loopINS_6MatrixIdLin1ELin1ELi0ELin1ELin1EEENS_9TransposeIS3_EENS0_9assign_opIddEEEEvRT_RKT0_RKT1_+0x66>
  40c0c6:	48 8d 7d 90          	lea    -0x70(%rbp),%rdi
  40c0ca:	48 8d 75 b0          	lea    -0x50(%rbp),%rsi
  40c0ce:	48 8d 55 d0          	lea    -0x30(%rbp),%rdx
  40c0d2:	48 8b 4d 88          	mov    -0x78(%rbp),%rcx
  40c0d6:	4c 8b 45 80          	mov    -0x80(%rbp),%r8
  40c0da:	e8 21 01 00 00       	callq  40c200 <_ZN5Eigen8internal31generic_dense_assignment_kernelINS0_9evaluatorINS_6MatrixIdLin1ELin1ELi0ELin1ELin1EEEEENS2_INS_9TransposeIS4_EEEENS0_9assign_opIddEELi0EEC2ERS5_RKS8_RKSA_RS4_>
  40c0df:	e9 00 00 00 00       	jmpq   40c0e4 <_ZN5Eigen8internal26call_dense_assignment_loopINS_6MatrixIdLin1ELin1ELi0ELin1ELin1EEENS_9TransposeIS3_EENS0_9assign_opIddEEEEvRT_RKT0_RKT1_+0x84>
  40c0e4:	48 8d 7d 90          	lea    -0x70(%rbp),%rdi
  40c0e8:	e8 53 01 00 00       	callq  40c240 <_ZN5Eigen8internal21dense_assignment_loopINS0_31generic_dense_assignment_kernelINS0_9evaluatorINS_6MatrixIdLin1ELin1ELi0ELin1ELin1EEEEENS3_INS_9TransposeIS5_EEEENS0_9assign_opIddEELi0EEELi0ELi0EE3runERSC_>
  40c0ed:	e9 00 00 00 00       	jmpq   40c0f2 <_ZN5Eigen8internal26call_dense_assignment_loopINS_6MatrixIdLin1ELin1ELi0ELin1ELin1EEENS_9TransposeIS3_EENS0_9assign_opIddEEEEvRT_RKT0_RKT1_+0x92>
  40c0f2:	48 8d 7d b0          	lea    -0x50(%rbp),%rdi
  40c0f6:	e8 f5 f8 ff ff       	callq  40b9f0 <_ZN5Eigen8internal9evaluatorINS_6MatrixIdLin1ELin1ELi0ELin1ELin1EEEED2Ev>
  40c0fb:	48 8d 7d d0          	lea    -0x30(%rbp),%rdi
  40c0ff:	e8 dc 01 00 00       	callq  40c2e0 <_ZN5Eigen8internal9evaluatorINS_9TransposeINS_6MatrixIdLin1ELin1ELi0ELin1ELin1EEEEEED2Ev>
  40c104:	48 81 c4 80 00 00 00 	add    $0x80,%rsp
  40c10b:	5d                   	pop    %rbp
  40c10c:	c3                   	retq   
  40c10d:	48 89 45 c8          	mov    %rax,-0x38(%rbp)
  40c111:	89 55 c4             	mov    %edx,-0x3c(%rbp)
  40c114:	e9 10 00 00 00       	jmpq   40c129 <_ZN5Eigen8internal26call_dense_assignment_loopINS_6MatrixIdLin1ELin1ELi0ELin1ELin1EEENS_9TransposeIS3_EENS0_9assign_opIddEEEEvRT_RKT0_RKT1_+0xc9>
  40c119:	48 89 45 c8          	mov    %rax,-0x38(%rbp)
  40c11d:	89 55 c4             	mov    %edx,-0x3c(%rbp)
  40c120:	48 8d 7d b0          	lea    -0x50(%rbp),%rdi
  40c124:	e8 c7 f8 ff ff       	callq  40b9f0 <_ZN5Eigen8internal9evaluatorINS_6MatrixIdLin1ELin1ELi0ELin1ELin1EEEED2Ev>
  40c129:	48 8d 7d d0          	lea    -0x30(%rbp),%rdi
  40c12d:	e8 ae 01 00 00       	callq  40c2e0 <_ZN5Eigen8internal9evaluatorINS_9TransposeINS_6MatrixIdLin1ELin1ELi0ELin1ELin1EEEEEED2Ev>
  40c132:	48 8b 7d c8          	mov    -0x38(%rbp),%rdi
  40c136:	e8 a5 72 ff ff       	callq  4033e0 <_Unwind_Resume@plt>
  40c13b:	0f 1f 44 00 00       	nopl   0x0(%rax,%rax,1)

000000000040c140 <_ZN5Eigen8internal9evaluatorINS_9TransposeINS_6MatrixIdLin1ELin1ELi0ELin1ELin1EEEEEEC2ERKS5_>:
  40c140:	55                   	push   %rbp
  40c141:	48 89 e5             	mov    %rsp,%rbp
  40c144:	48 83 ec 10          	sub    $0x10,%rsp
  40c148:	48 89 7d f8          	mov    %rdi,-0x8(%rbp)
  40c14c:	48 89 75 f0          	mov    %rsi,-0x10(%rbp)
  40c150:	48 8b 45 f8          	mov    -0x8(%rbp),%rax
  40c154:	48 8b 75 f0          	mov    -0x10(%rbp),%rsi
  40c158:	48 89 c7             	mov    %rax,%rdi
  40c15b:	e8 a0 01 00 00       	callq  40c300 <_ZN5Eigen8internal15unary_evaluatorINS_9TransposeINS_6MatrixIdLin1ELin1ELi0ELin1ELin1EEEEENS0_10IndexBasedEdEC2ERKS5_>
  40c160:	48 83 c4 10          	add    $0x10,%rsp
  40c164:	5d                   	pop    %rbp
  40c165:	c3                   	retq   
  40c166:	66 2e 0f 1f 84 00 00 	nopw   %cs:0x0(%rax,%rax,1)
  40c16d:	00 00 00 

000000000040c170 <_ZN5Eigen8internal17resize_if_allowedINS_6MatrixIdLin1ELin1ELi0ELin1ELin1EEENS_9TransposeIS3_EEddEEvRT_RKT0_RKNS0_9assign_opIT1_T2_EE>:
  40c170:	55                   	push   %rbp
  40c171:	48 89 e5             	mov    %rsp,%rbp
  40c174:	48 83 ec 30          	sub    $0x30,%rsp
  40c178:	48 89 7d f8          	mov    %rdi,-0x8(%rbp)
  40c17c:	48 89 75 f0          	mov    %rsi,-0x10(%rbp)
  40c180:	48 89 55 e8          	mov    %rdx,-0x18(%rbp)
  40c184:	48 8b 7d f0          	mov    -0x10(%rbp),%rdi
  40c188:	e8 b3 fd ff ff       	callq  40bf40 <_ZNK5Eigen9TransposeINS_6MatrixIdLin1ELin1ELi0ELin1ELin1EEEE4rowsEv>
  40c18d:	48 89 45 e0          	mov    %rax,-0x20(%rbp)
  40c191:	48 8b 7d f0          	mov    -0x10(%rbp),%rdi
  40c195:	e8 d6 fd ff ff       	callq  40bf70 <_ZNK5Eigen9TransposeINS_6MatrixIdLin1ELin1ELi0ELin1ELin1EEEE4colsEv>
  40c19a:	48 89 45 d8          	mov    %rax,-0x28(%rbp)
  40c19e:	48 8b 45 f8          	mov    -0x8(%rbp),%rax
  40c1a2:	48 89 c7             	mov    %rax,%rdi
  40c1a5:	e8 66 fa ff ff       	callq  40bc10 <_ZNK5Eigen15PlainObjectBaseINS_6MatrixIdLin1ELin1ELi0ELin1ELin1EEEE4rowsEv>
  40c1aa:	48 3b 45 e0          	cmp    -0x20(%rbp),%rax
  40c1ae:	0f 85 16 00 00 00    	jne    40c1ca <_ZN5Eigen8internal17resize_if_allowedINS_6MatrixIdLin1ELin1ELi0ELin1ELin1EEENS_9TransposeIS3_EEddEEvRT_RKT0_RKNS0_9assign_opIT1_T2_EE+0x5a>
  40c1b4:	48 8b 45 f8          	mov    -0x8(%rbp),%rax
  40c1b8:	48 89 c7             	mov    %rax,%rdi
  40c1bb:	e8 e0 fd ff ff       	callq  40bfa0 <_ZNK5Eigen15PlainObjectBaseINS_6MatrixIdLin1ELin1ELi0ELin1ELin1EEEE4colsEv>
  40c1c0:	48 3b 45 d8          	cmp    -0x28(%rbp),%rax
  40c1c4:	0f 84 14 00 00 00    	je     40c1de <_ZN5Eigen8internal17resize_if_allowedINS_6MatrixIdLin1ELin1ELi0ELin1ELin1EEENS_9TransposeIS3_EEddEEvRT_RKT0_RKNS0_9assign_opIT1_T2_EE+0x6e>
  40c1ca:	48 8b 45 f8          	mov    -0x8(%rbp),%rax
  40c1ce:	48 8b 75 e0          	mov    -0x20(%rbp),%rsi
  40c1d2:	48 8b 55 d8          	mov    -0x28(%rbp),%rdx
  40c1d6:	48 89 c7             	mov    %rax,%rdi
  40c1d9:	e8 e2 f3 ff ff       	callq  40b5c0 <_ZN5Eigen15PlainObjectBaseINS_6MatrixIdLin1ELin1ELi0ELin1ELin1EEEE6resizeEll>
  40c1de:	48 83 c4 30          	add    $0x30,%rsp
  40c1e2:	5d                   	pop    %rbp
  40c1e3:	c3                   	retq   
  40c1e4:	66 2e 0f 1f 84 00 00 	nopw   %cs:0x0(%rax,%rax,1)
  40c1eb:	00 00 00 
  40c1ee:	66 90                	xchg   %ax,%ax

000000000040c1f0 <_ZNK5Eigen9EigenBaseINS_6MatrixIdLin1ELin1ELi0ELin1ELin1EEEE18const_cast_derivedEv>:
  40c1f0:	55                   	push   %rbp
  40c1f1:	48 89 e5             	mov    %rsp,%rbp
  40c1f4:	48 89 7d f8          	mov    %rdi,-0x8(%rbp)
  40c1f8:	48 8b 45 f8          	mov    -0x8(%rbp),%rax
  40c1fc:	5d                   	pop    %rbp
  40c1fd:	c3                   	retq   
  40c1fe:	66 90                	xchg   %ax,%ax

000000000040c200 <_ZN5Eigen8internal31generic_dense_assignment_kernelINS0_9evaluatorINS_6MatrixIdLin1ELin1ELi0ELin1ELin1EEEEENS2_INS_9TransposeIS4_EEEENS0_9assign_opIddEELi0EEC2ERS5_RKS8_RKSA_RS4_>:
  40c200:	55                   	push   %rbp
  40c201:	48 89 e5             	mov    %rsp,%rbp
  40c204:	48 89 7d f8          	mov    %rdi,-0x8(%rbp)
  40c208:	48 89 75 f0          	mov    %rsi,-0x10(%rbp)
  40c20c:	48 89 55 e8          	mov    %rdx,-0x18(%rbp)
  40c210:	48 89 4d e0          	mov    %rcx,-0x20(%rbp)
  40c214:	4c 89 45 d8          	mov    %r8,-0x28(%rbp)
  40c218:	48 8b 45 f8          	mov    -0x8(%rbp),%rax
  40c21c:	48 8b 4d f0          	mov    -0x10(%rbp),%rcx
  40c220:	48 89 08             	mov    %rcx,(%rax)
  40c223:	48 8b 4d e8          	mov    -0x18(%rbp),%rcx
  40c227:	48 89 48 08          	mov    %rcx,0x8(%rax)
  40c22b:	48 8b 4d e0          	mov    -0x20(%rbp),%rcx
  40c22f:	48 89 48 10          	mov    %rcx,0x10(%rax)
  40c233:	48 8b 4d d8          	mov    -0x28(%rbp),%rcx
  40c237:	48 89 48 18          	mov    %rcx,0x18(%rax)
  40c23b:	5d                   	pop    %rbp
  40c23c:	c3                   	retq   
  40c23d:	0f 1f 00             	nopl   (%rax)

000000000040c240 <_ZN5Eigen8internal21dense_assignment_loopINS0_31generic_dense_assignment_kernelINS0_9evaluatorINS_6MatrixIdLin1ELin1ELi0ELin1ELin1EEEEENS3_INS_9TransposeIS5_EEEENS0_9assign_opIddEELi0EEELi0ELi0EE3runERSC_>:
  40c240:	55                   	push   %rbp
  40c241:	48 89 e5             	mov    %rsp,%rbp
  40c244:	48 83 ec 30          	sub    $0x30,%rsp
  40c248:	48 89 7d f8          	mov    %rdi,-0x8(%rbp)
  40c24c:	48 c7 45 f0 00 00 00 	movq   $0x0,-0x10(%rbp)
  40c253:	00 
  40c254:	48 8b 45 f0          	mov    -0x10(%rbp),%rax
  40c258:	48 8b 7d f8          	mov    -0x8(%rbp),%rdi
  40c25c:	48 89 45 e0          	mov    %rax,-0x20(%rbp)
  40c260:	e8 7b 01 00 00       	callq  40c3e0 <_ZNK5Eigen8internal31generic_dense_assignment_kernelINS0_9evaluatorINS_6MatrixIdLin1ELin1ELi0ELin1ELin1EEEEENS2_INS_9TransposeIS4_EEEENS0_9assign_opIddEELi0EE9outerSizeEv>
  40c265:	48 8b 4d e0          	mov    -0x20(%rbp),%rcx
  40c269:	48 39 c1             	cmp    %rax,%rcx
  40c26c:	0f 8d 62 00 00 00    	jge    40c2d4 <_ZN5Eigen8internal21dense_assignment_loopINS0_31generic_dense_assignment_kernelINS0_9evaluatorINS_6MatrixIdLin1ELin1ELi0ELin1ELin1EEEEENS3_INS_9TransposeIS5_EEEENS0_9assign_opIddEELi0EEELi0ELi0EE3runERSC_+0x94>
  40c272:	48 c7 45 e8 00 00 00 	movq   $0x0,-0x18(%rbp)
  40c279:	00 
  40c27a:	48 8b 45 e8          	mov    -0x18(%rbp),%rax
  40c27e:	48 8b 7d f8          	mov    -0x8(%rbp),%rdi
  40c282:	48 89 45 d8          	mov    %rax,-0x28(%rbp)
  40c286:	e8 85 01 00 00       	callq  40c410 <_ZNK5Eigen8internal31generic_dense_assignment_kernelINS0_9evaluatorINS_6MatrixIdLin1ELin1ELi0ELin1ELin1EEEEENS2_INS_9TransposeIS4_EEEENS0_9assign_opIddEELi0EE9innerSizeEv>
  40c28b:	48 8b 4d d8          	mov    -0x28(%rbp),%rcx
  40c28f:	48 39 c1             	cmp    %rax,%rcx
  40c292:	0f 8d 24 00 00 00    	jge    40c2bc <_ZN5Eigen8internal21dense_assignment_loopINS0_31generic_dense_assignment_kernelINS0_9evaluatorINS_6MatrixIdLin1ELin1ELi0ELin1ELin1EEEEENS3_INS_9TransposeIS5_EEEENS0_9assign_opIddEELi0EEELi0ELi0EE3runERSC_+0x7c>
  40c298:	48 8b 7d f8          	mov    -0x8(%rbp),%rdi
  40c29c:	48 8b 75 f0          	mov    -0x10(%rbp),%rsi
  40c2a0:	48 8b 55 e8          	mov    -0x18(%rbp),%rdx
  40c2a4:	e8 97 01 00 00       	callq  40c440 <_ZN5Eigen8internal31generic_dense_assignment_kernelINS0_9evaluatorINS_6MatrixIdLin1ELin1ELi0ELin1ELin1EEEEENS2_INS_9TransposeIS4_EEEENS0_9assign_opIddEELi0EE23assignCoeffByOuterInnerEll>
  40c2a9:	48 8b 45 e8          	mov    -0x18(%rbp),%rax
  40c2ad:	48 05 01 00 00 00    	add    $0x1,%rax
  40c2b3:	48 89 45 e8          	mov    %rax,-0x18(%rbp)
  40c2b7:	e9 be ff ff ff       	jmpq   40c27a <_ZN5Eigen8internal21dense_assignment_loopINS0_31generic_dense_assignment_kernelINS0_9evaluatorINS_6MatrixIdLin1ELin1ELi0ELin1ELin1EEEEENS3_INS_9TransposeIS5_EEEENS0_9assign_opIddEELi0EEELi0ELi0EE3runERSC_+0x3a>
  40c2bc:	e9 00 00 00 00       	jmpq   40c2c1 <_ZN5Eigen8internal21dense_assignment_loopINS0_31generic_dense_assignment_kernelINS0_9evaluatorINS_6MatrixIdLin1ELin1ELi0ELin1ELin1EEEEENS3_INS_9TransposeIS5_EEEENS0_9assign_opIddEELi0EEELi0ELi0EE3runERSC_+0x81>
  40c2c1:	48 8b 45 f0          	mov    -0x10(%rbp),%rax
  40c2c5:	48 05 01 00 00 00    	add    $0x1,%rax
  40c2cb:	48 89 45 f0          	mov    %rax,-0x10(%rbp)
  40c2cf:	e9 80 ff ff ff       	jmpq   40c254 <_ZN5Eigen8internal21dense_assignment_loopINS0_31generic_dense_assignment_kernelINS0_9evaluatorINS_6MatrixIdLin1ELin1ELi0ELin1ELin1EEEEENS3_INS_9TransposeIS5_EEEENS0_9assign_opIddEELi0EEELi0ELi0EE3runERSC_+0x14>
  40c2d4:	48 83 c4 30          	add    $0x30,%rsp
  40c2d8:	5d                   	pop    %rbp
  40c2d9:	c3                   	retq   
  40c2da:	66 0f 1f 44 00 00    	nopw   0x0(%rax,%rax,1)

000000000040c2e0 <_ZN5Eigen8internal9evaluatorINS_9TransposeINS_6MatrixIdLin1ELin1ELi0ELin1ELin1EEEEEED2Ev>:
  40c2e0:	55                   	push   %rbp
  40c2e1:	48 89 e5             	mov    %rsp,%rbp
  40c2e4:	48 83 ec 10          	sub    $0x10,%rsp
  40c2e8:	48 89 7d f8          	mov    %rdi,-0x8(%rbp)
  40c2ec:	48 8b 45 f8          	mov    -0x8(%rbp),%rax
  40c2f0:	48 89 c7             	mov    %rax,%rdi
  40c2f3:	e8 88 03 00 00       	callq  40c680 <_ZN5Eigen8internal15unary_evaluatorINS_9TransposeINS_6MatrixIdLin1ELin1ELi0ELin1ELin1EEEEENS0_10IndexBasedEdED2Ev>
  40c2f8:	48 83 c4 10          	add    $0x10,%rsp
  40c2fc:	5d                   	pop    %rbp
  40c2fd:	c3                   	retq   
  40c2fe:	66 90                	xchg   %ax,%ax

000000000040c300 <_ZN5Eigen8internal15unary_evaluatorINS_9TransposeINS_6MatrixIdLin1ELin1ELi0ELin1ELin1EEEEENS0_10IndexBasedEdEC2ERKS5_>:
  40c300:	55                   	push   %rbp
  40c301:	48 89 e5             	mov    %rsp,%rbp
  40c304:	48 83 ec 40          	sub    $0x40,%rsp
  40c308:	48 89 7d f8          	mov    %rdi,-0x8(%rbp)
  40c30c:	48 89 75 f0          	mov    %rsi,-0x10(%rbp)
  40c310:	48 8b 45 f8          	mov    -0x8(%rbp),%rax
  40c314:	48 89 c7             	mov    %rax,%rdi
  40c317:	48 89 45 d8          	mov    %rax,-0x28(%rbp)
  40c31b:	e8 60 00 00 00       	callq  40c380 <_ZN5Eigen8internal14evaluator_baseINS_9TransposeINS_6MatrixIdLin1ELin1ELi0ELin1ELin1EEEEEEC2Ev>
  40c320:	48 8b 45 d8          	mov    -0x28(%rbp),%rax
  40c324:	48 83 c0 08          	add    $0x8,%rax
  40c328:	48 8b 7d f0          	mov    -0x10(%rbp),%rdi
  40c32c:	48 89 45 d0          	mov    %rax,-0x30(%rbp)
  40c330:	e8 6b 00 00 00       	callq  40c3a0 <_ZNK5Eigen9TransposeINS_6MatrixIdLin1ELin1ELi0ELin1ELin1EEEE16nestedExpressionEv>
  40c335:	48 89 45 c8          	mov    %rax,-0x38(%rbp)
  40c339:	e9 00 00 00 00       	jmpq   40c33e <_ZN5Eigen8internal15unary_evaluatorINS_9TransposeINS_6MatrixIdLin1ELin1ELi0ELin1ELin1EEEEENS0_10IndexBasedEdEC2ERKS5_+0x3e>
  40c33e:	48 8b 7d d0          	mov    -0x30(%rbp),%rdi
  40c342:	48 8b 75 c8          	mov    -0x38(%rbp),%rsi
  40c346:	e8 15 f6 ff ff       	callq  40b960 <_ZN5Eigen8internal9evaluatorINS_6MatrixIdLin1ELin1ELi0ELin1ELin1EEEEC2ERKS3_>
  40c34b:	e9 00 00 00 00       	jmpq   40c350 <_ZN5Eigen8internal15unary_evaluatorINS_9TransposeINS_6MatrixIdLin1ELin1ELi0ELin1ELin1EEEEENS0_10IndexBasedEdEC2ERKS5_+0x50>
  40c350:	48 83 c4 40          	add    $0x40,%rsp
  40c354:	5d                   	pop    %rbp
  40c355:	c3                   	retq   
  40c356:	48 89 45 e8          	mov    %rax,-0x18(%rbp)
  40c35a:	89 55 e4             	mov    %edx,-0x1c(%rbp)
  40c35d:	48 8b 45 d8          	mov    -0x28(%rbp),%rax
  40c361:	48 89 c7             	mov    %rax,%rdi
  40c364:	e8 57 00 00 00       	callq  40c3c0 <_ZN5Eigen8internal14evaluator_baseINS_9TransposeINS_6MatrixIdLin1ELin1ELi0ELin1ELin1EEEEEED2Ev>
  40c369:	48 8b 7d e8          	mov    -0x18(%rbp),%rdi
  40c36d:	e8 6e 70 ff ff       	callq  4033e0 <_Unwind_Resume@plt>
  40c372:	66 2e 0f 1f 84 00 00 	nopw   %cs:0x0(%rax,%rax,1)
  40c379:	00 00 00 
  40c37c:	0f 1f 40 00          	nopl   0x0(%rax)

000000000040c380 <_ZN5Eigen8internal14evaluator_baseINS_9TransposeINS_6MatrixIdLin1ELin1ELi0ELin1ELin1EEEEEEC2Ev>:
  40c380:	55                   	push   %rbp
  40c381:	48 89 e5             	mov    %rsp,%rbp
  40c384:	48 83 ec 10          	sub    $0x10,%rsp
  40c388:	48 89 7d f8          	mov    %rdi,-0x8(%rbp)
  40c38c:	48 8b 45 f8          	mov    -0x8(%rbp),%rax
  40c390:	48 89 c7             	mov    %rax,%rdi
  40c393:	e8 c8 f7 ff ff       	callq  40bb60 <_ZN5Eigen8internal11noncopyableC2Ev>
  40c398:	48 83 c4 10          	add    $0x10,%rsp
  40c39c:	5d                   	pop    %rbp
  40c39d:	c3                   	retq   
  40c39e:	66 90                	xchg   %ax,%ax

000000000040c3a0 <_ZNK5Eigen9TransposeINS_6MatrixIdLin1ELin1ELi0ELin1ELin1EEEE16nestedExpressionEv>:
  40c3a0:	55                   	push   %rbp
  40c3a1:	48 89 e5             	mov    %rsp,%rbp
  40c3a4:	48 89 7d f8          	mov    %rdi,-0x8(%rbp)
  40c3a8:	48 8b 45 f8          	mov    -0x8(%rbp),%rax
  40c3ac:	48 8b 00             	mov    (%rax),%rax
  40c3af:	5d                   	pop    %rbp
  40c3b0:	c3                   	retq   
  40c3b1:	66 2e 0f 1f 84 00 00 	nopw   %cs:0x0(%rax,%rax,1)
  40c3b8:	00 00 00 
  40c3bb:	0f 1f 44 00 00       	nopl   0x0(%rax,%rax,1)

000000000040c3c0 <_ZN5Eigen8internal14evaluator_baseINS_9TransposeINS_6MatrixIdLin1ELin1ELi0ELin1ELin1EEEEEED2Ev>:
  40c3c0:	55                   	push   %rbp
  40c3c1:	48 89 e5             	mov    %rsp,%rbp
  40c3c4:	48 83 ec 10          	sub    $0x10,%rsp
  40c3c8:	48 89 7d f8          	mov    %rdi,-0x8(%rbp)
  40c3cc:	48 8b 45 f8          	mov    -0x8(%rbp),%rax
  40c3d0:	48 89 c7             	mov    %rax,%rdi
  40c3d3:	e8 78 f8 ff ff       	callq  40bc50 <_ZN5Eigen8internal11noncopyableD2Ev>
  40c3d8:	48 83 c4 10          	add    $0x10,%rsp
  40c3dc:	5d                   	pop    %rbp
  40c3dd:	c3                   	retq   
  40c3de:	66 90                	xchg   %ax,%ax

000000000040c3e0 <_ZNK5Eigen8internal31generic_dense_assignment_kernelINS0_9evaluatorINS_6MatrixIdLin1ELin1ELi0ELin1ELin1EEEEENS2_INS_9TransposeIS4_EEEENS0_9assign_opIddEELi0EE9outerSizeEv>:
  40c3e0:	55                   	push   %rbp
  40c3e1:	48 89 e5             	mov    %rsp,%rbp
  40c3e4:	48 83 ec 10          	sub    $0x10,%rsp
  40c3e8:	48 89 7d f8          	mov    %rdi,-0x8(%rbp)
  40c3ec:	48 8b 45 f8          	mov    -0x8(%rbp),%rax
  40c3f0:	48 8b 40 18          	mov    0x18(%rax),%rax
  40c3f4:	48 89 c7             	mov    %rax,%rdi
  40c3f7:	e8 a4 00 00 00       	callq  40c4a0 <_ZNK5Eigen9DenseBaseINS_6MatrixIdLin1ELin1ELi0ELin1ELin1EEEE9outerSizeEv>
  40c3fc:	48 83 c4 10          	add    $0x10,%rsp
  40c400:	5d                   	pop    %rbp
  40c401:	c3                   	retq   
  40c402:	66 2e 0f 1f 84 00 00 	nopw   %cs:0x0(%rax,%rax,1)
  40c409:	00 00 00 
  40c40c:	0f 1f 40 00          	nopl   0x0(%rax)

000000000040c410 <_ZNK5Eigen8internal31generic_dense_assignment_kernelINS0_9evaluatorINS_6MatrixIdLin1ELin1ELi0ELin1ELin1EEEEENS2_INS_9TransposeIS4_EEEENS0_9assign_opIddEELi0EE9innerSizeEv>:
  40c410:	55                   	push   %rbp
  40c411:	48 89 e5             	mov    %rsp,%rbp
  40c414:	48 83 ec 10          	sub    $0x10,%rsp
  40c418:	48 89 7d f8          	mov    %rdi,-0x8(%rbp)
  40c41c:	48 8b 45 f8          	mov    -0x8(%rbp),%rax
  40c420:	48 8b 40 18          	mov    0x18(%rax),%rax
  40c424:	48 89 c7             	mov    %rax,%rdi
  40c427:	e8 94 f7 ff ff       	callq  40bbc0 <_ZNK5Eigen9DenseBaseINS_6MatrixIdLin1ELin1ELi0ELin1ELin1EEEE9innerSizeEv>
  40c42c:	48 83 c4 10          	add    $0x10,%rsp
  40c430:	5d                   	pop    %rbp
  40c431:	c3                   	retq   
  40c432:	66 2e 0f 1f 84 00 00 	nopw   %cs:0x0(%rax,%rax,1)
  40c439:	00 00 00 
  40c43c:	0f 1f 40 00          	nopl   0x0(%rax)

000000000040c440 <_ZN5Eigen8internal31generic_dense_assignment_kernelINS0_9evaluatorINS_6MatrixIdLin1ELin1ELi0ELin1ELin1EEEEENS2_INS_9TransposeIS4_EEEENS0_9assign_opIddEELi0EE23assignCoeffByOuterInnerEll>:
  40c440:	55                   	push   %rbp
  40c441:	48 89 e5             	mov    %rsp,%rbp
  40c444:	48 83 ec 30          	sub    $0x30,%rsp
  40c448:	48 89 7d f8          	mov    %rdi,-0x8(%rbp)
  40c44c:	48 89 75 f0          	mov    %rsi,-0x10(%rbp)
  40c450:	48 89 55 e8          	mov    %rdx,-0x18(%rbp)
  40c454:	48 8b 7d f8          	mov    -0x8(%rbp),%rdi
  40c458:	48 8b 45 f0          	mov    -0x10(%rbp),%rax
  40c45c:	48 8b 75 e8          	mov    -0x18(%rbp),%rsi
  40c460:	48 89 7d d0          	mov    %rdi,-0x30(%rbp)
  40c464:	48 89 c7             	mov    %rax,%rdi
  40c467:	e8 84 00 00 00       	callq  40c4f0 <_ZN5Eigen8internal31generic_dense_assignment_kernelINS0_9evaluatorINS_6MatrixIdLin1ELin1ELi0ELin1ELin1EEEEENS2_INS_9TransposeIS4_EEEENS0_9assign_opIddEELi0EE20rowIndexByOuterInnerEll>
  40c46c:	48 89 45 e0          	mov    %rax,-0x20(%rbp)
  40c470:	48 8b 7d f0          	mov    -0x10(%rbp),%rdi
  40c474:	48 8b 75 e8          	mov    -0x18(%rbp),%rsi
  40c478:	e8 93 00 00 00       	callq  40c510 <_ZN5Eigen8internal31generic_dense_assignment_kernelINS0_9evaluatorINS_6MatrixIdLin1ELin1ELi0ELin1ELin1EEEEENS2_INS_9TransposeIS4_EEEENS0_9assign_opIddEELi0EE20colIndexByOuterInnerEll>
  40c47d:	48 89 45 d8          	mov    %rax,-0x28(%rbp)
  40c481:	48 8b 75 e0          	mov    -0x20(%rbp),%rsi
  40c485:	48 8b 55 d8          	mov    -0x28(%rbp),%rdx
  40c489:	48 8b 7d d0          	mov    -0x30(%rbp),%rdi
  40c48d:	e8 9e 00 00 00       	callq  40c530 <_ZN5Eigen8internal31generic_dense_assignment_kernelINS0_9evaluatorINS_6MatrixIdLin1ELin1ELi0ELin1ELin1EEEEENS2_INS_9TransposeIS4_EEEENS0_9assign_opIddEELi0EE11assignCoeffEll>
  40c492:	48 83 c4 30          	add    $0x30,%rsp
  40c496:	5d                   	pop    %rbp
  40c497:	c3                   	retq   
  40c498:	0f 1f 84 00 00 00 00 	nopl   0x0(%rax,%rax,1)
  40c49f:	00 

000000000040c4a0 <_ZNK5Eigen9DenseBaseINS_6MatrixIdLin1ELin1ELi0ELin1ELin1EEEE9outerSizeEv>:
  40c4a0:	55                   	push   %rbp
  40c4a1:	48 89 e5             	mov    %rsp,%rbp
  40c4a4:	48 83 ec 10          	sub    $0x10,%rsp
  40c4a8:	48 89 7d f8          	mov    %rdi,-0x8(%rbp)
  40c4ac:	48 8b 45 f8          	mov    -0x8(%rbp),%rax
  40c4b0:	48 89 c7             	mov    %rax,%rdi
  40c4b3:	e8 08 00 00 00       	callq  40c4c0 <_ZNK5Eigen9EigenBaseINS_6MatrixIdLin1ELin1ELi0ELin1ELin1EEEE4colsEv>
  40c4b8:	48 83 c4 10          	add    $0x10,%rsp
  40c4bc:	5d                   	pop    %rbp
  40c4bd:	c3                   	retq   
  40c4be:	66 90                	xchg   %ax,%ax

000000000040c4c0 <_ZNK5Eigen9EigenBaseINS_6MatrixIdLin1ELin1ELi0ELin1ELin1EEEE4colsEv>:
  40c4c0:	55                   	push   %rbp
  40c4c1:	48 89 e5             	mov    %rsp,%rbp
  40c4c4:	48 83 ec 10          	sub    $0x10,%rsp
  40c4c8:	48 89 7d f8          	mov    %rdi,-0x8(%rbp)
  40c4cc:	48 8b 7d f8          	mov    -0x8(%rbp),%rdi
  40c4d0:	e8 bb f6 ff ff       	callq  40bb90 <_ZNK5Eigen9EigenBaseINS_6MatrixIdLin1ELin1ELi0ELin1ELin1EEEE7derivedEv>
  40c4d5:	48 89 c7             	mov    %rax,%rdi
  40c4d8:	e8 c3 fa ff ff       	callq  40bfa0 <_ZNK5Eigen15PlainObjectBaseINS_6MatrixIdLin1ELin1ELi0ELin1ELin1EEEE4colsEv>
  40c4dd:	48 83 c4 10          	add    $0x10,%rsp
  40c4e1:	5d                   	pop    %rbp
  40c4e2:	c3                   	retq   
  40c4e3:	66 2e 0f 1f 84 00 00 	nopw   %cs:0x0(%rax,%rax,1)
  40c4ea:	00 00 00 
  40c4ed:	0f 1f 00             	nopl   (%rax)

000000000040c4f0 <_ZN5Eigen8internal31generic_dense_assignment_kernelINS0_9evaluatorINS_6MatrixIdLin1ELin1ELi0ELin1ELin1EEEEENS2_INS_9TransposeIS4_EEEENS0_9assign_opIddEELi0EE20rowIndexByOuterInnerEll>:
  40c4f0:	55                   	push   %rbp
  40c4f1:	48 89 e5             	mov    %rsp,%rbp
  40c4f4:	48 89 7d f8          	mov    %rdi,-0x8(%rbp)
  40c4f8:	48 89 75 f0          	mov    %rsi,-0x10(%rbp)
  40c4fc:	48 8b 45 f0          	mov    -0x10(%rbp),%rax
  40c500:	5d                   	pop    %rbp
  40c501:	c3                   	retq   
  40c502:	66 2e 0f 1f 84 00 00 	nopw   %cs:0x0(%rax,%rax,1)
  40c509:	00 00 00 
  40c50c:	0f 1f 40 00          	nopl   0x0(%rax)

000000000040c510 <_ZN5Eigen8internal31generic_dense_assignment_kernelINS0_9evaluatorINS_6MatrixIdLin1ELin1ELi0ELin1ELin1EEEEENS2_INS_9TransposeIS4_EEEENS0_9assign_opIddEELi0EE20colIndexByOuterInnerEll>:
  40c510:	55                   	push   %rbp
  40c511:	48 89 e5             	mov    %rsp,%rbp
  40c514:	48 89 7d f8          	mov    %rdi,-0x8(%rbp)
  40c518:	48 89 75 f0          	mov    %rsi,-0x10(%rbp)
  40c51c:	48 8b 45 f8          	mov    -0x8(%rbp),%rax
  40c520:	5d                   	pop    %rbp
  40c521:	c3                   	retq   
  40c522:	66 2e 0f 1f 84 00 00 	nopw   %cs:0x0(%rax,%rax,1)
  40c529:	00 00 00 
  40c52c:	0f 1f 40 00          	nopl   0x0(%rax)

000000000040c530 <_ZN5Eigen8internal31generic_dense_assignment_kernelINS0_9evaluatorINS_6MatrixIdLin1ELin1ELi0ELin1ELin1EEEEENS2_INS_9TransposeIS4_EEEENS0_9assign_opIddEELi0EE11assignCoeffEll>:
  40c530:	55                   	push   %rbp
  40c531:	48 89 e5             	mov    %rsp,%rbp
  40c534:	48 83 ec 40          	sub    $0x40,%rsp
  40c538:	48 89 7d f8          	mov    %rdi,-0x8(%rbp)
  40c53c:	48 89 75 f0          	mov    %rsi,-0x10(%rbp)
  40c540:	48 89 55 e8          	mov    %rdx,-0x18(%rbp)
  40c544:	48 8b 45 f8          	mov    -0x8(%rbp),%rax
  40c548:	48 8b 78 10          	mov    0x10(%rax),%rdi
  40c54c:	48 8b 08             	mov    (%rax),%rcx
  40c54f:	48 8b 75 f0          	mov    -0x10(%rbp),%rsi
  40c553:	48 8b 55 e8          	mov    -0x18(%rbp),%rdx
  40c557:	48 89 7d e0          	mov    %rdi,-0x20(%rbp)
  40c55b:	48 89 cf             	mov    %rcx,%rdi
  40c55e:	48 89 45 d8          	mov    %rax,-0x28(%rbp)
  40c562:	e8 29 f4 ff ff       	callq  40b990 <_ZN5Eigen8internal9evaluatorINS_15PlainObjectBaseINS_6MatrixIdLin1ELin1ELi0ELin1ELin1EEEEEE8coeffRefEll>
  40c567:	48 8b 4d d8          	mov    -0x28(%rbp),%rcx
  40c56b:	48 8b 51 08          	mov    0x8(%rcx),%rdx
  40c56f:	48 8b 75 f0          	mov    -0x10(%rbp),%rsi
  40c573:	48 8b 7d e8          	mov    -0x18(%rbp),%rdi
  40c577:	48 89 7d d0          	mov    %rdi,-0x30(%rbp)
  40c57b:	48 89 d7             	mov    %rdx,%rdi
  40c57e:	48 8b 55 d0          	mov    -0x30(%rbp),%rdx
  40c582:	48 89 45 c8          	mov    %rax,-0x38(%rbp)
  40c586:	e8 55 00 00 00       	callq  40c5e0 <_ZNK5Eigen8internal15unary_evaluatorINS_9TransposeINS_6MatrixIdLin1ELin1ELi0ELin1ELin1EEEEENS0_10IndexBasedEdE5coeffEll>
  40c58b:	48 8b 7d e0          	mov    -0x20(%rbp),%rdi
  40c58f:	48 8b 75 c8          	mov    -0x38(%rbp),%rsi
  40c593:	48 89 c2             	mov    %rax,%rdx
  40c596:	e8 15 00 00 00       	callq  40c5b0 <_ZNK5Eigen8internal9assign_opIddE11assignCoeffERdRKd>
  40c59b:	48 83 c4 40          	add    $0x40,%rsp
  40c59f:	5d                   	pop    %rbp
  40c5a0:	c3                   	retq   
  40c5a1:	66 2e 0f 1f 84 00 00 	nopw   %cs:0x0(%rax,%rax,1)
  40c5a8:	00 00 00 
  40c5ab:	0f 1f 44 00 00       	nopl   0x0(%rax,%rax,1)

000000000040c5b0 <_ZNK5Eigen8internal9assign_opIddE11assignCoeffERdRKd>:
  40c5b0:	55                   	push   %rbp
  40c5b1:	48 89 e5             	mov    %rsp,%rbp
  40c5b4:	48 89 7d f8          	mov    %rdi,-0x8(%rbp)
  40c5b8:	48 89 75 f0          	mov    %rsi,-0x10(%rbp)
  40c5bc:	48 89 55 e8          	mov    %rdx,-0x18(%rbp)
  40c5c0:	48 8b 45 e8          	mov    -0x18(%rbp),%rax
  40c5c4:	f2 0f 10 00          	movsd  (%rax),%xmm0
  40c5c8:	48 8b 45 f0          	mov    -0x10(%rbp),%rax
  40c5cc:	f2 0f 11 00          	movsd  %xmm0,(%rax)
  40c5d0:	5d                   	pop    %rbp
  40c5d1:	c3                   	retq   
  40c5d2:	66 2e 0f 1f 84 00 00 	nopw   %cs:0x0(%rax,%rax,1)
  40c5d9:	00 00 00 
  40c5dc:	0f 1f 40 00          	nopl   0x0(%rax)

000000000040c5e0 <_ZNK5Eigen8internal15unary_evaluatorINS_9TransposeINS_6MatrixIdLin1ELin1ELi0ELin1ELin1EEEEENS0_10IndexBasedEdE5coeffEll>:
  40c5e0:	55                   	push   %rbp
  40c5e1:	48 89 e5             	mov    %rsp,%rbp
  40c5e4:	48 83 ec 20          	sub    $0x20,%rsp
  40c5e8:	48 89 7d f8          	mov    %rdi,-0x8(%rbp)
  40c5ec:	48 89 75 f0          	mov    %rsi,-0x10(%rbp)
  40c5f0:	48 89 55 e8          	mov    %rdx,-0x18(%rbp)
  40c5f4:	48 8b 45 f8          	mov    -0x8(%rbp),%rax
  40c5f8:	48 05 08 00 00 00    	add    $0x8,%rax
  40c5fe:	48 8b 75 e8          	mov    -0x18(%rbp),%rsi
  40c602:	48 8b 55 f0          	mov    -0x10(%rbp),%rdx
  40c606:	48 89 c7             	mov    %rax,%rdi
  40c609:	e8 12 00 00 00       	callq  40c620 <_ZNK5Eigen8internal9evaluatorINS_15PlainObjectBaseINS_6MatrixIdLin1ELin1ELi0ELin1ELin1EEEEEE5coeffEll>
  40c60e:	48 83 c4 20          	add    $0x20,%rsp
  40c612:	5d                   	pop    %rbp
  40c613:	c3                   	retq   
  40c614:	66 2e 0f 1f 84 00 00 	nopw   %cs:0x0(%rax,%rax,1)
  40c61b:	00 00 00 
  40c61e:	66 90                	xchg   %ax,%ax

000000000040c620 <_ZNK5Eigen8internal9evaluatorINS_15PlainObjectBaseINS_6MatrixIdLin1ELin1ELi0ELin1ELin1EEEEEE5coeffEll>:
  40c620:	55                   	push   %rbp
  40c621:	48 89 e5             	mov    %rsp,%rbp
  40c624:	48 83 ec 30          	sub    $0x30,%rsp
  40c628:	48 89 7d f8          	mov    %rdi,-0x8(%rbp)
  40c62c:	48 89 75 f0          	mov    %rsi,-0x10(%rbp)
  40c630:	48 89 55 e8          	mov    %rdx,-0x18(%rbp)
  40c634:	48 8b 45 f8          	mov    -0x8(%rbp),%rax
  40c638:	48 8b 08             	mov    (%rax),%rcx
  40c63b:	48 8b 55 f0          	mov    -0x10(%rbp),%rdx
  40c63f:	48 8b 75 e8          	mov    -0x18(%rbp),%rsi
  40c643:	48 05 08 00 00 00    	add    $0x8,%rax
  40c649:	48 89 c7             	mov    %rax,%rdi
  40c64c:	48 89 4d e0          	mov    %rcx,-0x20(%rbp)
  40c650:	48 89 55 d8          	mov    %rdx,-0x28(%rbp)
  40c654:	48 89 75 d0          	mov    %rsi,-0x30(%rbp)
  40c658:	e8 03 f6 ff ff       	callq  40bc60 <_ZNK5Eigen8internal19variable_if_dynamicIlLin1EE5valueEv>
  40c65d:	48 8b 4d d0          	mov    -0x30(%rbp),%rcx
  40c661:	48 0f af c8          	imul   %rax,%rcx
  40c665:	48 8b 45 d8          	mov    -0x28(%rbp),%rax
  40c669:	48 01 c8             	add    %rcx,%rax
  40c66c:	48 c1 e0 03          	shl    $0x3,%rax
  40c670:	48 8b 4d e0          	mov    -0x20(%rbp),%rcx
  40c674:	48 01 c1             	add    %rax,%rcx
  40c677:	48 89 c8             	mov    %rcx,%rax
  40c67a:	48 83 c4 30          	add    $0x30,%rsp
  40c67e:	5d                   	pop    %rbp
  40c67f:	c3                   	retq   

000000000040c680 <_ZN5Eigen8internal15unary_evaluatorINS_9TransposeINS_6MatrixIdLin1ELin1ELi0ELin1ELin1EEEEENS0_10IndexBasedEdED2Ev>:
  40c680:	55                   	push   %rbp
  40c681:	48 89 e5             	mov    %rsp,%rbp
  40c684:	48 83 ec 10          	sub    $0x10,%rsp
  40c688:	48 89 7d f8          	mov    %rdi,-0x8(%rbp)
  40c68c:	48 8b 45 f8          	mov    -0x8(%rbp),%rax
  40c690:	48 89 c1             	mov    %rax,%rcx
  40c693:	48 81 c1 08 00 00 00 	add    $0x8,%rcx
  40c69a:	48 89 cf             	mov    %rcx,%rdi
  40c69d:	48 89 45 f0          	mov    %rax,-0x10(%rbp)
  40c6a1:	e8 4a f3 ff ff       	callq  40b9f0 <_ZN5Eigen8internal9evaluatorINS_6MatrixIdLin1ELin1ELi0ELin1ELin1EEEED2Ev>
  40c6a6:	48 8b 45 f0          	mov    -0x10(%rbp),%rax
  40c6aa:	48 89 c7             	mov    %rax,%rdi
  40c6ad:	e8 0e fd ff ff       	callq  40c3c0 <_ZN5Eigen8internal14evaluator_baseINS_9TransposeINS_6MatrixIdLin1ELin1ELi0ELin1ELin1EEEEEED2Ev>
  40c6b2:	48 83 c4 10          	add    $0x10,%rsp
  40c6b6:	5d                   	pop    %rbp
  40c6b7:	c3                   	retq   
  40c6b8:	0f 1f 84 00 00 00 00 	nopl   0x0(%rax,%rax,1)
  40c6bf:	00 

000000000040c6c0 <main>:
  40c6c0:	55                   	push   %rbp
  40c6c1:	48 89 e5             	mov    %rsp,%rbp
  40c6c4:	48 81 ec 40 01 00 00 	sub    $0x140,%rsp
  40c6cb:	c7 45 fc 00 00 00 00 	movl   $0x0,-0x4(%rbp)
  40c6d2:	89 7d f8             	mov    %edi,-0x8(%rbp)
  40c6d5:	48 89 75 f0          	mov    %rsi,-0x10(%rbp)
  40c6d9:	48 8b 45 f0          	mov    -0x10(%rbp),%rax
  40c6dd:	48 8b 70 08          	mov    0x8(%rax),%rsi
  40c6e1:	48 8d 45 80          	lea    -0x80(%rbp),%rax
  40c6e5:	48 89 c7             	mov    %rax,%rdi
  40c6e8:	48 89 b5 f0 fe ff ff 	mov    %rsi,-0x110(%rbp)
  40c6ef:	48 89 85 e8 fe ff ff 	mov    %rax,-0x118(%rbp)
  40c6f6:	e8 f5 6c ff ff       	callq  4033f0 <_ZNSaIcEC1Ev@plt>
  40c6fb:	48 8d 7d 88          	lea    -0x78(%rbp),%rdi
  40c6ff:	48 8b b5 f0 fe ff ff 	mov    -0x110(%rbp),%rsi
  40c706:	48 8b 95 e8 fe ff ff 	mov    -0x118(%rbp),%rdx
  40c70d:	e8 1e 6c ff ff       	callq  403330 <_ZNSt7__cxx1112basic_stringIcSt11char_traitsIcESaIcEEC1EPKcRKS3_@plt>
  40c712:	e9 00 00 00 00       	jmpq   40c717 <main+0x57>
  40c717:	48 8b 45 f0          	mov    -0x10(%rbp),%rax
  40c71b:	48 8b 70 10          	mov    0x10(%rax),%rsi
  40c71f:	48 8d 85 48 ff ff ff 	lea    -0xb8(%rbp),%rax
  40c726:	48 89 c7             	mov    %rax,%rdi
  40c729:	48 89 b5 e0 fe ff ff 	mov    %rsi,-0x120(%rbp)
  40c730:	48 89 85 d8 fe ff ff 	mov    %rax,-0x128(%rbp)
  40c737:	e8 b4 6c ff ff       	callq  4033f0 <_ZNSaIcEC1Ev@plt>
  40c73c:	48 8d bd 50 ff ff ff 	lea    -0xb0(%rbp),%rdi
  40c743:	48 8b b5 e0 fe ff ff 	mov    -0x120(%rbp),%rsi
  40c74a:	48 8b 95 d8 fe ff ff 	mov    -0x128(%rbp),%rdx
  40c751:	e8 da 6b ff ff       	callq  403330 <_ZNSt7__cxx1112basic_stringIcSt11char_traitsIcESaIcEEC1EPKcRKS3_@plt>
  40c756:	e9 00 00 00 00       	jmpq   40c75b <main+0x9b>
  40c75b:	48 8b 45 f0          	mov    -0x10(%rbp),%rax
  40c75f:	48 8b 40 18          	mov    0x18(%rax),%rax
  40c763:	48 85 c0             	test   %rax,%rax
  40c766:	0f 95 c1             	setne  %cl
  40c769:	0f b6 c9             	movzbl %cl,%ecx
  40c76c:	48 8d 7d a8          	lea    -0x58(%rbp),%rdi
  40c770:	48 8d 75 88          	lea    -0x78(%rbp),%rsi
  40c774:	48 8d 95 50 ff ff ff 	lea    -0xb0(%rbp),%rdx
  40c77b:	e8 10 02 00 00       	callq  40c990 <_ZN3ETLC2ENSt7__cxx1112basic_stringIcSt11char_traitsIcESaIcEEES5_b>
  40c780:	e9 00 00 00 00       	jmpq   40c785 <main+0xc5>
  40c785:	48 8d bd 50 ff ff ff 	lea    -0xb0(%rbp),%rdi
  40c78c:	e8 af 69 ff ff       	callq  403140 <_ZNSt7__cxx1112basic_stringIcSt11char_traitsIcESaIcEED1Ev@plt>
  40c791:	48 8d bd 48 ff ff ff 	lea    -0xb8(%rbp),%rdi
  40c798:	e8 f3 6a ff ff       	callq  403290 <_ZNSaIcED1Ev@plt>
  40c79d:	48 8d 7d 88          	lea    -0x78(%rbp),%rdi
  40c7a1:	e8 9a 69 ff ff       	callq  403140 <_ZNSt7__cxx1112basic_stringIcSt11char_traitsIcESaIcEED1Ev@plt>
  40c7a6:	48 8d 7d 80          	lea    -0x80(%rbp),%rdi
  40c7aa:	e8 e1 6a ff ff       	callq  403290 <_ZNSaIcED1Ev@plt>
  40c7af:	48 8d bd 30 ff ff ff 	lea    -0xd0(%rbp),%rdi
  40c7b6:	48 8d 75 a8          	lea    -0x58(%rbp),%rsi
  40c7ba:	e8 51 6e ff ff       	callq  403610 <_ZN3ETL7readCSVB5cxx11Ev>
  40c7bf:	e9 00 00 00 00       	jmpq   40c7c4 <main+0x104>
  40c7c4:	48 8d 85 30 ff ff ff 	lea    -0xd0(%rbp),%rax
  40c7cb:	48 89 c7             	mov    %rax,%rdi
  40c7ce:	48 89 85 d0 fe ff ff 	mov    %rax,-0x130(%rbp)
  40c7d5:	e8 e6 e7 ff ff       	callq  40afc0 <_ZNKSt6vectorIS_INSt7__cxx1112basic_stringIcSt11char_traitsIcESaIcEEESaIS5_EESaIS7_EE4sizeEv>
  40c7da:	89 85 2c ff ff ff    	mov    %eax,-0xd4(%rbp)
  40c7e0:	31 c0                	xor    %eax,%eax
  40c7e2:	89 c6                	mov    %eax,%esi
  40c7e4:	48 8b bd d0 fe ff ff 	mov    -0x130(%rbp),%rdi
  40c7eb:	e8 a0 75 ff ff       	callq  403d90 <_ZNSt6vectorIS_INSt7__cxx1112basic_stringIcSt11char_traitsIcESaIcEEESaIS5_EESaIS7_EEixEm>
  40c7f0:	48 89 c7             	mov    %rax,%rdi
  40c7f3:	e8 18 d1 ff ff       	callq  409910 <_ZNKSt6vectorINSt7__cxx1112basic_stringIcSt11char_traitsIcESaIcEEESaIS5_EE4sizeEv>
  40c7f8:	89 85 28 ff ff ff    	mov    %eax,-0xd8(%rbp)
  40c7fe:	48 8d bd f8 fe ff ff 	lea    -0x108(%rbp),%rdi
  40c805:	48 8b b5 d0 fe ff ff 	mov    -0x130(%rbp),%rsi
  40c80c:	e8 ff 01 00 00       	callq  40ca10 <_ZNSt6vectorIS_INSt7__cxx1112basic_stringIcSt11char_traitsIcESaIcEEESaIS5_EESaIS7_EEC2ERKS9_>
  40c811:	e9 00 00 00 00       	jmpq   40c816 <main+0x156>
  40c816:	8b 8d 2c ff ff ff    	mov    -0xd4(%rbp),%ecx
  40c81c:	44 8b 85 28 ff ff ff 	mov    -0xd8(%rbp),%r8d
  40c823:	48 8d bd 10 ff ff ff 	lea    -0xf0(%rbp),%rdi
  40c82a:	48 8d 75 a8          	lea    -0x58(%rbp),%rsi
  40c82e:	48 8d 95 f8 fe ff ff 	lea    -0x108(%rbp),%rdx
  40c835:	e8 56 70 ff ff       	callq  403890 <_ZN3ETL10CSVtoEigenESt6vectorIS0_INSt7__cxx1112basic_stringIcSt11char_traitsIcESaIcEEESaIS6_EESaIS8_EEii>
  40c83a:	e9 00 00 00 00       	jmpq   40c83f <main+0x17f>
  40c83f:	48 8d bd f8 fe ff ff 	lea    -0x108(%rbp),%rdi
  40c846:	e8 65 74 ff ff       	callq  403cb0 <_ZNSt6vectorIS_INSt7__cxx1112basic_stringIcSt11char_traitsIcESaIcEEESaIS5_EESaIS7_EED2Ev>
  40c84b:	bf 80 62 41 00       	mov    $0x416280,%edi
  40c850:	48 8d b5 10 ff ff ff 	lea    -0xf0(%rbp),%rsi
  40c857:	e8 a4 02 00 00       	callq  40cb00 <_ZN5EigenlsINS_6MatrixIdLin1ELin1ELi0ELin1ELin1EEEEERSoS3_RKNS_9DenseBaseIT_EE>
  40c85c:	48 89 85 c8 fe ff ff 	mov    %rax,-0x138(%rbp)
  40c863:	e9 00 00 00 00       	jmpq   40c868 <main+0x1a8>
  40c868:	be f0 30 40 00       	mov    $0x4030f0,%esi
  40c86d:	48 8b bd c8 fe ff ff 	mov    -0x138(%rbp),%rdi
  40c874:	e8 f7 69 ff ff       	callq  403270 <_ZNSolsEPFRSoS_E@plt>
  40c879:	e9 00 00 00 00       	jmpq   40c87e <main+0x1be>
  40c87e:	c7 45 fc 00 00 00 00 	movl   $0x0,-0x4(%rbp)
  40c885:	48 8d bd 10 ff ff ff 	lea    -0xf0(%rbp),%rdi
  40c88c:	e8 df 75 ff ff       	callq  403e70 <_ZN5Eigen6MatrixIdLin1ELin1ELi0ELin1ELin1EED2Ev>
  40c891:	48 8d bd 30 ff ff ff 	lea    -0xd0(%rbp),%rdi
  40c898:	e8 13 74 ff ff       	callq  403cb0 <_ZNSt6vectorIS_INSt7__cxx1112basic_stringIcSt11char_traitsIcESaIcEEESaIS5_EESaIS7_EED2Ev>
  40c89d:	48 8d 7d a8          	lea    -0x58(%rbp),%rdi
  40c8a1:	e8 1a 06 00 00       	callq  40cec0 <_ZN3ETLD2Ev>
  40c8a6:	8b 45 fc             	mov    -0x4(%rbp),%eax
  40c8a9:	48 81 c4 40 01 00 00 	add    $0x140,%rsp
  40c8b0:	5d                   	pop    %rbp
  40c8b1:	c3                   	retq   
  40c8b2:	48 89 85 78 ff ff ff 	mov    %rax,-0x88(%rbp)
  40c8b9:	89 95 74 ff ff ff    	mov    %edx,-0x8c(%rbp)
  40c8bf:	e9 40 00 00 00       	jmpq   40c904 <main+0x244>
  40c8c4:	48 89 85 78 ff ff ff 	mov    %rax,-0x88(%rbp)
  40c8cb:	89 95 74 ff ff ff    	mov    %edx,-0x8c(%rbp)
  40c8d1:	e9 19 00 00 00       	jmpq   40c8ef <main+0x22f>
  40c8d6:	48 89 85 78 ff ff ff 	mov    %rax,-0x88(%rbp)
  40c8dd:	89 95 74 ff ff ff    	mov    %edx,-0x8c(%rbp)
  40c8e3:	48 8d bd 50 ff ff ff 	lea    -0xb0(%rbp),%rdi
  40c8ea:	e8 51 68 ff ff       	callq  403140 <_ZNSt7__cxx1112basic_stringIcSt11char_traitsIcESaIcEED1Ev@plt>
  40c8ef:	48 8d bd 48 ff ff ff 	lea    -0xb8(%rbp),%rdi
  40c8f6:	e8 95 69 ff ff       	callq  403290 <_ZNSaIcED1Ev@plt>
  40c8fb:	48 8d 7d 88          	lea    -0x78(%rbp),%rdi
  40c8ff:	e8 3c 68 ff ff       	callq  403140 <_ZNSt7__cxx1112basic_stringIcSt11char_traitsIcESaIcEED1Ev@plt>
  40c904:	48 8d 7d 80          	lea    -0x80(%rbp),%rdi
  40c908:	e8 83 69 ff ff       	callq  403290 <_ZNSaIcED1Ev@plt>
  40c90d:	e9 70 00 00 00       	jmpq   40c982 <main+0x2c2>
  40c912:	48 89 85 78 ff ff ff 	mov    %rax,-0x88(%rbp)
  40c919:	89 95 74 ff ff ff    	mov    %edx,-0x8c(%rbp)
  40c91f:	e9 55 00 00 00       	jmpq   40c979 <main+0x2b9>
  40c924:	48 89 85 78 ff ff ff 	mov    %rax,-0x88(%rbp)
  40c92b:	89 95 74 ff ff ff    	mov    %edx,-0x8c(%rbp)
  40c931:	e9 37 00 00 00       	jmpq   40c96d <main+0x2ad>
  40c936:	48 89 85 78 ff ff ff 	mov    %rax,-0x88(%rbp)
  40c93d:	89 95 74 ff ff ff    	mov    %edx,-0x8c(%rbp)
  40c943:	48 8d bd f8 fe ff ff 	lea    -0x108(%rbp),%rdi
  40c94a:	e8 61 73 ff ff       	callq  403cb0 <_ZNSt6vectorIS_INSt7__cxx1112basic_stringIcSt11char_traitsIcESaIcEEESaIS5_EESaIS7_EED2Ev>
  40c94f:	e9 19 00 00 00       	jmpq   40c96d <main+0x2ad>
  40c954:	48 89 85 78 ff ff ff 	mov    %rax,-0x88(%rbp)
  40c95b:	89 95 74 ff ff ff    	mov    %edx,-0x8c(%rbp)
  40c961:	48 8d bd 10 ff ff ff 	lea    -0xf0(%rbp),%rdi
  40c968:	e8 03 75 ff ff       	callq  403e70 <_ZN5Eigen6MatrixIdLin1ELin1ELi0ELin1ELin1EED2Ev>
  40c96d:	48 8d bd 30 ff ff ff 	lea    -0xd0(%rbp),%rdi
  40c974:	e8 37 73 ff ff       	callq  403cb0 <_ZNSt6vectorIS_INSt7__cxx1112basic_stringIcSt11char_traitsIcESaIcEEESaIS5_EESaIS7_EED2Ev>
  40c979:	48 8d 7d a8          	lea    -0x58(%rbp),%rdi
  40c97d:	e8 3e 05 00 00       	callq  40cec0 <_ZN3ETLD2Ev>
  40c982:	48 8b bd 78 ff ff ff 	mov    -0x88(%rbp),%rdi
  40c989:	e8 52 6a ff ff       	callq  4033e0 <_Unwind_Resume@plt>
  40c98e:	66 90                	xchg   %ax,%ax

000000000040c990 <_ZN3ETLC2ENSt7__cxx1112basic_stringIcSt11char_traitsIcESaIcEEES5_b>:
  40c990:	55                   	push   %rbp
  40c991:	48 89 e5             	mov    %rsp,%rbp
  40c994:	48 83 ec 40          	sub    $0x40,%rsp
  40c998:	48 89 7d f8          	mov    %rdi,-0x8(%rbp)
  40c99c:	80 e1 01             	and    $0x1,%cl
  40c99f:	88 4d f7             	mov    %cl,-0x9(%rbp)
  40c9a2:	48 8b 45 f8          	mov    -0x8(%rbp),%rax
  40c9a6:	48 89 c7             	mov    %rax,%rdi
  40c9a9:	48 89 7d d8          	mov    %rdi,-0x28(%rbp)
  40c9ad:	48 89 c7             	mov    %rax,%rdi
  40c9b0:	48 89 55 d0          	mov    %rdx,-0x30(%rbp)
  40c9b4:	48 89 45 c8          	mov    %rax,-0x38(%rbp)
  40c9b8:	e8 03 67 ff ff       	callq  4030c0 <_ZNSt7__cxx1112basic_stringIcSt11char_traitsIcESaIcEEC1ERKS4_@plt>
  40c9bd:	48 8b 45 c8          	mov    -0x38(%rbp),%rax
  40c9c1:	48 83 c0 20          	add    $0x20,%rax
  40c9c5:	48 89 c7             	mov    %rax,%rdi
  40c9c8:	48 8b 75 d0          	mov    -0x30(%rbp),%rsi
  40c9cc:	e8 ef 66 ff ff       	callq  4030c0 <_ZNSt7__cxx1112basic_stringIcSt11char_traitsIcESaIcEEC1ERKS4_@plt>
  40c9d1:	e9 00 00 00 00       	jmpq   40c9d6 <_ZN3ETLC2ENSt7__cxx1112basic_stringIcSt11char_traitsIcESaIcEEES5_b+0x46>
  40c9d6:	8a 45 f7             	mov    -0x9(%rbp),%al
  40c9d9:	24 01                	and    $0x1,%al
  40c9db:	48 8b 4d d8          	mov    -0x28(%rbp),%rcx
  40c9df:	88 41 40             	mov    %al,0x40(%rcx)
  40c9e2:	48 83 c4 40          	add    $0x40,%rsp
  40c9e6:	5d                   	pop    %rbp
  40c9e7:	c3                   	retq   
  40c9e8:	48 89 45 e8          	mov    %rax,-0x18(%rbp)
  40c9ec:	89 55 e4             	mov    %edx,-0x1c(%rbp)
  40c9ef:	48 8b 7d c8          	mov    -0x38(%rbp),%rdi
  40c9f3:	e8 48 67 ff ff       	callq  403140 <_ZNSt7__cxx1112basic_stringIcSt11char_traitsIcESaIcEED1Ev@plt>
  40c9f8:	48 8b 7d e8          	mov    -0x18(%rbp),%rdi
  40c9fc:	e8 df 69 ff ff       	callq  4033e0 <_Unwind_Resume@plt>
  40ca01:	66 2e 0f 1f 84 00 00 	nopw   %cs:0x0(%rax,%rax,1)
  40ca08:	00 00 00 
  40ca0b:	0f 1f 44 00 00       	nopl   0x0(%rax,%rax,1)

000000000040ca10 <_ZNSt6vectorIS_INSt7__cxx1112basic_stringIcSt11char_traitsIcESaIcEEESaIS5_EESaIS7_EEC2ERKS9_>:
  40ca10:	55                   	push   %rbp
  40ca11:	48 89 e5             	mov    %rsp,%rbp
  40ca14:	48 83 ec 60          	sub    $0x60,%rsp
  40ca18:	48 89 7d f8          	mov    %rdi,-0x8(%rbp)
  40ca1c:	48 89 75 f0          	mov    %rsi,-0x10(%rbp)
  40ca20:	48 8b 45 f8          	mov    -0x8(%rbp),%rax
  40ca24:	48 8b 7d f0          	mov    -0x10(%rbp),%rdi
  40ca28:	48 89 45 c0          	mov    %rax,-0x40(%rbp)
  40ca2c:	e8 8f e5 ff ff       	callq  40afc0 <_ZNKSt6vectorIS_INSt7__cxx1112basic_stringIcSt11char_traitsIcESaIcEEESaIS5_EESaIS7_EE4sizeEv>
  40ca31:	48 8b 7d f0          	mov    -0x10(%rbp),%rdi
  40ca35:	48 89 45 b8          	mov    %rax,-0x48(%rbp)
  40ca39:	e8 12 e6 ff ff       	callq  40b050 <_ZNKSt12_Vector_baseISt6vectorINSt7__cxx1112basic_stringIcSt11char_traitsIcESaIcEEESaIS6_EESaIS8_EE19_M_get_Tp_allocatorEv>
  40ca3e:	48 8d 4d e8          	lea    -0x18(%rbp),%rcx
  40ca42:	48 89 cf             	mov    %rcx,%rdi
  40ca45:	48 89 c6             	mov    %rax,%rsi
  40ca48:	48 89 4d b0          	mov    %rcx,-0x50(%rbp)
  40ca4c:	e8 af 04 00 00       	callq  40cf00 <_ZN9__gnu_cxx14__alloc_traitsISaISt6vectorINSt7__cxx1112basic_stringIcSt11char_traitsIcESaIcEEESaIS7_EEES9_E17_S_select_on_copyERKSA_>
  40ca51:	48 8b 7d c0          	mov    -0x40(%rbp),%rdi
  40ca55:	48 8b 75 b8          	mov    -0x48(%rbp),%rsi
  40ca59:	48 8b 55 b0          	mov    -0x50(%rbp),%rdx
  40ca5d:	e8 ce 04 00 00       	callq  40cf30 <_ZNSt12_Vector_baseISt6vectorINSt7__cxx1112basic_stringIcSt11char_traitsIcESaIcEEESaIS6_EESaIS8_EEC2EmRKS9_>
  40ca62:	e9 00 00 00 00       	jmpq   40ca67 <_ZNSt6vectorIS_INSt7__cxx1112basic_stringIcSt11char_traitsIcESaIcEEESaIS5_EESaIS7_EEC2ERKS9_+0x57>
  40ca67:	48 8d 7d e8          	lea    -0x18(%rbp),%rdi
  40ca6b:	e8 60 78 ff ff       	callq  4042d0 <_ZNSaISt6vectorINSt7__cxx1112basic_stringIcSt11char_traitsIcESaIcEEESaIS5_EEED2Ev>
  40ca70:	48 8b 7d f0          	mov    -0x10(%rbp),%rdi
  40ca74:	e8 57 05 00 00       	callq  40cfd0 <_ZNKSt6vectorIS_INSt7__cxx1112basic_stringIcSt11char_traitsIcESaIcEEESaIS5_EESaIS7_EE5beginEv>
  40ca79:	48 89 45 d0          	mov    %rax,-0x30(%rbp)
  40ca7d:	48 8b 7d f0          	mov    -0x10(%rbp),%rdi
  40ca81:	e8 7a 05 00 00       	callq  40d000 <_ZNKSt6vectorIS_INSt7__cxx1112basic_stringIcSt11char_traitsIcESaIcEEESaIS5_EESaIS7_EE3endEv>
  40ca86:	48 89 45 c8          	mov    %rax,-0x38(%rbp)
  40ca8a:	48 8b 45 c0          	mov    -0x40(%rbp),%rax
  40ca8e:	48 8b 10             	mov    (%rax),%rdx
  40ca91:	48 89 c7             	mov    %rax,%rdi
  40ca94:	48 89 55 a8          	mov    %rdx,-0x58(%rbp)
  40ca98:	e8 33 76 ff ff       	callq  4040d0 <_ZNSt12_Vector_baseISt6vectorINSt7__cxx1112basic_stringIcSt11char_traitsIcESaIcEEESaIS6_EESaIS8_EE19_M_get_Tp_allocatorEv>
  40ca9d:	48 8b 7d d0          	mov    -0x30(%rbp),%rdi
  40caa1:	48 8b 75 c8          	mov    -0x38(%rbp),%rsi
  40caa5:	48 8b 55 a8          	mov    -0x58(%rbp),%rdx
  40caa9:	48 89 c1             	mov    %rax,%rcx
  40caac:	e8 df 04 00 00       	callq  40cf90 <_ZSt22__uninitialized_copy_aIN9__gnu_cxx17__normal_iteratorIPKSt6vectorINSt7__cxx1112basic_stringIcSt11char_traitsIcESaIcEEESaIS8_EES2_ISA_SaISA_EEEEPSA_SA_ET0_T_SI_SH_RSaIT1_E>
  40cab1:	48 89 45 a0          	mov    %rax,-0x60(%rbp)
  40cab5:	e9 00 00 00 00       	jmpq   40caba <_ZNSt6vectorIS_INSt7__cxx1112basic_stringIcSt11char_traitsIcESaIcEEESaIS5_EESaIS7_EEC2ERKS9_+0xaa>
  40caba:	48 8b 45 c0          	mov    -0x40(%rbp),%rax
  40cabe:	48 8b 4d a0          	mov    -0x60(%rbp),%rcx
  40cac2:	48 89 48 08          	mov    %rcx,0x8(%rax)
  40cac6:	48 83 c4 60          	add    $0x60,%rsp
  40caca:	5d                   	pop    %rbp
  40cacb:	c3                   	retq   
  40cacc:	48 89 45 e0          	mov    %rax,-0x20(%rbp)
  40cad0:	89 55 dc             	mov    %edx,-0x24(%rbp)
  40cad3:	48 8d 7d e8          	lea    -0x18(%rbp),%rdi
  40cad7:	e8 f4 77 ff ff       	callq  4042d0 <_ZNSaISt6vectorINSt7__cxx1112basic_stringIcSt11char_traitsIcESaIcEEESaIS5_EEED2Ev>
  40cadc:	e9 13 00 00 00       	jmpq   40caf4 <_ZNSt6vectorIS_INSt7__cxx1112basic_stringIcSt11char_traitsIcESaIcEEESaIS5_EESaIS7_EEC2ERKS9_+0xe4>
  40cae1:	48 89 45 e0          	mov    %rax,-0x20(%rbp)
  40cae5:	89 55 dc             	mov    %edx,-0x24(%rbp)
  40cae8:	48 8b 45 c0          	mov    -0x40(%rbp),%rax
  40caec:	48 89 c7             	mov    %rax,%rdi
  40caef:	e8 ec 75 ff ff       	callq  4040e0 <_ZNSt12_Vector_baseISt6vectorINSt7__cxx1112basic_stringIcSt11char_traitsIcESaIcEEESaIS6_EESaIS8_EED2Ev>
  40caf4:	48 8b 7d e0          	mov    -0x20(%rbp),%rdi
  40caf8:	e8 e3 68 ff ff       	callq  4033e0 <_Unwind_Resume@plt>
  40cafd:	0f 1f 00             	nopl   (%rax)

000000000040cb00 <_ZN5EigenlsINS_6MatrixIdLin1ELin1ELi0ELin1ELin1EEEEERSoS3_RKNS_9DenseBaseIT_EE>:
  40cb00:	55                   	push   %rbp
  40cb01:	48 89 e5             	mov    %rsp,%rbp
  40cb04:	48 81 ec 60 02 00 00 	sub    $0x260,%rsp
  40cb0b:	48 89 7d f8          	mov    %rdi,-0x8(%rbp)
  40cb0f:	48 89 75 f0          	mov    %rsi,-0x10(%rbp)
  40cb13:	48 8b 7d f8          	mov    -0x8(%rbp),%rdi
  40cb17:	48 8b 45 f0          	mov    -0x10(%rbp),%rax
  40cb1b:	48 89 bd 00 fe ff ff 	mov    %rdi,-0x200(%rbp)
  40cb22:	48 89 c7             	mov    %rax,%rdi
  40cb25:	e8 76 0d 00 00       	callq  40d8a0 <_ZNK5Eigen9DenseBaseINS_6MatrixIdLin1ELin1ELi0ELin1ELin1EEEE4evalEv>
  40cb2a:	48 8d 8d e0 fe ff ff 	lea    -0x120(%rbp),%rcx
  40cb31:	48 89 cf             	mov    %rcx,%rdi
  40cb34:	48 89 85 f8 fd ff ff 	mov    %rax,-0x208(%rbp)
  40cb3b:	48 89 8d f0 fd ff ff 	mov    %rcx,-0x210(%rbp)
  40cb42:	e8 a9 68 ff ff       	callq  4033f0 <_ZNSaIcEC1Ev@plt>
  40cb47:	be f8 e2 40 00       	mov    $0x40e2f8,%esi
  40cb4c:	48 8d bd e8 fe ff ff 	lea    -0x118(%rbp),%rdi
  40cb53:	48 8b 95 f0 fd ff ff 	mov    -0x210(%rbp),%rdx
  40cb5a:	e8 d1 67 ff ff       	callq  403330 <_ZNSt7__cxx1112basic_stringIcSt11char_traitsIcESaIcEEC1EPKcRKS3_@plt>
  40cb5f:	e9 00 00 00 00       	jmpq   40cb64 <_ZN5EigenlsINS_6MatrixIdLin1ELin1ELi0ELin1ELin1EEEEERSoS3_RKNS_9DenseBaseIT_EE+0x64>
  40cb64:	48 8d 85 a8 fe ff ff 	lea    -0x158(%rbp),%rax
  40cb6b:	48 89 c7             	mov    %rax,%rdi
  40cb6e:	48 89 85 e8 fd ff ff 	mov    %rax,-0x218(%rbp)
  40cb75:	e8 76 68 ff ff       	callq  4033f0 <_ZNSaIcEC1Ev@plt>
  40cb7a:	be fa e2 40 00       	mov    $0x40e2fa,%esi
  40cb7f:	48 8d bd b0 fe ff ff 	lea    -0x150(%rbp),%rdi
  40cb86:	48 8b 95 e8 fd ff ff 	mov    -0x218(%rbp),%rdx
  40cb8d:	e8 9e 67 ff ff       	callq  403330 <_ZNSt7__cxx1112basic_stringIcSt11char_traitsIcESaIcEEC1EPKcRKS3_@plt>
  40cb92:	e9 00 00 00 00       	jmpq   40cb97 <_ZN5EigenlsINS_6MatrixIdLin1ELin1ELi0ELin1ELin1EEEEERSoS3_RKNS_9DenseBaseIT_EE+0x97>
  40cb97:	48 8d 85 80 fe ff ff 	lea    -0x180(%rbp),%rax
  40cb9e:	48 89 c7             	mov    %rax,%rdi
  40cba1:	48 89 85 e0 fd ff ff 	mov    %rax,-0x220(%rbp)
  40cba8:	e8 43 68 ff ff       	callq  4033f0 <_ZNSaIcEC1Ev@plt>
  40cbad:	be fb e2 40 00       	mov    $0x40e2fb,%esi
  40cbb2:	48 8d bd 88 fe ff ff 	lea    -0x178(%rbp),%rdi
  40cbb9:	48 8b 95 e0 fd ff ff 	mov    -0x220(%rbp),%rdx
  40cbc0:	e8 6b 67 ff ff       	callq  403330 <_ZNSt7__cxx1112basic_stringIcSt11char_traitsIcESaIcEEC1EPKcRKS3_@plt>
  40cbc5:	e9 00 00 00 00       	jmpq   40cbca <_ZN5EigenlsINS_6MatrixIdLin1ELin1ELi0ELin1ELin1EEEEERSoS3_RKNS_9DenseBaseIT_EE+0xca>
  40cbca:	48 8d 85 58 fe ff ff 	lea    -0x1a8(%rbp),%rax
  40cbd1:	48 89 c7             	mov    %rax,%rdi
  40cbd4:	48 89 85 d8 fd ff ff 	mov    %rax,-0x228(%rbp)
  40cbdb:	e8 10 68 ff ff       	callq  4033f0 <_ZNSaIcEC1Ev@plt>
  40cbe0:	be fb e2 40 00       	mov    $0x40e2fb,%esi
  40cbe5:	48 8d bd 60 fe ff ff 	lea    -0x1a0(%rbp),%rdi
  40cbec:	48 8b 95 d8 fd ff ff 	mov    -0x228(%rbp),%rdx
  40cbf3:	e8 38 67 ff ff       	callq  403330 <_ZNSt7__cxx1112basic_stringIcSt11char_traitsIcESaIcEEC1EPKcRKS3_@plt>
  40cbf8:	e9 00 00 00 00       	jmpq   40cbfd <_ZN5EigenlsINS_6MatrixIdLin1ELin1ELi0ELin1ELin1EEEEERSoS3_RKNS_9DenseBaseIT_EE+0xfd>
  40cbfd:	48 8d 85 30 fe ff ff 	lea    -0x1d0(%rbp),%rax
  40cc04:	48 89 c7             	mov    %rax,%rdi
  40cc07:	48 89 85 d0 fd ff ff 	mov    %rax,-0x230(%rbp)
  40cc0e:	e8 dd 67 ff ff       	callq  4033f0 <_ZNSaIcEC1Ev@plt>
  40cc13:	be fb e2 40 00       	mov    $0x40e2fb,%esi
  40cc18:	48 8d bd 38 fe ff ff 	lea    -0x1c8(%rbp),%rdi
  40cc1f:	48 8b 95 d0 fd ff ff 	mov    -0x230(%rbp),%rdx
  40cc26:	e8 05 67 ff ff       	callq  403330 <_ZNSt7__cxx1112basic_stringIcSt11char_traitsIcESaIcEEC1EPKcRKS3_@plt>
  40cc2b:	e9 00 00 00 00       	jmpq   40cc30 <_ZN5EigenlsINS_6MatrixIdLin1ELin1ELi0ELin1ELin1EEEEERSoS3_RKNS_9DenseBaseIT_EE+0x130>
  40cc30:	48 8d 85 08 fe ff ff 	lea    -0x1f8(%rbp),%rax
  40cc37:	48 89 c7             	mov    %rax,%rdi
  40cc3a:	48 89 85 c8 fd ff ff 	mov    %rax,-0x238(%rbp)
  40cc41:	e8 aa 67 ff ff       	callq  4033f0 <_ZNSaIcEC1Ev@plt>
  40cc46:	be fb e2 40 00       	mov    $0x40e2fb,%esi
  40cc4b:	48 8d bd 10 fe ff ff 	lea    -0x1f0(%rbp),%rdi
  40cc52:	48 8b 95 c8 fd ff ff 	mov    -0x238(%rbp),%rdx
  40cc59:	e8 d2 66 ff ff       	callq  403330 <_ZNSt7__cxx1112basic_stringIcSt11char_traitsIcESaIcEEC1EPKcRKS3_@plt>
  40cc5e:	e9 00 00 00 00       	jmpq   40cc63 <_ZN5EigenlsINS_6MatrixIdLin1ELin1ELi0ELin1ELin1EEEEERSoS3_RKNS_9DenseBaseIT_EE+0x163>
  40cc63:	48 89 e0             	mov    %rsp,%rax
  40cc66:	48 8d 8d 10 fe ff ff 	lea    -0x1f0(%rbp),%rcx
  40cc6d:	48 89 48 10          	mov    %rcx,0x10(%rax)
  40cc71:	48 8d 8d 38 fe ff ff 	lea    -0x1c8(%rbp),%rcx
  40cc78:	48 89 48 08          	mov    %rcx,0x8(%rax)
  40cc7c:	48 8d 8d 60 fe ff ff 	lea    -0x1a0(%rbp),%rcx
  40cc83:	48 89 08             	mov    %rcx,(%rax)
  40cc86:	48 8d bd 08 ff ff ff 	lea    -0xf8(%rbp),%rdi
  40cc8d:	be ff ff ff ff       	mov    $0xffffffff,%esi
  40cc92:	31 d2                	xor    %edx,%edx
  40cc94:	48 8d 8d e8 fe ff ff 	lea    -0x118(%rbp),%rcx
  40cc9b:	4c 8d 85 b0 fe ff ff 	lea    -0x150(%rbp),%r8
  40cca2:	4c 8d 8d 88 fe ff ff 	lea    -0x178(%rbp),%r9
  40cca9:	e8 12 0c 00 00       	callq  40d8c0 <_ZN5Eigen8IOFormatC2EiiRKNSt7__cxx1112basic_stringIcSt11char_traitsIcESaIcEEES8_S8_S8_S8_S8_>
  40ccae:	e9 00 00 00 00       	jmpq   40ccb3 <_ZN5EigenlsINS_6MatrixIdLin1ELin1ELi0ELin1ELin1EEEEERSoS3_RKNS_9DenseBaseIT_EE+0x1b3>
  40ccb3:	48 8d 95 08 ff ff ff 	lea    -0xf8(%rbp),%rdx
  40ccba:	48 8b bd 00 fe ff ff 	mov    -0x200(%rbp),%rdi
  40ccc1:	48 8b b5 f8 fd ff ff 	mov    -0x208(%rbp),%rsi
  40ccc8:	e8 83 06 00 00       	callq  40d350 <_ZN5Eigen8internal12print_matrixINS_6MatrixIdLin1ELin1ELi0ELin1ELin1EEEEERSoS4_RKT_RKNS_8IOFormatE>
  40cccd:	48 89 85 c0 fd ff ff 	mov    %rax,-0x240(%rbp)
  40ccd4:	e9 00 00 00 00       	jmpq   40ccd9 <_ZN5EigenlsINS_6MatrixIdLin1ELin1ELi0ELin1ELin1EEEEERSoS3_RKNS_9DenseBaseIT_EE+0x1d9>
  40ccd9:	48 8d bd 08 ff ff ff 	lea    -0xf8(%rbp),%rdi
  40cce0:	e8 9b 0e 00 00       	callq  40db80 <_ZN5Eigen8IOFormatD2Ev>
  40cce5:	48 8d bd 10 fe ff ff 	lea    -0x1f0(%rbp),%rdi
  40ccec:	e8 4f 64 ff ff       	callq  403140 <_ZNSt7__cxx1112basic_stringIcSt11char_traitsIcESaIcEED1Ev@plt>
  40ccf1:	48 8d bd 08 fe ff ff 	lea    -0x1f8(%rbp),%rdi
  40ccf8:	e8 93 65 ff ff       	callq  403290 <_ZNSaIcED1Ev@plt>
  40ccfd:	48 8d bd 38 fe ff ff 	lea    -0x1c8(%rbp),%rdi
  40cd04:	e8 37 64 ff ff       	callq  403140 <_ZNSt7__cxx1112basic_stringIcSt11char_traitsIcESaIcEED1Ev@plt>
  40cd09:	48 8d bd 30 fe ff ff 	lea    -0x1d0(%rbp),%rdi
  40cd10:	e8 7b 65 ff ff       	callq  403290 <_ZNSaIcED1Ev@plt>
  40cd15:	48 8d bd 60 fe ff ff 	lea    -0x1a0(%rbp),%rdi
  40cd1c:	e8 1f 64 ff ff       	callq  403140 <_ZNSt7__cxx1112basic_stringIcSt11char_traitsIcESaIcEED1Ev@plt>
  40cd21:	48 8d bd 58 fe ff ff 	lea    -0x1a8(%rbp),%rdi
  40cd28:	e8 63 65 ff ff       	callq  403290 <_ZNSaIcED1Ev@plt>
  40cd2d:	48 8d bd 88 fe ff ff 	lea    -0x178(%rbp),%rdi
  40cd34:	e8 07 64 ff ff       	callq  403140 <_ZNSt7__cxx1112basic_stringIcSt11char_traitsIcESaIcEED1Ev@plt>
  40cd39:	48 8d bd 80 fe ff ff 	lea    -0x180(%rbp),%rdi
  40cd40:	e8 4b 65 ff ff       	callq  403290 <_ZNSaIcED1Ev@plt>
  40cd45:	48 8d bd b0 fe ff ff 	lea    -0x150(%rbp),%rdi
  40cd4c:	e8 ef 63 ff ff       	callq  403140 <_ZNSt7__cxx1112basic_stringIcSt11char_traitsIcESaIcEED1Ev@plt>
  40cd51:	48 8d bd a8 fe ff ff 	lea    -0x158(%rbp),%rdi
  40cd58:	e8 33 65 ff ff       	callq  403290 <_ZNSaIcED1Ev@plt>
  40cd5d:	48 8d bd e8 fe ff ff 	lea    -0x118(%rbp),%rdi
  40cd64:	e8 d7 63 ff ff       	callq  403140 <_ZNSt7__cxx1112basic_stringIcSt11char_traitsIcESaIcEED1Ev@plt>
  40cd69:	48 8d bd e0 fe ff ff 	lea    -0x120(%rbp),%rdi
  40cd70:	e8 1b 65 ff ff       	callq  403290 <_ZNSaIcED1Ev@plt>
  40cd75:	48 8b 85 c0 fd ff ff 	mov    -0x240(%rbp),%rax
  40cd7c:	48 81 c4 60 02 00 00 	add    $0x260,%rsp
  40cd83:	5d                   	pop    %rbp
  40cd84:	c3                   	retq   
  40cd85:	48 89 85 d8 fe ff ff 	mov    %rax,-0x128(%rbp)
  40cd8c:	89 95 d4 fe ff ff    	mov    %edx,-0x12c(%rbp)
  40cd92:	e9 09 01 00 00       	jmpq   40cea0 <_ZN5EigenlsINS_6MatrixIdLin1ELin1ELi0ELin1ELin1EEEEERSoS3_RKNS_9DenseBaseIT_EE+0x3a0>
  40cd97:	48 89 85 d8 fe ff ff 	mov    %rax,-0x128(%rbp)
  40cd9e:	89 95 d4 fe ff ff    	mov    %edx,-0x12c(%rbp)
  40cda4:	e9 df 00 00 00       	jmpq   40ce88 <_ZN5EigenlsINS_6MatrixIdLin1ELin1ELi0ELin1ELin1EEEEERSoS3_RKNS_9DenseBaseIT_EE+0x388>
  40cda9:	48 89 85 d8 fe ff ff 	mov    %rax,-0x128(%rbp)
  40cdb0:	89 95 d4 fe ff ff    	mov    %edx,-0x12c(%rbp)
  40cdb6:	e9 b5 00 00 00       	jmpq   40ce70 <_ZN5EigenlsINS_6MatrixIdLin1ELin1ELi0ELin1ELin1EEEEERSoS3_RKNS_9DenseBaseIT_EE+0x370>
  40cdbb:	48 89 85 d8 fe ff ff 	mov    %rax,-0x128(%rbp)
  40cdc2:	89 95 d4 fe ff ff    	mov    %edx,-0x12c(%rbp)
  40cdc8:	e9 8b 00 00 00       	jmpq   40ce58 <_ZN5EigenlsINS_6MatrixIdLin1ELin1ELi0ELin1ELin1EEEEERSoS3_RKNS_9DenseBaseIT_EE+0x358>
  40cdcd:	48 89 85 d8 fe ff ff 	mov    %rax,-0x128(%rbp)
  40cdd4:	89 95 d4 fe ff ff    	mov    %edx,-0x12c(%rbp)
  40cdda:	e9 61 00 00 00       	jmpq   40ce40 <_ZN5EigenlsINS_6MatrixIdLin1ELin1ELi0ELin1ELin1EEEEERSoS3_RKNS_9DenseBaseIT_EE+0x340>
  40cddf:	48 89 85 d8 fe ff ff 	mov    %rax,-0x128(%rbp)
  40cde6:	89 95 d4 fe ff ff    	mov    %edx,-0x12c(%rbp)
  40cdec:	e9 37 00 00 00       	jmpq   40ce28 <_ZN5EigenlsINS_6MatrixIdLin1ELin1ELi0ELin1ELin1EEEEERSoS3_RKNS_9DenseBaseIT_EE+0x328>
  40cdf1:	48 89 85 d8 fe ff ff 	mov    %rax,-0x128(%rbp)
  40cdf8:	89 95 d4 fe ff ff    	mov    %edx,-0x12c(%rbp)
  40cdfe:	e9 19 00 00 00       	jmpq   40ce1c <_ZN5EigenlsINS_6MatrixIdLin1ELin1ELi0ELin1ELin1EEEEERSoS3_RKNS_9DenseBaseIT_EE+0x31c>
  40ce03:	48 89 85 d8 fe ff ff 	mov    %rax,-0x128(%rbp)
  40ce0a:	89 95 d4 fe ff ff    	mov    %edx,-0x12c(%rbp)
  40ce10:	48 8d bd 08 ff ff ff 	lea    -0xf8(%rbp),%rdi
  40ce17:	e8 64 0d 00 00       	callq  40db80 <_ZN5Eigen8IOFormatD2Ev>
  40ce1c:	48 8d bd 10 fe ff ff 	lea    -0x1f0(%rbp),%rdi
  40ce23:	e8 18 63 ff ff       	callq  403140 <_ZNSt7__cxx1112basic_stringIcSt11char_traitsIcESaIcEED1Ev@plt>
  40ce28:	48 8d bd 08 fe ff ff 	lea    -0x1f8(%rbp),%rdi
  40ce2f:	e8 5c 64 ff ff       	callq  403290 <_ZNSaIcED1Ev@plt>
  40ce34:	48 8d bd 38 fe ff ff 	lea    -0x1c8(%rbp),%rdi
  40ce3b:	e8 00 63 ff ff       	callq  403140 <_ZNSt7__cxx1112basic_stringIcSt11char_traitsIcESaIcEED1Ev@plt>
  40ce40:	48 8d bd 30 fe ff ff 	lea    -0x1d0(%rbp),%rdi
  40ce47:	e8 44 64 ff ff       	callq  403290 <_ZNSaIcED1Ev@plt>
  40ce4c:	48 8d bd 60 fe ff ff 	lea    -0x1a0(%rbp),%rdi
  40ce53:	e8 e8 62 ff ff       	callq  403140 <_ZNSt7__cxx1112basic_stringIcSt11char_traitsIcESaIcEED1Ev@plt>
  40ce58:	48 8d bd 58 fe ff ff 	lea    -0x1a8(%rbp),%rdi
  40ce5f:	e8 2c 64 ff ff       	callq  403290 <_ZNSaIcED1Ev@plt>
  40ce64:	48 8d bd 88 fe ff ff 	lea    -0x178(%rbp),%rdi
  40ce6b:	e8 d0 62 ff ff       	callq  403140 <_ZNSt7__cxx1112basic_stringIcSt11char_traitsIcESaIcEED1Ev@plt>
  40ce70:	48 8d bd 80 fe ff ff 	lea    -0x180(%rbp),%rdi
  40ce77:	e8 14 64 ff ff       	callq  403290 <_ZNSaIcED1Ev@plt>
  40ce7c:	48 8d bd b0 fe ff ff 	lea    -0x150(%rbp),%rdi
  40ce83:	e8 b8 62 ff ff       	callq  403140 <_ZNSt7__cxx1112basic_stringIcSt11char_traitsIcESaIcEED1Ev@plt>
  40ce88:	48 8d bd a8 fe ff ff 	lea    -0x158(%rbp),%rdi
  40ce8f:	e8 fc 63 ff ff       	callq  403290 <_ZNSaIcED1Ev@plt>
  40ce94:	48 8d bd e8 fe ff ff 	lea    -0x118(%rbp),%rdi
  40ce9b:	e8 a0 62 ff ff       	callq  403140 <_ZNSt7__cxx1112basic_stringIcSt11char_traitsIcESaIcEED1Ev@plt>
  40cea0:	48 8d bd e0 fe ff ff 	lea    -0x120(%rbp),%rdi
  40cea7:	e8 e4 63 ff ff       	callq  403290 <_ZNSaIcED1Ev@plt>
  40ceac:	48 8b bd d8 fe ff ff 	mov    -0x128(%rbp),%rdi
  40ceb3:	e8 28 65 ff ff       	callq  4033e0 <_Unwind_Resume@plt>
  40ceb8:	0f 1f 84 00 00 00 00 	nopl   0x0(%rax,%rax,1)
  40cebf:	00 

000000000040cec0 <_ZN3ETLD2Ev>:
  40cec0:	55                   	push   %rbp
  40cec1:	48 89 e5             	mov    %rsp,%rbp
  40cec4:	48 83 ec 10          	sub    $0x10,%rsp
  40cec8:	48 89 7d f8          	mov    %rdi,-0x8(%rbp)
  40cecc:	48 8b 45 f8          	mov    -0x8(%rbp),%rax
  40ced0:	48 89 c1             	mov    %rax,%rcx
  40ced3:	48 81 c1 20 00 00 00 	add    $0x20,%rcx
  40ceda:	48 89 cf             	mov    %rcx,%rdi
  40cedd:	48 89 45 f0          	mov    %rax,-0x10(%rbp)
  40cee1:	e8 5a 62 ff ff       	callq  403140 <_ZNSt7__cxx1112basic_stringIcSt11char_traitsIcESaIcEED1Ev@plt>
  40cee6:	48 8b 7d f0          	mov    -0x10(%rbp),%rdi
  40ceea:	e8 51 62 ff ff       	callq  403140 <_ZNSt7__cxx1112basic_stringIcSt11char_traitsIcESaIcEED1Ev@plt>
  40ceef:	48 83 c4 10          	add    $0x10,%rsp
  40cef3:	5d                   	pop    %rbp
  40cef4:	c3                   	retq   
  40cef5:	66 2e 0f 1f 84 00 00 	nopw   %cs:0x0(%rax,%rax,1)
  40cefc:	00 00 00 
  40ceff:	90                   	nop

000000000040cf00 <_ZN9__gnu_cxx14__alloc_traitsISaISt6vectorINSt7__cxx1112basic_stringIcSt11char_traitsIcESaIcEEESaIS7_EEES9_E17_S_select_on_copyERKSA_>:
  40cf00:	55                   	push   %rbp
  40cf01:	48 89 e5             	mov    %rsp,%rbp
  40cf04:	48 83 ec 20          	sub    $0x20,%rsp
  40cf08:	48 89 f8             	mov    %rdi,%rax
  40cf0b:	48 89 f9             	mov    %rdi,%rcx
  40cf0e:	48 89 4d f8          	mov    %rcx,-0x8(%rbp)
  40cf12:	48 89 75 f0          	mov    %rsi,-0x10(%rbp)
  40cf16:	48 8b 75 f0          	mov    -0x10(%rbp),%rsi
  40cf1a:	48 89 45 e8          	mov    %rax,-0x18(%rbp)
  40cf1e:	e8 0d 01 00 00       	callq  40d030 <_ZNSt16allocator_traitsISaISt6vectorINSt7__cxx1112basic_stringIcSt11char_traitsIcESaIcEEESaIS6_EEEE37select_on_container_copy_constructionERKS9_>
  40cf23:	48 8b 45 e8          	mov    -0x18(%rbp),%rax
  40cf27:	48 83 c4 20          	add    $0x20,%rsp
  40cf2b:	5d                   	pop    %rbp
  40cf2c:	c3                   	retq   
  40cf2d:	0f 1f 00             	nopl   (%rax)

000000000040cf30 <_ZNSt12_Vector_baseISt6vectorINSt7__cxx1112basic_stringIcSt11char_traitsIcESaIcEEESaIS6_EESaIS8_EEC2EmRKS9_>:
  40cf30:	55                   	push   %rbp
  40cf31:	48 89 e5             	mov    %rsp,%rbp
  40cf34:	48 83 ec 30          	sub    $0x30,%rsp
  40cf38:	48 89 7d f8          	mov    %rdi,-0x8(%rbp)
  40cf3c:	48 89 75 f0          	mov    %rsi,-0x10(%rbp)
  40cf40:	48 89 55 e8          	mov    %rdx,-0x18(%rbp)
  40cf44:	48 8b 45 f8          	mov    -0x8(%rbp),%rax
  40cf48:	48 8b 75 e8          	mov    -0x18(%rbp),%rsi
  40cf4c:	48 89 c7             	mov    %rax,%rdi
  40cf4f:	48 89 45 d0          	mov    %rax,-0x30(%rbp)
  40cf53:	e8 48 01 00 00       	callq  40d0a0 <_ZNSt12_Vector_baseISt6vectorINSt7__cxx1112basic_stringIcSt11char_traitsIcESaIcEEESaIS6_EESaIS8_EE12_Vector_implC2ERKS9_>
  40cf58:	48 8b 75 f0          	mov    -0x10(%rbp),%rsi
  40cf5c:	48 8b 7d d0          	mov    -0x30(%rbp),%rdi
  40cf60:	e8 7b 01 00 00       	callq  40d0e0 <_ZNSt12_Vector_baseISt6vectorINSt7__cxx1112basic_stringIcSt11char_traitsIcESaIcEEESaIS6_EESaIS8_EE17_M_create_storageEm>
  40cf65:	e9 00 00 00 00       	jmpq   40cf6a <_ZNSt12_Vector_baseISt6vectorINSt7__cxx1112basic_stringIcSt11char_traitsIcESaIcEEESaIS6_EESaIS8_EEC2EmRKS9_+0x3a>
  40cf6a:	48 83 c4 30          	add    $0x30,%rsp
  40cf6e:	5d                   	pop    %rbp
  40cf6f:	c3                   	retq   
  40cf70:	48 89 45 e0          	mov    %rax,-0x20(%rbp)
  40cf74:	89 55 dc             	mov    %edx,-0x24(%rbp)
  40cf77:	48 8b 7d d0          	mov    -0x30(%rbp),%rdi
  40cf7b:	e8 d0 72 ff ff       	callq  404250 <_ZNSt12_Vector_baseISt6vectorINSt7__cxx1112basic_stringIcSt11char_traitsIcESaIcEEESaIS6_EESaIS8_EE12_Vector_implD2Ev>
  40cf80:	48 8b 7d e0          	mov    -0x20(%rbp),%rdi
  40cf84:	e8 57 64 ff ff       	callq  4033e0 <_Unwind_Resume@plt>
  40cf89:	0f 1f 80 00 00 00 00 	nopl   0x0(%rax)

000000000040cf90 <_ZSt22__uninitialized_copy_aIN9__gnu_cxx17__normal_iteratorIPKSt6vectorINSt7__cxx1112basic_stringIcSt11char_traitsIcESaIcEEESaIS8_EES2_ISA_SaISA_EEEEPSA_SA_ET0_T_SI_SH_RSaIT1_E>:
  40cf90:	55                   	push   %rbp
  40cf91:	48 89 e5             	mov    %rsp,%rbp
  40cf94:	48 83 ec 30          	sub    $0x30,%rsp
  40cf98:	48 89 7d f8          	mov    %rdi,-0x8(%rbp)
  40cf9c:	48 89 75 f0          	mov    %rsi,-0x10(%rbp)
  40cfa0:	48 89 55 e8          	mov    %rdx,-0x18(%rbp)
  40cfa4:	48 89 4d e0          	mov    %rcx,-0x20(%rbp)
  40cfa8:	48 8b 45 f8          	mov    -0x8(%rbp),%rax
  40cfac:	48 89 45 d8          	mov    %rax,-0x28(%rbp)
  40cfb0:	48 8b 45 f0          	mov    -0x10(%rbp),%rax
  40cfb4:	48 89 45 d0          	mov    %rax,-0x30(%rbp)
  40cfb8:	48 8b 55 e8          	mov    -0x18(%rbp),%rdx
  40cfbc:	48 8b 7d d8          	mov    -0x28(%rbp),%rdi
  40cfc0:	48 8b 75 d0          	mov    -0x30(%rbp),%rsi
  40cfc4:	e8 67 01 00 00       	callq  40d130 <_ZSt18uninitialized_copyIN9__gnu_cxx17__normal_iteratorIPKSt6vectorINSt7__cxx1112basic_stringIcSt11char_traitsIcESaIcEEESaIS8_EES2_ISA_SaISA_EEEEPSA_ET0_T_SI_SH_>
  40cfc9:	48 83 c4 30          	add    $0x30,%rsp
  40cfcd:	5d                   	pop    %rbp
  40cfce:	c3                   	retq   
  40cfcf:	90                   	nop

000000000040cfd0 <_ZNKSt6vectorIS_INSt7__cxx1112basic_stringIcSt11char_traitsIcESaIcEEESaIS5_EESaIS7_EE5beginEv>:
  40cfd0:	55                   	push   %rbp
  40cfd1:	48 89 e5             	mov    %rsp,%rbp
  40cfd4:	48 83 ec 10          	sub    $0x10,%rsp
  40cfd8:	48 89 7d f0          	mov    %rdi,-0x10(%rbp)
  40cfdc:	48 8b 45 f0          	mov    -0x10(%rbp),%rax
  40cfe0:	48 8d 7d f8          	lea    -0x8(%rbp),%rdi
  40cfe4:	48 89 c6             	mov    %rax,%rsi
  40cfe7:	e8 44 03 00 00       	callq  40d330 <_ZN9__gnu_cxx17__normal_iteratorIPKSt6vectorINSt7__cxx1112basic_stringIcSt11char_traitsIcESaIcEEESaIS7_EES1_IS9_SaIS9_EEEC2ERKSB_>
  40cfec:	48 8b 45 f8          	mov    -0x8(%rbp),%rax
  40cff0:	48 83 c4 10          	add    $0x10,%rsp
  40cff4:	5d                   	pop    %rbp
  40cff5:	c3                   	retq   
  40cff6:	66 2e 0f 1f 84 00 00 	nopw   %cs:0x0(%rax,%rax,1)
  40cffd:	00 00 00 

000000000040d000 <_ZNKSt6vectorIS_INSt7__cxx1112basic_stringIcSt11char_traitsIcESaIcEEESaIS5_EESaIS7_EE3endEv>:
  40d000:	55                   	push   %rbp
  40d001:	48 89 e5             	mov    %rsp,%rbp
  40d004:	48 83 ec 10          	sub    $0x10,%rsp
  40d008:	48 89 7d f0          	mov    %rdi,-0x10(%rbp)
  40d00c:	48 8b 45 f0          	mov    -0x10(%rbp),%rax
  40d010:	48 05 08 00 00 00    	add    $0x8,%rax
  40d016:	48 8d 7d f8          	lea    -0x8(%rbp),%rdi
  40d01a:	48 89 c6             	mov    %rax,%rsi
  40d01d:	e8 0e 03 00 00       	callq  40d330 <_ZN9__gnu_cxx17__normal_iteratorIPKSt6vectorINSt7__cxx1112basic_stringIcSt11char_traitsIcESaIcEEESaIS7_EES1_IS9_SaIS9_EEEC2ERKSB_>
  40d022:	48 8b 45 f8          	mov    -0x8(%rbp),%rax
  40d026:	48 83 c4 10          	add    $0x10,%rsp
  40d02a:	5d                   	pop    %rbp
  40d02b:	c3                   	retq   
  40d02c:	0f 1f 40 00          	nopl   0x0(%rax)

000000000040d030 <_ZNSt16allocator_traitsISaISt6vectorINSt7__cxx1112basic_stringIcSt11char_traitsIcESaIcEEESaIS6_EEEE37select_on_container_copy_constructionERKS9_>:
  40d030:	55                   	push   %rbp
  40d031:	48 89 e5             	mov    %rsp,%rbp
  40d034:	48 83 ec 20          	sub    $0x20,%rsp
  40d038:	48 89 f8             	mov    %rdi,%rax
  40d03b:	48 89 f9             	mov    %rdi,%rcx
  40d03e:	48 89 4d f8          	mov    %rcx,-0x8(%rbp)
  40d042:	48 89 75 f0          	mov    %rsi,-0x10(%rbp)
  40d046:	48 8b 75 f0          	mov    -0x10(%rbp),%rsi
  40d04a:	48 89 45 e8          	mov    %rax,-0x18(%rbp)
  40d04e:	e8 0d 00 00 00       	callq  40d060 <_ZNSaISt6vectorINSt7__cxx1112basic_stringIcSt11char_traitsIcESaIcEEESaIS5_EEEC2ERKS8_>
  40d053:	48 8b 45 e8          	mov    -0x18(%rbp),%rax
  40d057:	48 83 c4 20          	add    $0x20,%rsp
  40d05b:	5d                   	pop    %rbp
  40d05c:	c3                   	retq   
  40d05d:	0f 1f 00             	nopl   (%rax)

000000000040d060 <_ZNSaISt6vectorINSt7__cxx1112basic_stringIcSt11char_traitsIcESaIcEEESaIS5_EEEC2ERKS8_>:
  40d060:	55                   	push   %rbp
  40d061:	48 89 e5             	mov    %rsp,%rbp
  40d064:	48 83 ec 10          	sub    $0x10,%rsp
  40d068:	48 89 7d f8          	mov    %rdi,-0x8(%rbp)
  40d06c:	48 89 75 f0          	mov    %rsi,-0x10(%rbp)
  40d070:	48 8b 45 f8          	mov    -0x8(%rbp),%rax
  40d074:	48 8b 4d f0          	mov    -0x10(%rbp),%rcx
  40d078:	48 89 c7             	mov    %rax,%rdi
  40d07b:	48 89 ce             	mov    %rcx,%rsi
  40d07e:	e8 0d 00 00 00       	callq  40d090 <_ZN9__gnu_cxx13new_allocatorISt6vectorINSt7__cxx1112basic_stringIcSt11char_traitsIcESaIcEEESaIS7_EEEC2ERKSA_>
  40d083:	48 83 c4 10          	add    $0x10,%rsp
  40d087:	5d                   	pop    %rbp
  40d088:	c3                   	retq   
  40d089:	0f 1f 80 00 00 00 00 	nopl   0x0(%rax)

000000000040d090 <_ZN9__gnu_cxx13new_allocatorISt6vectorINSt7__cxx1112basic_stringIcSt11char_traitsIcESaIcEEESaIS7_EEEC2ERKSA_>:
  40d090:	55                   	push   %rbp
  40d091:	48 89 e5             	mov    %rsp,%rbp
  40d094:	48 89 7d f8          	mov    %rdi,-0x8(%rbp)
  40d098:	48 89 75 f0          	mov    %rsi,-0x10(%rbp)
  40d09c:	5d                   	pop    %rbp
  40d09d:	c3                   	retq   
  40d09e:	66 90                	xchg   %ax,%ax

000000000040d0a0 <_ZNSt12_Vector_baseISt6vectorINSt7__cxx1112basic_stringIcSt11char_traitsIcESaIcEEESaIS6_EESaIS8_EE12_Vector_implC2ERKS9_>:
  40d0a0:	55                   	push   %rbp
  40d0a1:	48 89 e5             	mov    %rsp,%rbp
  40d0a4:	48 83 ec 20          	sub    $0x20,%rsp
  40d0a8:	48 89 7d f8          	mov    %rdi,-0x8(%rbp)
  40d0ac:	48 89 75 f0          	mov    %rsi,-0x10(%rbp)
  40d0b0:	48 8b 45 f8          	mov    -0x8(%rbp),%rax
  40d0b4:	48 89 c1             	mov    %rax,%rcx
  40d0b7:	48 8b 75 f0          	mov    -0x10(%rbp),%rsi
  40d0bb:	48 89 cf             	mov    %rcx,%rdi
  40d0be:	48 89 45 e8          	mov    %rax,-0x18(%rbp)
  40d0c2:	e8 99 ff ff ff       	callq  40d060 <_ZNSaISt6vectorINSt7__cxx1112basic_stringIcSt11char_traitsIcESaIcEEESaIS5_EEEC2ERKS8_>
  40d0c7:	48 8b 45 e8          	mov    -0x18(%rbp),%rax
  40d0cb:	48 89 c7             	mov    %rax,%rdi
  40d0ce:	e8 3d 6e ff ff       	callq  403f10 <_ZNSt12_Vector_baseISt6vectorINSt7__cxx1112basic_stringIcSt11char_traitsIcESaIcEEESaIS6_EESaIS8_EE17_Vector_impl_dataC2Ev>
  40d0d3:	48 83 c4 20          	add    $0x20,%rsp
  40d0d7:	5d                   	pop    %rbp
  40d0d8:	c3                   	retq   
  40d0d9:	0f 1f 80 00 00 00 00 	nopl   0x0(%rax)

000000000040d0e0 <_ZNSt12_Vector_baseISt6vectorINSt7__cxx1112basic_stringIcSt11char_traitsIcESaIcEEESaIS6_EESaIS8_EE17_M_create_storageEm>:
  40d0e0:	55                   	push   %rbp
  40d0e1:	48 89 e5             	mov    %rsp,%rbp
  40d0e4:	48 83 ec 20          	sub    $0x20,%rsp
  40d0e8:	48 89 7d f8          	mov    %rdi,-0x8(%rbp)
  40d0ec:	48 89 75 f0          	mov    %rsi,-0x10(%rbp)
  40d0f0:	48 8b 45 f8          	mov    -0x8(%rbp),%rax
  40d0f4:	48 8b 75 f0          	mov    -0x10(%rbp),%rsi
  40d0f8:	48 89 c7             	mov    %rax,%rdi
  40d0fb:	48 89 45 e8          	mov    %rax,-0x18(%rbp)
  40d0ff:	e8 ac dd ff ff       	callq  40aeb0 <_ZNSt12_Vector_baseISt6vectorINSt7__cxx1112basic_stringIcSt11char_traitsIcESaIcEEESaIS6_EESaIS8_EE11_M_allocateEm>
  40d104:	48 8b 4d e8          	mov    -0x18(%rbp),%rcx
  40d108:	48 89 01             	mov    %rax,(%rcx)
  40d10b:	48 8b 01             	mov    (%rcx),%rax
  40d10e:	48 89 41 08          	mov    %rax,0x8(%rcx)
  40d112:	48 8b 01             	mov    (%rcx),%rax
  40d115:	48 69 55 f0 18 00 00 	imul   $0x18,-0x10(%rbp),%rdx
  40d11c:	00 
  40d11d:	48 01 d0             	add    %rdx,%rax
  40d120:	48 89 41 10          	mov    %rax,0x10(%rcx)
  40d124:	48 83 c4 20          	add    $0x20,%rsp
  40d128:	5d                   	pop    %rbp
  40d129:	c3                   	retq   
  40d12a:	66 0f 1f 44 00 00    	nopw   0x0(%rax,%rax,1)

000000000040d130 <_ZSt18uninitialized_copyIN9__gnu_cxx17__normal_iteratorIPKSt6vectorINSt7__cxx1112basic_stringIcSt11char_traitsIcESaIcEEESaIS8_EES2_ISA_SaISA_EEEEPSA_ET0_T_SI_SH_>:
  40d130:	55                   	push   %rbp
  40d131:	48 89 e5             	mov    %rsp,%rbp
  40d134:	48 83 ec 30          	sub    $0x30,%rsp
  40d138:	48 89 7d f8          	mov    %rdi,-0x8(%rbp)
  40d13c:	48 89 75 f0          	mov    %rsi,-0x10(%rbp)
  40d140:	48 89 55 e8          	mov    %rdx,-0x18(%rbp)
  40d144:	c6 45 e7 01          	movb   $0x1,-0x19(%rbp)
  40d148:	48 8b 45 f8          	mov    -0x8(%rbp),%rax
  40d14c:	48 89 45 d8          	mov    %rax,-0x28(%rbp)
  40d150:	48 8b 45 f0          	mov    -0x10(%rbp),%rax
  40d154:	48 89 45 d0          	mov    %rax,-0x30(%rbp)
  40d158:	48 8b 55 e8          	mov    -0x18(%rbp),%rdx
  40d15c:	48 8b 7d d8          	mov    -0x28(%rbp),%rdi
  40d160:	48 8b 75 d0          	mov    -0x30(%rbp),%rsi
  40d164:	e8 07 00 00 00       	callq  40d170 <_ZNSt20__uninitialized_copyILb0EE13__uninit_copyIN9__gnu_cxx17__normal_iteratorIPKSt6vectorINSt7__cxx1112basic_stringIcSt11char_traitsIcESaIcEEESaISA_EES4_ISC_SaISC_EEEEPSC_EET0_T_SK_SJ_>
  40d169:	48 83 c4 30          	add    $0x30,%rsp
  40d16d:	5d                   	pop    %rbp
  40d16e:	c3                   	retq   
  40d16f:	90                   	nop

000000000040d170 <_ZNSt20__uninitialized_copyILb0EE13__uninit_copyIN9__gnu_cxx17__normal_iteratorIPKSt6vectorINSt7__cxx1112basic_stringIcSt11char_traitsIcESaIcEEESaISA_EES4_ISC_SaISC_EEEEPSC_EET0_T_SK_SJ_>:
  40d170:	55                   	push   %rbp
  40d171:	48 89 e5             	mov    %rsp,%rbp
  40d174:	48 83 ec 50          	sub    $0x50,%rsp
  40d178:	48 89 7d f8          	mov    %rdi,-0x8(%rbp)
  40d17c:	48 89 75 f0          	mov    %rsi,-0x10(%rbp)
  40d180:	48 89 55 e8          	mov    %rdx,-0x18(%rbp)
  40d184:	48 8b 45 e8          	mov    -0x18(%rbp),%rax
  40d188:	48 89 45 e0          	mov    %rax,-0x20(%rbp)
  40d18c:	48 8d 7d f8          	lea    -0x8(%rbp),%rdi
  40d190:	48 8d 75 f0          	lea    -0x10(%rbp),%rsi
  40d194:	e8 c7 00 00 00       	callq  40d260 <_ZN9__gnu_cxxneIPKSt6vectorINSt7__cxx1112basic_stringIcSt11char_traitsIcESaIcEEESaIS7_EES1_IS9_SaIS9_EEEEbRKNS_17__normal_iteratorIT_T0_EESJ_>
  40d199:	a8 01                	test   $0x1,%al
  40d19b:	0f 85 05 00 00 00    	jne    40d1a6 <_ZNSt20__uninitialized_copyILb0EE13__uninit_copyIN9__gnu_cxx17__normal_iteratorIPKSt6vectorINSt7__cxx1112basic_stringIcSt11char_traitsIcESaIcEEESaISA_EES4_ISC_SaISC_EEEEPSC_EET0_T_SK_SJ_+0x36>
  40d1a1:	e9 79 00 00 00       	jmpq   40d21f <_ZNSt20__uninitialized_copyILb0EE13__uninit_copyIN9__gnu_cxx17__normal_iteratorIPKSt6vectorINSt7__cxx1112basic_stringIcSt11char_traitsIcESaIcEEESaISA_EES4_ISC_SaISC_EEEEPSC_EET0_T_SK_SJ_+0xaf>
  40d1a6:	48 8b 7d e0          	mov    -0x20(%rbp),%rdi
  40d1aa:	e8 41 70 ff ff       	callq  4041f0 <_ZSt11__addressofISt6vectorINSt7__cxx1112basic_stringIcSt11char_traitsIcESaIcEEESaIS6_EEEPT_RS9_>
  40d1af:	48 8d 7d f8          	lea    -0x8(%rbp),%rdi
  40d1b3:	48 89 45 c8          	mov    %rax,-0x38(%rbp)
  40d1b7:	e8 24 01 00 00       	callq  40d2e0 <_ZNK9__gnu_cxx17__normal_iteratorIPKSt6vectorINSt7__cxx1112basic_stringIcSt11char_traitsIcESaIcEEESaIS7_EES1_IS9_SaIS9_EEEdeEv>
  40d1bc:	48 8b 7d c8          	mov    -0x38(%rbp),%rdi
  40d1c0:	48 89 c6             	mov    %rax,%rsi
  40d1c3:	e8 d8 00 00 00       	callq  40d2a0 <_ZSt10_ConstructISt6vectorINSt7__cxx1112basic_stringIcSt11char_traitsIcESaIcEEESaIS6_EEJRKS8_EEvPT_DpOT0_>
  40d1c8:	e9 00 00 00 00       	jmpq   40d1cd <_ZNSt20__uninitialized_copyILb0EE13__uninit_copyIN9__gnu_cxx17__normal_iteratorIPKSt6vectorINSt7__cxx1112basic_stringIcSt11char_traitsIcESaIcEEESaISA_EES4_ISC_SaISC_EEEEPSC_EET0_T_SK_SJ_+0x5d>
  40d1cd:	e9 00 00 00 00       	jmpq   40d1d2 <_ZNSt20__uninitialized_copyILb0EE13__uninit_copyIN9__gnu_cxx17__normal_iteratorIPKSt6vectorINSt7__cxx1112basic_stringIcSt11char_traitsIcESaIcEEESaISA_EES4_ISC_SaISC_EEEEPSC_EET0_T_SK_SJ_+0x62>
  40d1d2:	48 8d 7d f8          	lea    -0x8(%rbp),%rdi
  40d1d6:	e8 25 01 00 00       	callq  40d300 <_ZN9__gnu_cxx17__normal_iteratorIPKSt6vectorINSt7__cxx1112basic_stringIcSt11char_traitsIcESaIcEEESaIS7_EES1_IS9_SaIS9_EEEppEv>
  40d1db:	48 8b 4d e0          	mov    -0x20(%rbp),%rcx
  40d1df:	48 81 c1 18 00 00 00 	add    $0x18,%rcx
  40d1e6:	48 89 4d e0          	mov    %rcx,-0x20(%rbp)
  40d1ea:	e9 9d ff ff ff       	jmpq   40d18c <_ZNSt20__uninitialized_copyILb0EE13__uninit_copyIN9__gnu_cxx17__normal_iteratorIPKSt6vectorINSt7__cxx1112basic_stringIcSt11char_traitsIcESaIcEEESaISA_EES4_ISC_SaISC_EEEEPSC_EET0_T_SK_SJ_+0x1c>
  40d1ef:	48 89 45 d8          	mov    %rax,-0x28(%rbp)
  40d1f3:	89 55 d4             	mov    %edx,-0x2c(%rbp)
  40d1f6:	48 8b 7d d8          	mov    -0x28(%rbp),%rdi
  40d1fa:	e8 a1 5e ff ff       	callq  4030a0 <__cxa_begin_catch@plt>
  40d1ff:	48 8b 7d e8          	mov    -0x18(%rbp),%rdi
  40d203:	48 8b 75 e0          	mov    -0x20(%rbp),%rsi
  40d207:	48 89 45 c0          	mov    %rax,-0x40(%rbp)
  40d20b:	e8 40 6f ff ff       	callq  404150 <_ZSt8_DestroyIPSt6vectorINSt7__cxx1112basic_stringIcSt11char_traitsIcESaIcEEESaIS6_EEEvT_SA_>
  40d210:	e9 00 00 00 00       	jmpq   40d215 <_ZNSt20__uninitialized_copyILb0EE13__uninit_copyIN9__gnu_cxx17__normal_iteratorIPKSt6vectorINSt7__cxx1112basic_stringIcSt11char_traitsIcESaIcEEESaISA_EES4_ISC_SaISC_EEEEPSC_EET0_T_SK_SJ_+0xa5>
  40d215:	e8 46 61 ff ff       	callq  403360 <__cxa_rethrow@plt>
  40d21a:	e9 34 00 00 00       	jmpq   40d253 <_ZNSt20__uninitialized_copyILb0EE13__uninit_copyIN9__gnu_cxx17__normal_iteratorIPKSt6vectorINSt7__cxx1112basic_stringIcSt11char_traitsIcESaIcEEESaISA_EES4_ISC_SaISC_EEEEPSC_EET0_T_SK_SJ_+0xe3>
  40d21f:	48 8b 45 e0          	mov    -0x20(%rbp),%rax
  40d223:	48 83 c4 50          	add    $0x50,%rsp
  40d227:	5d                   	pop    %rbp
  40d228:	c3                   	retq   
  40d229:	48 89 45 d8          	mov    %rax,-0x28(%rbp)
  40d22d:	89 55 d4             	mov    %edx,-0x2c(%rbp)
  40d230:	e8 7b 61 ff ff       	callq  4033b0 <__cxa_end_catch@plt>
  40d235:	e9 00 00 00 00       	jmpq   40d23a <_ZNSt20__uninitialized_copyILb0EE13__uninit_copyIN9__gnu_cxx17__normal_iteratorIPKSt6vectorINSt7__cxx1112basic_stringIcSt11char_traitsIcESaIcEEESaISA_EES4_ISC_SaISC_EEEEPSC_EET0_T_SK_SJ_+0xca>
  40d23a:	e9 00 00 00 00       	jmpq   40d23f <_ZNSt20__uninitialized_copyILb0EE13__uninit_copyIN9__gnu_cxx17__normal_iteratorIPKSt6vectorINSt7__cxx1112basic_stringIcSt11char_traitsIcESaIcEEESaISA_EES4_ISC_SaISC_EEEEPSC_EET0_T_SK_SJ_+0xcf>
  40d23f:	48 8b 7d d8          	mov    -0x28(%rbp),%rdi
  40d243:	e8 98 61 ff ff       	callq  4033e0 <_Unwind_Resume@plt>
  40d248:	48 89 c7             	mov    %rax,%rdi
  40d24b:	89 55 bc             	mov    %edx,-0x44(%rbp)
  40d24e:	e8 fd 6d ff ff       	callq  404050 <__clang_call_terminate>
  40d253:	66 2e 0f 1f 84 00 00 	nopw   %cs:0x0(%rax,%rax,1)
  40d25a:	00 00 00 
  40d25d:	0f 1f 00             	nopl   (%rax)

000000000040d260 <_ZN9__gnu_cxxneIPKSt6vectorINSt7__cxx1112basic_stringIcSt11char_traitsIcESaIcEEESaIS7_EES1_IS9_SaIS9_EEEEbRKNS_17__normal_iteratorIT_T0_EESJ_>:
  40d260:	55                   	push   %rbp
  40d261:	48 89 e5             	mov    %rsp,%rbp
  40d264:	48 83 ec 20          	sub    $0x20,%rsp
  40d268:	48 89 7d f8          	mov    %rdi,-0x8(%rbp)
  40d26c:	48 89 75 f0          	mov    %rsi,-0x10(%rbp)
  40d270:	48 8b 7d f8          	mov    -0x8(%rbp),%rdi
  40d274:	e8 a7 00 00 00       	callq  40d320 <_ZNK9__gnu_cxx17__normal_iteratorIPKSt6vectorINSt7__cxx1112basic_stringIcSt11char_traitsIcESaIcEEESaIS7_EES1_IS9_SaIS9_EEE4baseEv>
  40d279:	48 8b 00             	mov    (%rax),%rax
  40d27c:	48 8b 7d f0          	mov    -0x10(%rbp),%rdi
  40d280:	48 89 45 e8          	mov    %rax,-0x18(%rbp)
  40d284:	e8 97 00 00 00       	callq  40d320 <_ZNK9__gnu_cxx17__normal_iteratorIPKSt6vectorINSt7__cxx1112basic_stringIcSt11char_traitsIcESaIcEEESaIS7_EES1_IS9_SaIS9_EEE4baseEv>
  40d289:	48 8b 4d e8          	mov    -0x18(%rbp),%rcx
  40d28d:	48 3b 08             	cmp    (%rax),%rcx
  40d290:	0f 95 c2             	setne  %dl
  40d293:	80 e2 01             	and    $0x1,%dl
  40d296:	0f b6 c2             	movzbl %dl,%eax
  40d299:	48 83 c4 20          	add    $0x20,%rsp
  40d29d:	5d                   	pop    %rbp
  40d29e:	c3                   	retq   
  40d29f:	90                   	nop

000000000040d2a0 <_ZSt10_ConstructISt6vectorINSt7__cxx1112basic_stringIcSt11char_traitsIcESaIcEEESaIS6_EEJRKS8_EEvPT_DpOT0_>:
  40d2a0:	55                   	push   %rbp
  40d2a1:	48 89 e5             	mov    %rsp,%rbp
  40d2a4:	48 83 ec 20          	sub    $0x20,%rsp
  40d2a8:	48 89 7d f8          	mov    %rdi,-0x8(%rbp)
  40d2ac:	48 89 75 f0          	mov    %rsi,-0x10(%rbp)
  40d2b0:	48 8b 45 f8          	mov    -0x8(%rbp),%rax
  40d2b4:	48 8b 7d f0          	mov    -0x10(%rbp),%rdi
  40d2b8:	48 89 45 e8          	mov    %rax,-0x18(%rbp)
  40d2bc:	e8 7f d5 ff ff       	callq  40a840 <_ZSt7forwardIRKSt6vectorINSt7__cxx1112basic_stringIcSt11char_traitsIcESaIcEEESaIS6_EEEOT_RNSt16remove_referenceISB_E4typeE>
  40d2c1:	48 8b 7d e8          	mov    -0x18(%rbp),%rdi
  40d2c5:	48 89 c6             	mov    %rax,%rsi
  40d2c8:	e8 83 d5 ff ff       	callq  40a850 <_ZNSt6vectorINSt7__cxx1112basic_stringIcSt11char_traitsIcESaIcEEESaIS5_EEC2ERKS7_>
  40d2cd:	48 83 c4 20          	add    $0x20,%rsp
  40d2d1:	5d                   	pop    %rbp
  40d2d2:	c3                   	retq   
  40d2d3:	66 2e 0f 1f 84 00 00 	nopw   %cs:0x0(%rax,%rax,1)
  40d2da:	00 00 00 
  40d2dd:	0f 1f 00             	nopl   (%rax)

000000000040d2e0 <_ZNK9__gnu_cxx17__normal_iteratorIPKSt6vectorINSt7__cxx1112basic_stringIcSt11char_traitsIcESaIcEEESaIS7_EES1_IS9_SaIS9_EEEdeEv>:
  40d2e0:	55                   	push   %rbp
  40d2e1:	48 89 e5             	mov    %rsp,%rbp
  40d2e4:	48 89 7d f8          	mov    %rdi,-0x8(%rbp)
  40d2e8:	48 8b 45 f8          	mov    -0x8(%rbp),%rax
  40d2ec:	48 8b 00             	mov    (%rax),%rax
  40d2ef:	5d                   	pop    %rbp
  40d2f0:	c3                   	retq   
  40d2f1:	66 2e 0f 1f 84 00 00 	nopw   %cs:0x0(%rax,%rax,1)
  40d2f8:	00 00 00 
  40d2fb:	0f 1f 44 00 00       	nopl   0x0(%rax,%rax,1)

000000000040d300 <_ZN9__gnu_cxx17__normal_iteratorIPKSt6vectorINSt7__cxx1112basic_stringIcSt11char_traitsIcESaIcEEESaIS7_EES1_IS9_SaIS9_EEEppEv>:
  40d300:	55                   	push   %rbp
  40d301:	48 89 e5             	mov    %rsp,%rbp
  40d304:	48 89 7d f8          	mov    %rdi,-0x8(%rbp)
  40d308:	48 8b 45 f8          	mov    -0x8(%rbp),%rax
  40d30c:	48 8b 08             	mov    (%rax),%rcx
  40d30f:	48 81 c1 18 00 00 00 	add    $0x18,%rcx
  40d316:	48 89 08             	mov    %rcx,(%rax)
  40d319:	5d                   	pop    %rbp
  40d31a:	c3                   	retq   
  40d31b:	0f 1f 44 00 00       	nopl   0x0(%rax,%rax,1)

000000000040d320 <_ZNK9__gnu_cxx17__normal_iteratorIPKSt6vectorINSt7__cxx1112basic_stringIcSt11char_traitsIcESaIcEEESaIS7_EES1_IS9_SaIS9_EEE4baseEv>:
  40d320:	55                   	push   %rbp
  40d321:	48 89 e5             	mov    %rsp,%rbp
  40d324:	48 89 7d f8          	mov    %rdi,-0x8(%rbp)
  40d328:	48 8b 45 f8          	mov    -0x8(%rbp),%rax
  40d32c:	5d                   	pop    %rbp
  40d32d:	c3                   	retq   
  40d32e:	66 90                	xchg   %ax,%ax

000000000040d330 <_ZN9__gnu_cxx17__normal_iteratorIPKSt6vectorINSt7__cxx1112basic_stringIcSt11char_traitsIcESaIcEEESaIS7_EES1_IS9_SaIS9_EEEC2ERKSB_>:
  40d330:	55                   	push   %rbp
  40d331:	48 89 e5             	mov    %rsp,%rbp
  40d334:	48 89 7d f8          	mov    %rdi,-0x8(%rbp)
  40d338:	48 89 75 f0          	mov    %rsi,-0x10(%rbp)
  40d33c:	48 8b 45 f8          	mov    -0x8(%rbp),%rax
  40d340:	48 8b 4d f0          	mov    -0x10(%rbp),%rcx
  40d344:	48 8b 09             	mov    (%rcx),%rcx
  40d347:	48 89 08             	mov    %rcx,(%rax)
  40d34a:	5d                   	pop    %rbp
  40d34b:	c3                   	retq   
  40d34c:	0f 1f 40 00          	nopl   0x0(%rax)

000000000040d350 <_ZN5Eigen8internal12print_matrixINS_6MatrixIdLin1ELin1ELi0ELin1ELin1EEEEERSoS4_RKT_RKNS_8IOFormatE>:
  40d350:	55                   	push   %rbp
  40d351:	48 89 e5             	mov    %rsp,%rbp
  40d354:	48 81 ec 80 02 00 00 	sub    $0x280,%rsp
  40d35b:	48 89 7d f0          	mov    %rdi,-0x10(%rbp)
  40d35f:	48 89 75 e8          	mov    %rsi,-0x18(%rbp)
  40d363:	48 89 55 e0          	mov    %rdx,-0x20(%rbp)
  40d367:	48 8b 45 e8          	mov    -0x18(%rbp),%rax
  40d36b:	48 89 c7             	mov    %rax,%rdi
  40d36e:	e8 9d 08 00 00       	callq  40dc10 <_ZNK5Eigen9EigenBaseINS_6MatrixIdLin1ELin1ELi0ELin1ELin1EEEE4sizeEv>
  40d373:	48 83 f8 00          	cmp    $0x0,%rax
  40d377:	0f 85 30 00 00 00    	jne    40d3ad <_ZN5Eigen8internal12print_matrixINS_6MatrixIdLin1ELin1ELi0ELin1ELin1EEEEERSoS4_RKT_RKNS_8IOFormatE+0x5d>
  40d37d:	48 8b 7d f0          	mov    -0x10(%rbp),%rdi
  40d381:	48 8b 75 e0          	mov    -0x20(%rbp),%rsi
  40d385:	e8 86 5e ff ff       	callq  403210 <_ZStlsIcSt11char_traitsIcESaIcEERSt13basic_ostreamIT_T0_ES7_RKNSt7__cxx1112basic_stringIS4_S5_T1_EE@plt>
  40d38a:	48 8b 4d e0          	mov    -0x20(%rbp),%rcx
  40d38e:	48 81 c1 20 00 00 00 	add    $0x20,%rcx
  40d395:	48 89 c7             	mov    %rax,%rdi
  40d398:	48 89 ce             	mov    %rcx,%rsi
  40d39b:	e8 70 5e ff ff       	callq  403210 <_ZStlsIcSt11char_traitsIcESaIcEERSt13basic_ostreamIT_T0_ES7_RKNSt7__cxx1112basic_stringIS4_S5_T1_EE@plt>
  40d3a0:	48 8b 4d f0          	mov    -0x10(%rbp),%rcx
  40d3a4:	48 89 4d f8          	mov    %rcx,-0x8(%rbp)
  40d3a8:	e9 cb 04 00 00       	jmpq   40d878 <_ZN5Eigen8internal12print_matrixINS_6MatrixIdLin1ELin1ELi0ELin1ELin1EEEEERSoS4_RKT_RKNS_8IOFormatE+0x528>
  40d3ad:	48 8b 45 e8          	mov    -0x18(%rbp),%rax
  40d3b1:	48 89 45 d8          	mov    %rax,-0x28(%rbp)
  40d3b5:	48 c7 45 d0 00 00 00 	movq   $0x0,-0x30(%rbp)
  40d3bc:	00 
  40d3bd:	48 8b 45 e0          	mov    -0x20(%rbp),%rax
  40d3c1:	83 b8 e0 00 00 00 ff 	cmpl   $0xffffffff,0xe0(%rax)
  40d3c8:	0f 85 0d 00 00 00    	jne    40d3db <_ZN5Eigen8internal12print_matrixINS_6MatrixIdLin1ELin1ELi0ELin1ELin1EEEEERSoS4_RKT_RKNS_8IOFormatE+0x8b>
  40d3ce:	48 c7 45 c8 00 00 00 	movq   $0x0,-0x38(%rbp)
  40d3d5:	00 
  40d3d6:	e9 36 00 00 00       	jmpq   40d411 <_ZN5Eigen8internal12print_matrixINS_6MatrixIdLin1ELin1ELi0ELin1ELin1EEEEERSoS4_RKT_RKNS_8IOFormatE+0xc1>
  40d3db:	48 8b 45 e0          	mov    -0x20(%rbp),%rax
  40d3df:	83 b8 e0 00 00 00 fe 	cmpl   $0xfffffffe,0xe0(%rax)
  40d3e6:	0f 85 11 00 00 00    	jne    40d3fd <_ZN5Eigen8internal12print_matrixINS_6MatrixIdLin1ELin1ELi0ELin1ELin1EEEEERSoS4_RKT_RKNS_8IOFormatE+0xad>
  40d3ec:	e8 5f 08 00 00       	callq  40dc50 <_ZN5Eigen8internal25significant_decimals_implIdE3runEv>
  40d3f1:	48 63 c8             	movslq %eax,%rcx
  40d3f4:	48 89 4d c8          	mov    %rcx,-0x38(%rbp)
  40d3f8:	e9 0f 00 00 00       	jmpq   40d40c <_ZN5Eigen8internal12print_matrixINS_6MatrixIdLin1ELin1ELi0ELin1ELin1EEEEERSoS4_RKT_RKNS_8IOFormatE+0xbc>
  40d3fd:	48 8b 45 e0          	mov    -0x20(%rbp),%rax
  40d401:	48 63 80 e0 00 00 00 	movslq 0xe0(%rax),%rax
  40d408:	48 89 45 c8          	mov    %rax,-0x38(%rbp)
  40d40c:	e9 00 00 00 00       	jmpq   40d411 <_ZN5Eigen8internal12print_matrixINS_6MatrixIdLin1ELin1ELi0ELin1ELin1EEEEERSoS4_RKT_RKNS_8IOFormatE+0xc1>
  40d411:	48 c7 45 c0 00 00 00 	movq   $0x0,-0x40(%rbp)
  40d418:	00 
  40d419:	48 83 7d c8 00       	cmpq   $0x0,-0x38(%rbp)
  40d41e:	0f 84 1e 00 00 00    	je     40d442 <_ZN5Eigen8internal12print_matrixINS_6MatrixIdLin1ELin1ELi0ELin1ELin1EEEEERSoS4_RKT_RKNS_8IOFormatE+0xf2>
  40d424:	48 8b 45 f0          	mov    -0x10(%rbp),%rax
  40d428:	48 8b 08             	mov    (%rax),%rcx
  40d42b:	48 8b 49 e8          	mov    -0x18(%rcx),%rcx
  40d42f:	48 01 c8             	add    %rcx,%rax
  40d432:	48 8b 75 c8          	mov    -0x38(%rbp),%rsi
  40d436:	48 89 c7             	mov    %rax,%rdi
  40d439:	e8 22 08 00 00       	callq  40dc60 <_ZNSt8ios_base9precisionEl>
  40d43e:	48 89 45 c0          	mov    %rax,-0x40(%rbp)
  40d442:	48 8b 45 e0          	mov    -0x20(%rbp),%rax
  40d446:	8b 88 e4 00 00 00    	mov    0xe4(%rax),%ecx
  40d44c:	83 e1 01             	and    $0x1,%ecx
  40d44f:	83 f9 00             	cmp    $0x0,%ecx
  40d452:	0f 95 c2             	setne  %dl
  40d455:	80 f2 ff             	xor    $0xff,%dl
  40d458:	80 e2 01             	and    $0x1,%dl
  40d45b:	88 55 bf             	mov    %dl,-0x41(%rbp)
  40d45e:	f6 45 bf 01          	testb  $0x1,-0x41(%rbp)
  40d462:	0f 84 bb 01 00 00    	je     40d623 <_ZN5Eigen8internal12print_matrixINS_6MatrixIdLin1ELin1ELi0ELin1ELin1EEEEERSoS4_RKT_RKNS_8IOFormatE+0x2d3>
  40d468:	48 c7 45 b0 00 00 00 	movq   $0x0,-0x50(%rbp)
  40d46f:	00 
  40d470:	48 8b 45 b0          	mov    -0x50(%rbp),%rax
  40d474:	48 8b 4d d8          	mov    -0x28(%rbp),%rcx
  40d478:	48 89 cf             	mov    %rcx,%rdi
  40d47b:	48 89 85 d0 fd ff ff 	mov    %rax,-0x230(%rbp)
  40d482:	e8 19 eb ff ff       	callq  40bfa0 <_ZNK5Eigen15PlainObjectBaseINS_6MatrixIdLin1ELin1ELi0ELin1ELin1EEEE4colsEv>
  40d487:	48 8b 8d d0 fd ff ff 	mov    -0x230(%rbp),%rcx
  40d48e:	48 39 c1             	cmp    %rax,%rcx
  40d491:	0f 8d 87 01 00 00    	jge    40d61e <_ZN5Eigen8internal12print_matrixINS_6MatrixIdLin1ELin1ELi0ELin1ELin1EEEEERSoS4_RKT_RKNS_8IOFormatE+0x2ce>
  40d497:	48 c7 45 a8 00 00 00 	movq   $0x0,-0x58(%rbp)
  40d49e:	00 
  40d49f:	48 8b 45 a8          	mov    -0x58(%rbp),%rax
  40d4a3:	48 8b 4d d8          	mov    -0x28(%rbp),%rcx
  40d4a7:	48 89 cf             	mov    %rcx,%rdi
  40d4aa:	48 89 85 c8 fd ff ff 	mov    %rax,-0x238(%rbp)
  40d4b1:	e8 5a e7 ff ff       	callq  40bc10 <_ZNK5Eigen15PlainObjectBaseINS_6MatrixIdLin1ELin1ELi0ELin1ELin1EEEE4rowsEv>
  40d4b6:	48 8b 8d c8 fd ff ff 	mov    -0x238(%rbp),%rcx
  40d4bd:	48 39 c1             	cmp    %rax,%rcx
  40d4c0:	0f 8d 40 01 00 00    	jge    40d606 <_ZN5Eigen8internal12print_matrixINS_6MatrixIdLin1ELin1ELi0ELin1ELin1EEEEERSoS4_RKT_RKNS_8IOFormatE+0x2b6>
  40d4c6:	48 8d bd 20 fe ff ff 	lea    -0x1e0(%rbp),%rdi
  40d4cd:	e8 ae 5c ff ff       	callq  403180 <_ZNSt7__cxx1118basic_stringstreamIcSt11char_traitsIcESaIcEEC1Ev@plt>
  40d4d2:	48 8b 85 20 fe ff ff 	mov    -0x1e0(%rbp),%rax
  40d4d9:	48 8b 40 e8          	mov    -0x18(%rax),%rax
  40d4dd:	48 8d bc 05 20 fe ff 	lea    -0x1e0(%rbp,%rax,1),%rdi
  40d4e4:	ff 
  40d4e5:	48 8b 45 f0          	mov    -0x10(%rbp),%rax
  40d4e9:	48 8b 08             	mov    (%rax),%rcx
  40d4ec:	48 8b 49 e8          	mov    -0x18(%rcx),%rcx
  40d4f0:	48 01 c8             	add    %rcx,%rax
  40d4f3:	48 89 c6             	mov    %rax,%rsi
  40d4f6:	e8 e5 5b ff ff       	callq  4030e0 <_ZNSt9basic_iosIcSt11char_traitsIcEE7copyfmtERKS2_@plt>
  40d4fb:	e9 00 00 00 00       	jmpq   40d500 <_ZN5Eigen8internal12print_matrixINS_6MatrixIdLin1ELin1ELi0ELin1ELin1EEEEERSoS4_RKT_RKNS_8IOFormatE+0x1b0>
  40d500:	48 8d bd 30 fe ff ff 	lea    -0x1d0(%rbp),%rdi
  40d507:	48 8b 45 d8          	mov    -0x28(%rbp),%rax
  40d50b:	48 8b 75 a8          	mov    -0x58(%rbp),%rsi
  40d50f:	48 8b 55 b0          	mov    -0x50(%rbp),%rdx
  40d513:	48 89 bd c0 fd ff ff 	mov    %rdi,-0x240(%rbp)
  40d51a:	48 89 c7             	mov    %rax,%rdi
  40d51d:	e8 6e 07 00 00       	callq  40dc90 <_ZNK5Eigen15PlainObjectBaseINS_6MatrixIdLin1ELin1ELi0ELin1ELin1EEEE5coeffEll>
  40d522:	48 89 85 b8 fd ff ff 	mov    %rax,-0x248(%rbp)
  40d529:	e9 00 00 00 00       	jmpq   40d52e <_ZN5Eigen8internal12print_matrixINS_6MatrixIdLin1ELin1ELi0ELin1ELin1EEEEERSoS4_RKT_RKNS_8IOFormatE+0x1de>
  40d52e:	48 8b 85 b8 fd ff ff 	mov    -0x248(%rbp),%rax
  40d535:	f2 0f 10 00          	movsd  (%rax),%xmm0
  40d539:	48 8b bd c0 fd ff ff 	mov    -0x240(%rbp),%rdi
  40d540:	e8 eb 5e ff ff       	callq  403430 <_ZNSolsEd@plt>
  40d545:	e9 00 00 00 00       	jmpq   40d54a <_ZN5Eigen8internal12print_matrixINS_6MatrixIdLin1ELin1ELi0ELin1ELin1EEEEERSoS4_RKT_RKNS_8IOFormatE+0x1fa>
  40d54a:	48 8d bd e8 fd ff ff 	lea    -0x218(%rbp),%rdi
  40d551:	48 8d b5 20 fe ff ff 	lea    -0x1e0(%rbp),%rsi
  40d558:	e8 e3 5c ff ff       	callq  403240 <_ZNKSt7__cxx1118basic_stringstreamIcSt11char_traitsIcESaIcEE3strEv@plt>
  40d55d:	e9 00 00 00 00       	jmpq   40d562 <_ZN5Eigen8internal12print_matrixINS_6MatrixIdLin1ELin1ELi0ELin1ELin1EEEEERSoS4_RKT_RKNS_8IOFormatE+0x212>
  40d562:	48 8d bd e8 fd ff ff 	lea    -0x218(%rbp),%rdi
  40d569:	e8 02 5e ff ff       	callq  403370 <_ZNKSt7__cxx1112basic_stringIcSt11char_traitsIcESaIcEE6lengthEv@plt>
  40d56e:	48 89 85 08 fe ff ff 	mov    %rax,-0x1f8(%rbp)
  40d575:	48 8d 7d d0          	lea    -0x30(%rbp),%rdi
  40d579:	48 8d b5 08 fe ff ff 	lea    -0x1f8(%rbp),%rsi
  40d580:	e8 7b 07 00 00       	callq  40dd00 <_ZSt3maxIlERKT_S2_S2_>
  40d585:	48 89 85 b0 fd ff ff 	mov    %rax,-0x250(%rbp)
  40d58c:	e9 00 00 00 00       	jmpq   40d591 <_ZN5Eigen8internal12print_matrixINS_6MatrixIdLin1ELin1ELi0ELin1ELin1EEEEERSoS4_RKT_RKNS_8IOFormatE+0x241>
  40d591:	48 8b 85 b0 fd ff ff 	mov    -0x250(%rbp),%rax
  40d598:	48 8b 08             	mov    (%rax),%rcx
  40d59b:	48 89 4d d0          	mov    %rcx,-0x30(%rbp)
  40d59f:	48 8d bd e8 fd ff ff 	lea    -0x218(%rbp),%rdi
  40d5a6:	e8 95 5b ff ff       	callq  403140 <_ZNSt7__cxx1112basic_stringIcSt11char_traitsIcESaIcEED1Ev@plt>
  40d5ab:	48 8d bd 20 fe ff ff 	lea    -0x1e0(%rbp),%rdi
  40d5b2:	e8 f9 5b ff ff       	callq  4031b0 <_ZNSt7__cxx1118basic_stringstreamIcSt11char_traitsIcESaIcEED1Ev@plt>
  40d5b7:	48 8b 45 a8          	mov    -0x58(%rbp),%rax
  40d5bb:	48 05 01 00 00 00    	add    $0x1,%rax
  40d5c1:	48 89 45 a8          	mov    %rax,-0x58(%rbp)
  40d5c5:	e9 d5 fe ff ff       	jmpq   40d49f <_ZN5Eigen8internal12print_matrixINS_6MatrixIdLin1ELin1ELi0ELin1ELin1EEEEERSoS4_RKT_RKNS_8IOFormatE+0x14f>
  40d5ca:	48 89 85 18 fe ff ff 	mov    %rax,-0x1e8(%rbp)
  40d5d1:	89 95 14 fe ff ff    	mov    %edx,-0x1ec(%rbp)
  40d5d7:	e9 19 00 00 00       	jmpq   40d5f5 <_ZN5Eigen8internal12print_matrixINS_6MatrixIdLin1ELin1ELi0ELin1ELin1EEEEERSoS4_RKT_RKNS_8IOFormatE+0x2a5>
  40d5dc:	48 89 85 18 fe ff ff 	mov    %rax,-0x1e8(%rbp)
  40d5e3:	89 95 14 fe ff ff    	mov    %edx,-0x1ec(%rbp)
  40d5e9:	48 8d bd e8 fd ff ff 	lea    -0x218(%rbp),%rdi
  40d5f0:	e8 4b 5b ff ff       	callq  403140 <_ZNSt7__cxx1112basic_stringIcSt11char_traitsIcESaIcEED1Ev@plt>
  40d5f5:	48 8d bd 20 fe ff ff 	lea    -0x1e0(%rbp),%rdi
  40d5fc:	e8 af 5b ff ff       	callq  4031b0 <_ZNSt7__cxx1118basic_stringstreamIcSt11char_traitsIcESaIcEED1Ev@plt>
  40d601:	e9 7f 02 00 00       	jmpq   40d885 <_ZN5Eigen8internal12print_matrixINS_6MatrixIdLin1ELin1ELi0ELin1ELin1EEEEERSoS4_RKT_RKNS_8IOFormatE+0x535>
  40d606:	e9 00 00 00 00       	jmpq   40d60b <_ZN5Eigen8internal12print_matrixINS_6MatrixIdLin1ELin1ELi0ELin1ELin1EEEEERSoS4_RKT_RKNS_8IOFormatE+0x2bb>
  40d60b:	48 8b 45 b0          	mov    -0x50(%rbp),%rax
  40d60f:	48 05 01 00 00 00    	add    $0x1,%rax
  40d615:	48 89 45 b0          	mov    %rax,-0x50(%rbp)
  40d619:	e9 52 fe ff ff       	jmpq   40d470 <_ZN5Eigen8internal12print_matrixINS_6MatrixIdLin1ELin1ELi0ELin1ELin1EEEEERSoS4_RKT_RKNS_8IOFormatE+0x120>
  40d61e:	e9 00 00 00 00       	jmpq   40d623 <_ZN5Eigen8internal12print_matrixINS_6MatrixIdLin1ELin1ELi0ELin1ELin1EEEEERSoS4_RKT_RKNS_8IOFormatE+0x2d3>
  40d623:	48 8b 7d f0          	mov    -0x10(%rbp),%rdi
  40d627:	48 8b 75 e0          	mov    -0x20(%rbp),%rsi
  40d62b:	e8 e0 5b ff ff       	callq  403210 <_ZStlsIcSt11char_traitsIcESaIcEERSt13basic_ostreamIT_T0_ES7_RKNSt7__cxx1112basic_stringIS4_S5_T1_EE@plt>
  40d630:	48 c7 85 e0 fd ff ff 	movq   $0x0,-0x220(%rbp)
  40d637:	00 00 00 00 
  40d63b:	48 8b 85 e0 fd ff ff 	mov    -0x220(%rbp),%rax
  40d642:	48 8b 4d d8          	mov    -0x28(%rbp),%rcx
  40d646:	48 89 cf             	mov    %rcx,%rdi
  40d649:	48 89 85 a8 fd ff ff 	mov    %rax,-0x258(%rbp)
  40d650:	e8 bb e5 ff ff       	callq  40bc10 <_ZNK5Eigen15PlainObjectBaseINS_6MatrixIdLin1ELin1ELi0ELin1ELin1EEEE4rowsEv>
  40d655:	48 8b 8d a8 fd ff ff 	mov    -0x258(%rbp),%rcx
  40d65c:	48 39 c1             	cmp    %rax,%rcx
  40d65f:	0f 8d d0 01 00 00    	jge    40d835 <_ZN5Eigen8internal12print_matrixINS_6MatrixIdLin1ELin1ELi0ELin1ELin1EEEEERSoS4_RKT_RKNS_8IOFormatE+0x4e5>
  40d665:	48 83 bd e0 fd ff ff 	cmpq   $0x0,-0x220(%rbp)
  40d66c:	00 
  40d66d:	0f 84 16 00 00 00    	je     40d689 <_ZN5Eigen8internal12print_matrixINS_6MatrixIdLin1ELin1ELi0ELin1ELin1EEEEERSoS4_RKT_RKNS_8IOFormatE+0x339>
  40d673:	48 8b 7d f0          	mov    -0x10(%rbp),%rdi
  40d677:	48 8b 45 e0          	mov    -0x20(%rbp),%rax
  40d67b:	48 05 a0 00 00 00    	add    $0xa0,%rax
  40d681:	48 89 c6             	mov    %rax,%rsi
  40d684:	e8 87 5b ff ff       	callq  403210 <_ZStlsIcSt11char_traitsIcESaIcEERSt13basic_ostreamIT_T0_ES7_RKNSt7__cxx1112basic_stringIS4_S5_T1_EE@plt>
  40d689:	48 8b 7d f0          	mov    -0x10(%rbp),%rdi
  40d68d:	48 8b 45 e0          	mov    -0x20(%rbp),%rax
  40d691:	48 05 40 00 00 00    	add    $0x40,%rax
  40d697:	48 89 c6             	mov    %rax,%rsi
  40d69a:	e8 71 5b ff ff       	callq  403210 <_ZStlsIcSt11char_traitsIcESaIcEERSt13basic_ostreamIT_T0_ES7_RKNSt7__cxx1112basic_stringIS4_S5_T1_EE@plt>
  40d69f:	48 83 7d d0 00       	cmpq   $0x0,-0x30(%rbp)
  40d6a4:	0f 84 1a 00 00 00    	je     40d6c4 <_ZN5Eigen8internal12print_matrixINS_6MatrixIdLin1ELin1ELi0ELin1ELin1EEEEERSoS4_RKT_RKNS_8IOFormatE+0x374>
  40d6aa:	48 8b 45 f0          	mov    -0x10(%rbp),%rax
  40d6ae:	48 8b 08             	mov    (%rax),%rcx
  40d6b1:	48 8b 49 e8          	mov    -0x18(%rcx),%rcx
  40d6b5:	48 01 c8             	add    %rcx,%rax
  40d6b8:	48 8b 75 d0          	mov    -0x30(%rbp),%rsi
  40d6bc:	48 89 c7             	mov    %rax,%rdi
  40d6bf:	e8 7c 06 00 00       	callq  40dd40 <_ZNSt8ios_base5widthEl>
  40d6c4:	31 c0                	xor    %eax,%eax
  40d6c6:	89 c2                	mov    %eax,%edx
  40d6c8:	48 8b 7d f0          	mov    -0x10(%rbp),%rdi
  40d6cc:	48 8b 4d d8          	mov    -0x28(%rbp),%rcx
  40d6d0:	48 8b b5 e0 fd ff ff 	mov    -0x220(%rbp),%rsi
  40d6d7:	48 89 bd a0 fd ff ff 	mov    %rdi,-0x260(%rbp)
  40d6de:	48 89 cf             	mov    %rcx,%rdi
  40d6e1:	e8 aa 05 00 00       	callq  40dc90 <_ZNK5Eigen15PlainObjectBaseINS_6MatrixIdLin1ELin1ELi0ELin1ELin1EEEE5coeffEll>
  40d6e6:	f2 0f 10 00          	movsd  (%rax),%xmm0
  40d6ea:	48 8b bd a0 fd ff ff 	mov    -0x260(%rbp),%rdi
  40d6f1:	e8 3a 5d ff ff       	callq  403430 <_ZNSolsEd@plt>
  40d6f6:	48 c7 85 d8 fd ff ff 	movq   $0x1,-0x228(%rbp)
  40d6fd:	01 00 00 00 
  40d701:	48 8b 85 d8 fd ff ff 	mov    -0x228(%rbp),%rax
  40d708:	48 8b 4d d8          	mov    -0x28(%rbp),%rcx
  40d70c:	48 89 cf             	mov    %rcx,%rdi
  40d70f:	48 89 85 98 fd ff ff 	mov    %rax,-0x268(%rbp)
  40d716:	e8 85 e8 ff ff       	callq  40bfa0 <_ZNK5Eigen15PlainObjectBaseINS_6MatrixIdLin1ELin1ELi0ELin1ELin1EEEE4colsEv>
  40d71b:	48 8b 8d 98 fd ff ff 	mov    -0x268(%rbp),%rcx
  40d722:	48 39 c1             	cmp    %rax,%rcx
  40d725:	0f 8d 89 00 00 00    	jge    40d7b4 <_ZN5Eigen8internal12print_matrixINS_6MatrixIdLin1ELin1ELi0ELin1ELin1EEEEERSoS4_RKT_RKNS_8IOFormatE+0x464>
  40d72b:	48 8b 7d f0          	mov    -0x10(%rbp),%rdi
  40d72f:	48 8b 45 e0          	mov    -0x20(%rbp),%rax
  40d733:	48 05 c0 00 00 00    	add    $0xc0,%rax
  40d739:	48 89 c6             	mov    %rax,%rsi
  40d73c:	e8 cf 5a ff ff       	callq  403210 <_ZStlsIcSt11char_traitsIcESaIcEERSt13basic_ostreamIT_T0_ES7_RKNSt7__cxx1112basic_stringIS4_S5_T1_EE@plt>
  40d741:	48 83 7d d0 00       	cmpq   $0x0,-0x30(%rbp)
  40d746:	0f 84 1a 00 00 00    	je     40d766 <_ZN5Eigen8internal12print_matrixINS_6MatrixIdLin1ELin1ELi0ELin1ELin1EEEEERSoS4_RKT_RKNS_8IOFormatE+0x416>
  40d74c:	48 8b 45 f0          	mov    -0x10(%rbp),%rax
  40d750:	48 8b 08             	mov    (%rax),%rcx
  40d753:	48 8b 49 e8          	mov    -0x18(%rcx),%rcx
  40d757:	48 01 c8             	add    %rcx,%rax
  40d75a:	48 8b 75 d0          	mov    -0x30(%rbp),%rsi
  40d75e:	48 89 c7             	mov    %rax,%rdi
  40d761:	e8 da 05 00 00       	callq  40dd40 <_ZNSt8ios_base5widthEl>
  40d766:	48 8b 7d f0          	mov    -0x10(%rbp),%rdi
  40d76a:	48 8b 45 d8          	mov    -0x28(%rbp),%rax
  40d76e:	48 8b b5 e0 fd ff ff 	mov    -0x220(%rbp),%rsi
  40d775:	48 8b 95 d8 fd ff ff 	mov    -0x228(%rbp),%rdx
  40d77c:	48 89 bd 90 fd ff ff 	mov    %rdi,-0x270(%rbp)
  40d783:	48 89 c7             	mov    %rax,%rdi
  40d786:	e8 05 05 00 00       	callq  40dc90 <_ZNK5Eigen15PlainObjectBaseINS_6MatrixIdLin1ELin1ELi0ELin1ELin1EEEE5coeffEll>
  40d78b:	f2 0f 10 00          	movsd  (%rax),%xmm0
  40d78f:	48 8b bd 90 fd ff ff 	mov    -0x270(%rbp),%rdi
  40d796:	e8 95 5c ff ff       	callq  403430 <_ZNSolsEd@plt>
  40d79b:	48 8b 85 d8 fd ff ff 	mov    -0x228(%rbp),%rax
  40d7a2:	48 05 01 00 00 00    	add    $0x1,%rax
  40d7a8:	48 89 85 d8 fd ff ff 	mov    %rax,-0x228(%rbp)
  40d7af:	e9 4d ff ff ff       	jmpq   40d701 <_ZN5Eigen8internal12print_matrixINS_6MatrixIdLin1ELin1ELi0ELin1ELin1EEEEERSoS4_RKT_RKNS_8IOFormatE+0x3b1>
  40d7b4:	48 8b 7d f0          	mov    -0x10(%rbp),%rdi
  40d7b8:	48 8b 45 e0          	mov    -0x20(%rbp),%rax
  40d7bc:	48 05 60 00 00 00    	add    $0x60,%rax
  40d7c2:	48 89 c6             	mov    %rax,%rsi
  40d7c5:	e8 46 5a ff ff       	callq  403210 <_ZStlsIcSt11char_traitsIcESaIcEERSt13basic_ostreamIT_T0_ES7_RKNSt7__cxx1112basic_stringIS4_S5_T1_EE@plt>
  40d7ca:	48 8b 8d e0 fd ff ff 	mov    -0x220(%rbp),%rcx
  40d7d1:	48 8b 55 d8          	mov    -0x28(%rbp),%rdx
  40d7d5:	48 89 d7             	mov    %rdx,%rdi
  40d7d8:	48 89 85 88 fd ff ff 	mov    %rax,-0x278(%rbp)
  40d7df:	48 89 8d 80 fd ff ff 	mov    %rcx,-0x280(%rbp)
  40d7e6:	e8 25 e4 ff ff       	callq  40bc10 <_ZNK5Eigen15PlainObjectBaseINS_6MatrixIdLin1ELin1ELi0ELin1ELin1EEEE4rowsEv>
  40d7eb:	48 2d 01 00 00 00    	sub    $0x1,%rax
  40d7f1:	48 8b 8d 80 fd ff ff 	mov    -0x280(%rbp),%rcx
  40d7f8:	48 39 c1             	cmp    %rax,%rcx
  40d7fb:	0f 8d 16 00 00 00    	jge    40d817 <_ZN5Eigen8internal12print_matrixINS_6MatrixIdLin1ELin1ELi0ELin1ELin1EEEEERSoS4_RKT_RKNS_8IOFormatE+0x4c7>
  40d801:	48 8b 7d f0          	mov    -0x10(%rbp),%rdi
  40d805:	48 8b 45 e0          	mov    -0x20(%rbp),%rax
  40d809:	48 05 80 00 00 00    	add    $0x80,%rax
  40d80f:	48 89 c6             	mov    %rax,%rsi
  40d812:	e8 f9 59 ff ff       	callq  403210 <_ZStlsIcSt11char_traitsIcESaIcEERSt13basic_ostreamIT_T0_ES7_RKNSt7__cxx1112basic_stringIS4_S5_T1_EE@plt>
  40d817:	e9 00 00 00 00       	jmpq   40d81c <_ZN5Eigen8internal12print_matrixINS_6MatrixIdLin1ELin1ELi0ELin1ELin1EEEEERSoS4_RKT_RKNS_8IOFormatE+0x4cc>
  40d81c:	48 8b 85 e0 fd ff ff 	mov    -0x220(%rbp),%rax
  40d823:	48 05 01 00 00 00    	add    $0x1,%rax
  40d829:	48 89 85 e0 fd ff ff 	mov    %rax,-0x220(%rbp)
  40d830:	e9 06 fe ff ff       	jmpq   40d63b <_ZN5Eigen8internal12print_matrixINS_6MatrixIdLin1ELin1ELi0ELin1ELin1EEEEERSoS4_RKT_RKNS_8IOFormatE+0x2eb>
  40d835:	48 8b 7d f0          	mov    -0x10(%rbp),%rdi
  40d839:	48 8b 45 e0          	mov    -0x20(%rbp),%rax
  40d83d:	48 05 20 00 00 00    	add    $0x20,%rax
  40d843:	48 89 c6             	mov    %rax,%rsi
  40d846:	e8 c5 59 ff ff       	callq  403210 <_ZStlsIcSt11char_traitsIcESaIcEERSt13basic_ostreamIT_T0_ES7_RKNSt7__cxx1112basic_stringIS4_S5_T1_EE@plt>
  40d84b:	48 83 7d c8 00       	cmpq   $0x0,-0x38(%rbp)
  40d850:	0f 84 1a 00 00 00    	je     40d870 <_ZN5Eigen8internal12print_matrixINS_6MatrixIdLin1ELin1ELi0ELin1ELin1EEEEERSoS4_RKT_RKNS_8IOFormatE+0x520>
  40d856:	48 8b 45 f0          	mov    -0x10(%rbp),%rax
  40d85a:	48 8b 08             	mov    (%rax),%rcx
  40d85d:	48 8b 49 e8          	mov    -0x18(%rcx),%rcx
  40d861:	48 01 c8             	add    %rcx,%rax
  40d864:	48 8b 75 c0          	mov    -0x40(%rbp),%rsi
  40d868:	48 89 c7             	mov    %rax,%rdi
  40d86b:	e8 f0 03 00 00       	callq  40dc60 <_ZNSt8ios_base9precisionEl>
  40d870:	48 8b 45 f0          	mov    -0x10(%rbp),%rax
  40d874:	48 89 45 f8          	mov    %rax,-0x8(%rbp)
  40d878:	48 8b 45 f8          	mov    -0x8(%rbp),%rax
  40d87c:	48 81 c4 80 02 00 00 	add    $0x280,%rsp
  40d883:	5d                   	pop    %rbp
  40d884:	c3                   	retq   
  40d885:	48 8b bd 18 fe ff ff 	mov    -0x1e8(%rbp),%rdi
  40d88c:	e8 4f 5b ff ff       	callq  4033e0 <_Unwind_Resume@plt>
  40d891:	66 2e 0f 1f 84 00 00 	nopw   %cs:0x0(%rax,%rax,1)
  40d898:	00 00 00 
  40d89b:	0f 1f 44 00 00       	nopl   0x0(%rax,%rax,1)

000000000040d8a0 <_ZNK5Eigen9DenseBaseINS_6MatrixIdLin1ELin1ELi0ELin1ELin1EEEE4evalEv>:
  40d8a0:	55                   	push   %rbp
  40d8a1:	48 89 e5             	mov    %rsp,%rbp
  40d8a4:	48 83 ec 10          	sub    $0x10,%rsp
  40d8a8:	48 89 7d f8          	mov    %rdi,-0x8(%rbp)
  40d8ac:	48 8b 45 f8          	mov    -0x8(%rbp),%rax
  40d8b0:	48 89 c7             	mov    %rax,%rdi
  40d8b3:	e8 d8 e2 ff ff       	callq  40bb90 <_ZNK5Eigen9EigenBaseINS_6MatrixIdLin1ELin1ELi0ELin1ELin1EEEE7derivedEv>
  40d8b8:	48 83 c4 10          	add    $0x10,%rsp
  40d8bc:	5d                   	pop    %rbp
  40d8bd:	c3                   	retq   
  40d8be:	66 90                	xchg   %ax,%ax

000000000040d8c0 <_ZN5Eigen8IOFormatC2EiiRKNSt7__cxx1112basic_stringIcSt11char_traitsIcESaIcEEES8_S8_S8_S8_S8_>:
  40d8c0:	55                   	push   %rbp
  40d8c1:	48 89 e5             	mov    %rsp,%rbp
  40d8c4:	48 81 ec b0 00 00 00 	sub    $0xb0,%rsp
  40d8cb:	48 8b 45 20          	mov    0x20(%rbp),%rax
  40d8cf:	4c 8b 55 18          	mov    0x18(%rbp),%r10
  40d8d3:	4c 8b 5d 10          	mov    0x10(%rbp),%r11
  40d8d7:	48 89 7d f8          	mov    %rdi,-0x8(%rbp)
  40d8db:	89 75 f4             	mov    %esi,-0xc(%rbp)
  40d8de:	89 55 f0             	mov    %edx,-0x10(%rbp)
  40d8e1:	48 89 4d e8          	mov    %rcx,-0x18(%rbp)
  40d8e5:	4c 89 45 e0          	mov    %r8,-0x20(%rbp)
  40d8e9:	4c 89 4d d8          	mov    %r9,-0x28(%rbp)
  40d8ed:	48 8b 4d f8          	mov    -0x8(%rbp),%rcx
  40d8f1:	48 89 cf             	mov    %rcx,%rdi
  40d8f4:	48 8b 75 18          	mov    0x18(%rbp),%rsi
  40d8f8:	48 89 7d b8          	mov    %rdi,-0x48(%rbp)
  40d8fc:	48 89 cf             	mov    %rcx,%rdi
  40d8ff:	48 89 45 b0          	mov    %rax,-0x50(%rbp)
  40d903:	4c 89 55 a8          	mov    %r10,-0x58(%rbp)
  40d907:	4c 89 5d a0          	mov    %r11,-0x60(%rbp)
  40d90b:	48 89 4d 98          	mov    %rcx,-0x68(%rbp)
  40d90f:	e8 ac 57 ff ff       	callq  4030c0 <_ZNSt7__cxx1112basic_stringIcSt11char_traitsIcESaIcEEC1ERKS4_@plt>
  40d914:	48 8b 45 98          	mov    -0x68(%rbp),%rax
  40d918:	48 83 c0 20          	add    $0x20,%rax
  40d91c:	48 8b 75 20          	mov    0x20(%rbp),%rsi
  40d920:	48 89 c7             	mov    %rax,%rdi
  40d923:	48 89 45 90          	mov    %rax,-0x70(%rbp)
  40d927:	e8 94 57 ff ff       	callq  4030c0 <_ZNSt7__cxx1112basic_stringIcSt11char_traitsIcESaIcEEC1ERKS4_@plt>
  40d92c:	e9 00 00 00 00       	jmpq   40d931 <_ZN5Eigen8IOFormatC2EiiRKNSt7__cxx1112basic_stringIcSt11char_traitsIcESaIcEEES8_S8_S8_S8_S8_+0x71>
  40d931:	48 8b 45 b8          	mov    -0x48(%rbp),%rax
  40d935:	48 83 c0 40          	add    $0x40,%rax
  40d939:	48 8b 75 d8          	mov    -0x28(%rbp),%rsi
  40d93d:	48 89 c7             	mov    %rax,%rdi
  40d940:	48 89 45 88          	mov    %rax,-0x78(%rbp)
  40d944:	e8 77 57 ff ff       	callq  4030c0 <_ZNSt7__cxx1112basic_stringIcSt11char_traitsIcESaIcEEC1ERKS4_@plt>
  40d949:	e9 00 00 00 00       	jmpq   40d94e <_ZN5Eigen8IOFormatC2EiiRKNSt7__cxx1112basic_stringIcSt11char_traitsIcESaIcEEES8_S8_S8_S8_S8_+0x8e>
  40d94e:	48 8b 45 b8          	mov    -0x48(%rbp),%rax
  40d952:	48 83 c0 60          	add    $0x60,%rax
  40d956:	48 8b 75 10          	mov    0x10(%rbp),%rsi
  40d95a:	48 89 c7             	mov    %rax,%rdi
  40d95d:	48 89 45 80          	mov    %rax,-0x80(%rbp)
  40d961:	e8 5a 57 ff ff       	callq  4030c0 <_ZNSt7__cxx1112basic_stringIcSt11char_traitsIcESaIcEEC1ERKS4_@plt>
  40d966:	e9 00 00 00 00       	jmpq   40d96b <_ZN5Eigen8IOFormatC2EiiRKNSt7__cxx1112basic_stringIcSt11char_traitsIcESaIcEEES8_S8_S8_S8_S8_+0xab>
  40d96b:	48 8b 45 b8          	mov    -0x48(%rbp),%rax
  40d96f:	48 83 e8 80          	sub    $0xffffffffffffff80,%rax
  40d973:	48 8b 75 e0          	mov    -0x20(%rbp),%rsi
  40d977:	48 89 c7             	mov    %rax,%rdi
  40d97a:	48 89 85 78 ff ff ff 	mov    %rax,-0x88(%rbp)
  40d981:	e8 3a 57 ff ff       	callq  4030c0 <_ZNSt7__cxx1112basic_stringIcSt11char_traitsIcESaIcEEC1ERKS4_@plt>
  40d986:	e9 00 00 00 00       	jmpq   40d98b <_ZN5Eigen8IOFormatC2EiiRKNSt7__cxx1112basic_stringIcSt11char_traitsIcESaIcEEES8_S8_S8_S8_S8_+0xcb>
  40d98b:	48 8b 45 b8          	mov    -0x48(%rbp),%rax
  40d98f:	48 05 a0 00 00 00    	add    $0xa0,%rax
  40d995:	48 8d 4d c8          	lea    -0x38(%rbp),%rcx
  40d999:	48 89 cf             	mov    %rcx,%rdi
  40d99c:	48 89 85 70 ff ff ff 	mov    %rax,-0x90(%rbp)
  40d9a3:	48 89 8d 68 ff ff ff 	mov    %rcx,-0x98(%rbp)
  40d9aa:	e8 41 5a ff ff       	callq  4033f0 <_ZNSaIcEC1Ev@plt>
  40d9af:	be fb e2 40 00       	mov    $0x40e2fb,%esi
  40d9b4:	48 8b bd 70 ff ff ff 	mov    -0x90(%rbp),%rdi
  40d9bb:	48 8b 95 68 ff ff ff 	mov    -0x98(%rbp),%rdx
  40d9c2:	e8 69 59 ff ff       	callq  403330 <_ZNSt7__cxx1112basic_stringIcSt11char_traitsIcESaIcEEC1EPKcRKS3_@plt>
  40d9c7:	e9 00 00 00 00       	jmpq   40d9cc <_ZN5Eigen8IOFormatC2EiiRKNSt7__cxx1112basic_stringIcSt11char_traitsIcESaIcEEES8_S8_S8_S8_S8_+0x10c>
  40d9cc:	48 8d 7d c8          	lea    -0x38(%rbp),%rdi
  40d9d0:	e8 bb 58 ff ff       	callq  403290 <_ZNSaIcED1Ev@plt>
  40d9d5:	48 8b 45 b8          	mov    -0x48(%rbp),%rax
  40d9d9:	48 05 c0 00 00 00    	add    $0xc0,%rax
  40d9df:	48 8b 75 e8          	mov    -0x18(%rbp),%rsi
  40d9e3:	48 89 c7             	mov    %rax,%rdi
  40d9e6:	48 89 85 60 ff ff ff 	mov    %rax,-0xa0(%rbp)
  40d9ed:	e8 ce 56 ff ff       	callq  4030c0 <_ZNSt7__cxx1112basic_stringIcSt11char_traitsIcESaIcEEC1ERKS4_@plt>
  40d9f2:	e9 00 00 00 00       	jmpq   40d9f7 <_ZN5Eigen8IOFormatC2EiiRKNSt7__cxx1112basic_stringIcSt11char_traitsIcESaIcEEES8_S8_S8_S8_S8_+0x137>
  40d9f7:	8b 45 f4             	mov    -0xc(%rbp),%eax
  40d9fa:	48 8b 4d b8          	mov    -0x48(%rbp),%rcx
  40d9fe:	89 81 e0 00 00 00    	mov    %eax,0xe0(%rcx)
  40da04:	8b 45 f0             	mov    -0x10(%rbp),%eax
  40da07:	89 81 e4 00 00 00    	mov    %eax,0xe4(%rcx)
  40da0d:	8b 81 e4 00 00 00    	mov    0xe4(%rcx),%eax
  40da13:	83 e0 01             	and    $0x1,%eax
  40da16:	83 f8 00             	cmp    $0x0,%eax
  40da19:	0f 84 56 00 00 00    	je     40da75 <_ZN5Eigen8IOFormatC2EiiRKNSt7__cxx1112basic_stringIcSt11char_traitsIcESaIcEEES8_S8_S8_S8_S8_+0x1b5>
  40da1f:	e9 06 01 00 00       	jmpq   40db2a <_ZN5Eigen8IOFormatC2EiiRKNSt7__cxx1112basic_stringIcSt11char_traitsIcESaIcEEES8_S8_S8_S8_S8_+0x26a>
  40da24:	48 89 45 d0          	mov    %rax,-0x30(%rbp)
  40da28:	89 55 cc             	mov    %edx,-0x34(%rbp)
  40da2b:	e9 36 01 00 00       	jmpq   40db66 <_ZN5Eigen8IOFormatC2EiiRKNSt7__cxx1112basic_stringIcSt11char_traitsIcESaIcEEES8_S8_S8_S8_S8_+0x2a6>
  40da30:	48 89 45 d0          	mov    %rax,-0x30(%rbp)
  40da34:	89 55 cc             	mov    %edx,-0x34(%rbp)
  40da37:	e9 21 01 00 00       	jmpq   40db5d <_ZN5Eigen8IOFormatC2EiiRKNSt7__cxx1112basic_stringIcSt11char_traitsIcESaIcEEES8_S8_S8_S8_S8_+0x29d>
  40da3c:	48 89 45 d0          	mov    %rax,-0x30(%rbp)
  40da40:	89 55 cc             	mov    %edx,-0x34(%rbp)
  40da43:	e9 0c 01 00 00       	jmpq   40db54 <_ZN5Eigen8IOFormatC2EiiRKNSt7__cxx1112basic_stringIcSt11char_traitsIcESaIcEEES8_S8_S8_S8_S8_+0x294>
  40da48:	48 89 45 d0          	mov    %rax,-0x30(%rbp)
  40da4c:	89 55 cc             	mov    %edx,-0x34(%rbp)
  40da4f:	e9 f7 00 00 00       	jmpq   40db4b <_ZN5Eigen8IOFormatC2EiiRKNSt7__cxx1112basic_stringIcSt11char_traitsIcESaIcEEES8_S8_S8_S8_S8_+0x28b>
  40da54:	48 89 45 d0          	mov    %rax,-0x30(%rbp)
  40da58:	89 55 cc             	mov    %edx,-0x34(%rbp)
  40da5b:	48 8d 7d c8          	lea    -0x38(%rbp),%rdi
  40da5f:	e8 2c 58 ff ff       	callq  403290 <_ZNSaIcED1Ev@plt>
  40da64:	e9 d6 00 00 00       	jmpq   40db3f <_ZN5Eigen8IOFormatC2EiiRKNSt7__cxx1112basic_stringIcSt11char_traitsIcESaIcEEES8_S8_S8_S8_S8_+0x27f>
  40da69:	48 89 45 d0          	mov    %rax,-0x30(%rbp)
  40da6d:	89 55 cc             	mov    %edx,-0x34(%rbp)
  40da70:	e9 be 00 00 00       	jmpq   40db33 <_ZN5Eigen8IOFormatC2EiiRKNSt7__cxx1112basic_stringIcSt11char_traitsIcESaIcEEES8_S8_S8_S8_S8_+0x273>
  40da75:	48 8b 45 b8          	mov    -0x48(%rbp),%rax
  40da79:	48 05 20 00 00 00    	add    $0x20,%rax
  40da7f:	48 89 c7             	mov    %rax,%rdi
  40da82:	e8 e9 58 ff ff       	callq  403370 <_ZNKSt7__cxx1112basic_stringIcSt11char_traitsIcESaIcEE6lengthEv@plt>
  40da87:	83 e8 01             	sub    $0x1,%eax
  40da8a:	89 45 c4             	mov    %eax,-0x3c(%rbp)
  40da8d:	31 c0                	xor    %eax,%eax
  40da8f:	83 7d c4 00          	cmpl   $0x0,-0x3c(%rbp)
  40da93:	88 85 5f ff ff ff    	mov    %al,-0xa1(%rbp)
  40da99:	0f 8c 36 00 00 00    	jl     40dad5 <_ZN5Eigen8IOFormatC2EiiRKNSt7__cxx1112basic_stringIcSt11char_traitsIcESaIcEEES8_S8_S8_S8_S8_+0x215>
  40da9f:	48 8b 45 b8          	mov    -0x48(%rbp),%rax
  40daa3:	48 83 c0 20          	add    $0x20,%rax
  40daa7:	48 63 75 c4          	movslq -0x3c(%rbp),%rsi
  40daab:	48 89 c7             	mov    %rax,%rdi
  40daae:	e8 ad 59 ff ff       	callq  403460 <_ZNSt7__cxx1112basic_stringIcSt11char_traitsIcESaIcEEixEm@plt>
  40dab3:	48 89 85 50 ff ff ff 	mov    %rax,-0xb0(%rbp)
  40daba:	e9 00 00 00 00       	jmpq   40dabf <_ZN5Eigen8IOFormatC2EiiRKNSt7__cxx1112basic_stringIcSt11char_traitsIcESaIcEEES8_S8_S8_S8_S8_+0x1ff>
  40dabf:	48 8b 85 50 ff ff ff 	mov    -0xb0(%rbp),%rax
  40dac6:	0f be 08             	movsbl (%rax),%ecx
  40dac9:	83 f9 0a             	cmp    $0xa,%ecx
  40dacc:	0f 95 c2             	setne  %dl
  40dacf:	88 95 5f ff ff ff    	mov    %dl,-0xa1(%rbp)
  40dad5:	8a 85 5f ff ff ff    	mov    -0xa1(%rbp),%al
  40dadb:	a8 01                	test   $0x1,%al
  40dadd:	0f 85 05 00 00 00    	jne    40dae8 <_ZN5Eigen8IOFormatC2EiiRKNSt7__cxx1112basic_stringIcSt11char_traitsIcESaIcEEES8_S8_S8_S8_S8_+0x228>
  40dae3:	e9 42 00 00 00       	jmpq   40db2a <_ZN5Eigen8IOFormatC2EiiRKNSt7__cxx1112basic_stringIcSt11char_traitsIcESaIcEEES8_S8_S8_S8_S8_+0x26a>
  40dae8:	48 8b 45 b8          	mov    -0x48(%rbp),%rax
  40daec:	48 05 a0 00 00 00    	add    $0xa0,%rax
  40daf2:	be 20 00 00 00       	mov    $0x20,%esi
  40daf7:	48 89 c7             	mov    %rax,%rdi
  40dafa:	e8 51 56 ff ff       	callq  403150 <_ZNSt7__cxx1112basic_stringIcSt11char_traitsIcESaIcEEpLEc@plt>
  40daff:	e9 00 00 00 00       	jmpq   40db04 <_ZN5Eigen8IOFormatC2EiiRKNSt7__cxx1112basic_stringIcSt11char_traitsIcESaIcEEES8_S8_S8_S8_S8_+0x244>
  40db04:	8b 45 c4             	mov    -0x3c(%rbp),%eax
  40db07:	83 c0 ff             	add    $0xffffffff,%eax
  40db0a:	89 45 c4             	mov    %eax,-0x3c(%rbp)
  40db0d:	e9 7b ff ff ff       	jmpq   40da8d <_ZN5Eigen8IOFormatC2EiiRKNSt7__cxx1112basic_stringIcSt11char_traitsIcESaIcEEES8_S8_S8_S8_S8_+0x1cd>
  40db12:	48 89 45 d0          	mov    %rax,-0x30(%rbp)
  40db16:	89 55 cc             	mov    %edx,-0x34(%rbp)
  40db19:	48 8b bd 60 ff ff ff 	mov    -0xa0(%rbp),%rdi
  40db20:	e8 1b 56 ff ff       	callq  403140 <_ZNSt7__cxx1112basic_stringIcSt11char_traitsIcESaIcEED1Ev@plt>
  40db25:	e9 09 00 00 00       	jmpq   40db33 <_ZN5Eigen8IOFormatC2EiiRKNSt7__cxx1112basic_stringIcSt11char_traitsIcESaIcEEES8_S8_S8_S8_S8_+0x273>
  40db2a:	48 81 c4 b0 00 00 00 	add    $0xb0,%rsp
  40db31:	5d                   	pop    %rbp
  40db32:	c3                   	retq   
  40db33:	48 8b bd 70 ff ff ff 	mov    -0x90(%rbp),%rdi
  40db3a:	e8 01 56 ff ff       	callq  403140 <_ZNSt7__cxx1112basic_stringIcSt11char_traitsIcESaIcEED1Ev@plt>
  40db3f:	48 8b bd 78 ff ff ff 	mov    -0x88(%rbp),%rdi
  40db46:	e8 f5 55 ff ff       	callq  403140 <_ZNSt7__cxx1112basic_stringIcSt11char_traitsIcESaIcEED1Ev@plt>
  40db4b:	48 8b 7d 80          	mov    -0x80(%rbp),%rdi
  40db4f:	e8 ec 55 ff ff       	callq  403140 <_ZNSt7__cxx1112basic_stringIcSt11char_traitsIcESaIcEED1Ev@plt>
  40db54:	48 8b 7d 88          	mov    -0x78(%rbp),%rdi
  40db58:	e8 e3 55 ff ff       	callq  403140 <_ZNSt7__cxx1112basic_stringIcSt11char_traitsIcESaIcEED1Ev@plt>
  40db5d:	48 8b 7d 90          	mov    -0x70(%rbp),%rdi
  40db61:	e8 da 55 ff ff       	callq  403140 <_ZNSt7__cxx1112basic_stringIcSt11char_traitsIcESaIcEED1Ev@plt>
  40db66:	48 8b 7d 98          	mov    -0x68(%rbp),%rdi
  40db6a:	e8 d1 55 ff ff       	callq  403140 <_ZNSt7__cxx1112basic_stringIcSt11char_traitsIcESaIcEED1Ev@plt>
  40db6f:	48 8b 7d d0          	mov    -0x30(%rbp),%rdi
  40db73:	e8 68 58 ff ff       	callq  4033e0 <_Unwind_Resume@plt>
  40db78:	0f 1f 84 00 00 00 00 	nopl   0x0(%rax,%rax,1)
  40db7f:	00 

000000000040db80 <_ZN5Eigen8IOFormatD2Ev>:
  40db80:	55                   	push   %rbp
  40db81:	48 89 e5             	mov    %rsp,%rbp
  40db84:	48 83 ec 10          	sub    $0x10,%rsp
  40db88:	48 89 7d f8          	mov    %rdi,-0x8(%rbp)
  40db8c:	48 8b 45 f8          	mov    -0x8(%rbp),%rax
  40db90:	48 89 c1             	mov    %rax,%rcx
  40db93:	48 81 c1 c0 00 00 00 	add    $0xc0,%rcx
  40db9a:	48 89 cf             	mov    %rcx,%rdi
  40db9d:	48 89 45 f0          	mov    %rax,-0x10(%rbp)
  40dba1:	e8 9a 55 ff ff       	callq  403140 <_ZNSt7__cxx1112basic_stringIcSt11char_traitsIcESaIcEED1Ev@plt>
  40dba6:	48 8b 45 f0          	mov    -0x10(%rbp),%rax
  40dbaa:	48 05 a0 00 00 00    	add    $0xa0,%rax
  40dbb0:	48 89 c7             	mov    %rax,%rdi
  40dbb3:	e8 88 55 ff ff       	callq  403140 <_ZNSt7__cxx1112basic_stringIcSt11char_traitsIcESaIcEED1Ev@plt>
  40dbb8:	48 8b 45 f0          	mov    -0x10(%rbp),%rax
  40dbbc:	48 05 80 00 00 00    	add    $0x80,%rax
  40dbc2:	48 89 c7             	mov    %rax,%rdi
  40dbc5:	e8 76 55 ff ff       	callq  403140 <_ZNSt7__cxx1112basic_stringIcSt11char_traitsIcESaIcEED1Ev@plt>
  40dbca:	48 8b 45 f0          	mov    -0x10(%rbp),%rax
  40dbce:	48 05 60 00 00 00    	add    $0x60,%rax
  40dbd4:	48 89 c7             	mov    %rax,%rdi
  40dbd7:	e8 64 55 ff ff       	callq  403140 <_ZNSt7__cxx1112basic_stringIcSt11char_traitsIcESaIcEED1Ev@plt>
  40dbdc:	48 8b 45 f0          	mov    -0x10(%rbp),%rax
  40dbe0:	48 05 40 00 00 00    	add    $0x40,%rax
  40dbe6:	48 89 c7             	mov    %rax,%rdi
  40dbe9:	e8 52 55 ff ff       	callq  403140 <_ZNSt7__cxx1112basic_stringIcSt11char_traitsIcESaIcEED1Ev@plt>
  40dbee:	48 8b 45 f0          	mov    -0x10(%rbp),%rax
  40dbf2:	48 05 20 00 00 00    	add    $0x20,%rax
  40dbf8:	48 89 c7             	mov    %rax,%rdi
  40dbfb:	e8 40 55 ff ff       	callq  403140 <_ZNSt7__cxx1112basic_stringIcSt11char_traitsIcESaIcEED1Ev@plt>
  40dc00:	48 8b 7d f0          	mov    -0x10(%rbp),%rdi
  40dc04:	e8 37 55 ff ff       	callq  403140 <_ZNSt7__cxx1112basic_stringIcSt11char_traitsIcESaIcEED1Ev@plt>
  40dc09:	48 83 c4 10          	add    $0x10,%rsp
  40dc0d:	5d                   	pop    %rbp
  40dc0e:	c3                   	retq   
  40dc0f:	90                   	nop

000000000040dc10 <_ZNK5Eigen9EigenBaseINS_6MatrixIdLin1ELin1ELi0ELin1ELin1EEEE4sizeEv>:
  40dc10:	55                   	push   %rbp
  40dc11:	48 89 e5             	mov    %rsp,%rbp
  40dc14:	48 83 ec 20          	sub    $0x20,%rsp
  40dc18:	48 89 7d f8          	mov    %rdi,-0x8(%rbp)
  40dc1c:	48 8b 45 f8          	mov    -0x8(%rbp),%rax
  40dc20:	48 89 c7             	mov    %rax,%rdi
  40dc23:	48 89 45 f0          	mov    %rax,-0x10(%rbp)
  40dc27:	e8 b4 df ff ff       	callq  40bbe0 <_ZNK5Eigen9EigenBaseINS_6MatrixIdLin1ELin1ELi0ELin1ELin1EEEE4rowsEv>
  40dc2c:	48 8b 7d f0          	mov    -0x10(%rbp),%rdi
  40dc30:	48 89 45 e8          	mov    %rax,-0x18(%rbp)
  40dc34:	e8 87 e8 ff ff       	callq  40c4c0 <_ZNK5Eigen9EigenBaseINS_6MatrixIdLin1ELin1ELi0ELin1ELin1EEEE4colsEv>
  40dc39:	48 8b 4d e8          	mov    -0x18(%rbp),%rcx
  40dc3d:	48 0f af c8          	imul   %rax,%rcx
  40dc41:	48 89 c8             	mov    %rcx,%rax
  40dc44:	48 83 c4 20          	add    $0x20,%rsp
  40dc48:	5d                   	pop    %rbp
  40dc49:	c3                   	retq   
  40dc4a:	66 0f 1f 44 00 00    	nopw   0x0(%rax,%rax,1)

000000000040dc50 <_ZN5Eigen8internal25significant_decimals_implIdE3runEv>:
  40dc50:	55                   	push   %rbp
  40dc51:	48 89 e5             	mov    %rsp,%rbp
  40dc54:	e8 17 01 00 00       	callq  40dd70 <_ZN5Eigen16GenericNumTraitsIdE8digits10Ev>
  40dc59:	5d                   	pop    %rbp
  40dc5a:	c3                   	retq   
  40dc5b:	0f 1f 44 00 00       	nopl   0x0(%rax,%rax,1)

000000000040dc60 <_ZNSt8ios_base9precisionEl>:
  40dc60:	55                   	push   %rbp
  40dc61:	48 89 e5             	mov    %rsp,%rbp
  40dc64:	48 89 7d f8          	mov    %rdi,-0x8(%rbp)
  40dc68:	48 89 75 f0          	mov    %rsi,-0x10(%rbp)
  40dc6c:	48 8b 45 f8          	mov    -0x8(%rbp),%rax
  40dc70:	48 8b 48 08          	mov    0x8(%rax),%rcx
  40dc74:	48 89 4d e8          	mov    %rcx,-0x18(%rbp)
  40dc78:	48 8b 4d f0          	mov    -0x10(%rbp),%rcx
  40dc7c:	48 89 48 08          	mov    %rcx,0x8(%rax)
  40dc80:	48 8b 45 e8          	mov    -0x18(%rbp),%rax
  40dc84:	5d                   	pop    %rbp
  40dc85:	c3                   	retq   
  40dc86:	66 2e 0f 1f 84 00 00 	nopw   %cs:0x0(%rax,%rax,1)
  40dc8d:	00 00 00 

000000000040dc90 <_ZNK5Eigen15PlainObjectBaseINS_6MatrixIdLin1ELin1ELi0ELin1ELin1EEEE5coeffEll>:
  40dc90:	55                   	push   %rbp
  40dc91:	48 89 e5             	mov    %rsp,%rbp
  40dc94:	48 83 ec 40          	sub    $0x40,%rsp
  40dc98:	48 89 7d f8          	mov    %rdi,-0x8(%rbp)
  40dc9c:	48 89 75 f0          	mov    %rsi,-0x10(%rbp)
  40dca0:	48 89 55 e8          	mov    %rdx,-0x18(%rbp)
  40dca4:	48 8b 45 f8          	mov    -0x8(%rbp),%rax
  40dca8:	48 89 c7             	mov    %rax,%rdi
  40dcab:	48 89 45 e0          	mov    %rax,-0x20(%rbp)
  40dcaf:	e8 bc de ff ff       	callq  40bb70 <_ZNK5Eigen12DenseStorageIdLin1ELin1ELin1ELi0EE4dataEv>
  40dcb4:	48 8b 4d f0          	mov    -0x10(%rbp),%rcx
  40dcb8:	48 8b 55 e8          	mov    -0x18(%rbp),%rdx
  40dcbc:	48 8b 7d e0          	mov    -0x20(%rbp),%rdi
  40dcc0:	48 89 45 d8          	mov    %rax,-0x28(%rbp)
  40dcc4:	48 89 4d d0          	mov    %rcx,-0x30(%rbp)
  40dcc8:	48 89 55 c8          	mov    %rdx,-0x38(%rbp)
  40dccc:	e8 5f df ff ff       	callq  40bc30 <_ZNK5Eigen12DenseStorageIdLin1ELin1ELin1ELi0EE4rowsEv>
  40dcd1:	48 8b 4d c8          	mov    -0x38(%rbp),%rcx
  40dcd5:	48 0f af c8          	imul   %rax,%rcx
  40dcd9:	48 8b 45 d0          	mov    -0x30(%rbp),%rax
  40dcdd:	48 01 c8             	add    %rcx,%rax
  40dce0:	48 c1 e0 03          	shl    $0x3,%rax
  40dce4:	48 8b 4d d8          	mov    -0x28(%rbp),%rcx
  40dce8:	48 01 c1             	add    %rax,%rcx
  40dceb:	48 89 c8             	mov    %rcx,%rax
  40dcee:	48 83 c4 40          	add    $0x40,%rsp
  40dcf2:	5d                   	pop    %rbp
  40dcf3:	c3                   	retq   
  40dcf4:	66 2e 0f 1f 84 00 00 	nopw   %cs:0x0(%rax,%rax,1)
  40dcfb:	00 00 00 
  40dcfe:	66 90                	xchg   %ax,%ax

000000000040dd00 <_ZSt3maxIlERKT_S2_S2_>:
  40dd00:	55                   	push   %rbp
  40dd01:	48 89 e5             	mov    %rsp,%rbp
  40dd04:	48 89 7d f0          	mov    %rdi,-0x10(%rbp)
  40dd08:	48 89 75 e8          	mov    %rsi,-0x18(%rbp)
  40dd0c:	48 8b 45 f0          	mov    -0x10(%rbp),%rax
  40dd10:	48 8b 00             	mov    (%rax),%rax
  40dd13:	48 8b 4d e8          	mov    -0x18(%rbp),%rcx
  40dd17:	48 3b 01             	cmp    (%rcx),%rax
  40dd1a:	0f 8d 0d 00 00 00    	jge    40dd2d <_ZSt3maxIlERKT_S2_S2_+0x2d>
  40dd20:	48 8b 45 e8          	mov    -0x18(%rbp),%rax
  40dd24:	48 89 45 f8          	mov    %rax,-0x8(%rbp)
  40dd28:	e9 08 00 00 00       	jmpq   40dd35 <_ZSt3maxIlERKT_S2_S2_+0x35>
  40dd2d:	48 8b 45 f0          	mov    -0x10(%rbp),%rax
  40dd31:	48 89 45 f8          	mov    %rax,-0x8(%rbp)
  40dd35:	48 8b 45 f8          	mov    -0x8(%rbp),%rax
  40dd39:	5d                   	pop    %rbp
  40dd3a:	c3                   	retq   
  40dd3b:	0f 1f 44 00 00       	nopl   0x0(%rax,%rax,1)

000000000040dd40 <_ZNSt8ios_base5widthEl>:
  40dd40:	55                   	push   %rbp
  40dd41:	48 89 e5             	mov    %rsp,%rbp
  40dd44:	48 89 7d f8          	mov    %rdi,-0x8(%rbp)
  40dd48:	48 89 75 f0          	mov    %rsi,-0x10(%rbp)
  40dd4c:	48 8b 45 f8          	mov    -0x8(%rbp),%rax
  40dd50:	48 8b 48 10          	mov    0x10(%rax),%rcx
  40dd54:	48 89 4d e8          	mov    %rcx,-0x18(%rbp)
  40dd58:	48 8b 4d f0          	mov    -0x10(%rbp),%rcx
  40dd5c:	48 89 48 10          	mov    %rcx,0x10(%rax)
  40dd60:	48 8b 45 e8          	mov    -0x18(%rbp),%rax
  40dd64:	5d                   	pop    %rbp
  40dd65:	c3                   	retq   
  40dd66:	66 2e 0f 1f 84 00 00 	nopw   %cs:0x0(%rax,%rax,1)
  40dd6d:	00 00 00 

000000000040dd70 <_ZN5Eigen16GenericNumTraitsIdE8digits10Ev>:
  40dd70:	55                   	push   %rbp
  40dd71:	48 89 e5             	mov    %rsp,%rbp
  40dd74:	e8 07 00 00 00       	callq  40dd80 <_ZN5Eigen8internal21default_digits10_implIdLb1ELb0EE3runEv>
  40dd79:	5d                   	pop    %rbp
  40dd7a:	c3                   	retq   
  40dd7b:	0f 1f 44 00 00       	nopl   0x0(%rax,%rax,1)

000000000040dd80 <_ZN5Eigen8internal21default_digits10_implIdLb1ELb0EE3runEv>:
  40dd80:	55                   	push   %rbp
  40dd81:	48 89 e5             	mov    %rsp,%rbp
  40dd84:	b8 0f 00 00 00       	mov    $0xf,%eax
  40dd89:	5d                   	pop    %rbp
  40dd8a:	c3                   	retq   
  40dd8b:	0f 1f 44 00 00       	nopl   0x0(%rax,%rax,1)

000000000040dd90 <__libc_csu_init>:
  40dd90:	f3 0f 1e fa          	endbr64 
  40dd94:	41 57                	push   %r15
  40dd96:	4c 8d 3d 63 7e 00 00 	lea    0x7e63(%rip),%r15        # 415c00 <__frame_dummy_init_array_entry>
  40dd9d:	41 56                	push   %r14
  40dd9f:	49 89 d6             	mov    %rdx,%r14
  40dda2:	41 55                	push   %r13
  40dda4:	49 89 f5             	mov    %rsi,%r13
  40dda7:	41 54                	push   %r12
  40dda9:	41 89 fc             	mov    %edi,%r12d
  40ddac:	55                   	push   %rbp
  40ddad:	48 8d 2d 64 7e 00 00 	lea    0x7e64(%rip),%rbp        # 415c18 <__do_global_dtors_aux_fini_array_entry>
  40ddb4:	53                   	push   %rbx
  40ddb5:	4c 29 fd             	sub    %r15,%rbp
  40ddb8:	48 83 ec 08          	sub    $0x8,%rsp
  40ddbc:	e8 3f 52 ff ff       	callq  403000 <_init>
  40ddc1:	48 c1 fd 03          	sar    $0x3,%rbp
  40ddc5:	74 1f                	je     40dde6 <__libc_csu_init+0x56>
  40ddc7:	31 db                	xor    %ebx,%ebx
  40ddc9:	0f 1f 80 00 00 00 00 	nopl   0x0(%rax)
  40ddd0:	4c 89 f2             	mov    %r14,%rdx
  40ddd3:	4c 89 ee             	mov    %r13,%rsi
  40ddd6:	44 89 e7             	mov    %r12d,%edi
  40ddd9:	41 ff 14 df          	callq  *(%r15,%rbx,8)
  40dddd:	48 83 c3 01          	add    $0x1,%rbx
  40dde1:	48 39 dd             	cmp    %rbx,%rbp
  40dde4:	75 ea                	jne    40ddd0 <__libc_csu_init+0x40>
  40dde6:	48 83 c4 08          	add    $0x8,%rsp
  40ddea:	5b                   	pop    %rbx
  40ddeb:	5d                   	pop    %rbp
  40ddec:	41 5c                	pop    %r12
  40ddee:	41 5d                	pop    %r13
  40ddf0:	41 5e                	pop    %r14
  40ddf2:	41 5f                	pop    %r15
  40ddf4:	c3                   	retq   
  40ddf5:	66 66 2e 0f 1f 84 00 	data16 nopw %cs:0x0(%rax,%rax,1)
  40ddfc:	00 00 00 00 

000000000040de00 <__libc_csu_fini>:
  40de00:	f3 0f 1e fa          	endbr64 
  40de04:	c3                   	retq   

Disassembly of section .fini:

000000000040de08 <_fini>:
  40de08:	f3 0f 1e fa          	endbr64 
  40de0c:	48 83 ec 08          	sub    $0x8,%rsp
  40de10:	48 83 c4 08          	add    $0x8,%rsp
  40de14:	c3                   	retq   
