
main:     file format elf64-x86-64


Disassembly of section .init:

0000000000403000 <_init>:
  403000:	f3 0f 1e fa          	endbr64 
  403004:	48 83 ec 08          	sub    $0x8,%rsp
  403008:	48 8b 05 d1 2f 01 00 	mov    0x12fd1(%rip),%rax        # 415fe0 <__gmon_start__>
  40300f:	48 85 c0             	test   %rax,%rax
  403012:	74 02                	je     403016 <_init+0x16>
  403014:	ff d0                	callq  *%rax
  403016:	48 83 c4 08          	add    $0x8,%rsp
  40301a:	c3                   	retq   

Disassembly of section .plt:

0000000000403020 <.plt>:
  403020:	ff 35 e2 2f 01 00    	pushq  0x12fe2(%rip)        # 416008 <_GLOBAL_OFFSET_TABLE_+0x8>
  403026:	ff 25 e4 2f 01 00    	jmpq   *0x12fe4(%rip)        # 416010 <_GLOBAL_OFFSET_TABLE_+0x10>
  40302c:	0f 1f 40 00          	nopl   0x0(%rax)

0000000000403030 <_Znam@plt>:
  403030:	ff 25 e2 2f 01 00    	jmpq   *0x12fe2(%rip)        # 416018 <_Znam@GLIBCXX_3.4>
  403036:	68 00 00 00 00       	pushq  $0x0
  40303b:	e9 e0 ff ff ff       	jmpq   403020 <.plt>

0000000000403040 <_ZNSaIcED2Ev@plt>:
  403040:	ff 25 da 2f 01 00    	jmpq   *0x12fda(%rip)        # 416020 <_ZNSaIcED2Ev@GLIBCXX_3.4>
  403046:	68 01 00 00 00       	pushq  $0x1
  40304b:	e9 d0 ff ff ff       	jmpq   403020 <.plt>

0000000000403050 <_ZSt7getlineIcSt11char_traitsIcESaIcEERSt13basic_istreamIT_T0_ES7_RNSt7__cxx1112basic_stringIS4_S5_T1_EE@plt>:
  403050:	ff 25 d2 2f 01 00    	jmpq   *0x12fd2(%rip)        # 416028 <_ZSt7getlineIcSt11char_traitsIcESaIcEERSt13basic_istreamIT_T0_ES7_RNSt7__cxx1112basic_stringIS4_S5_T1_EE@GLIBCXX_3.4.21>
  403056:	68 02 00 00 00       	pushq  $0x2
  40305b:	e9 c0 ff ff ff       	jmpq   403020 <.plt>

0000000000403060 <_ZNSt14basic_ifstreamIcSt11char_traitsIcEE5closeEv@plt>:
  403060:	ff 25 ca 2f 01 00    	jmpq   *0x12fca(%rip)        # 416030 <_ZNSt14basic_ifstreamIcSt11char_traitsIcEE5closeEv@GLIBCXX_3.4>
  403066:	68 03 00 00 00       	pushq  $0x3
  40306b:	e9 b0 ff ff ff       	jmpq   403020 <.plt>

0000000000403070 <_ZNSt14basic_ifstreamIcSt11char_traitsIcEED1Ev@plt>:
  403070:	ff 25 c2 2f 01 00    	jmpq   *0x12fc2(%rip)        # 416038 <_ZNSt14basic_ifstreamIcSt11char_traitsIcEED1Ev@GLIBCXX_3.4>
  403076:	68 04 00 00 00       	pushq  $0x4
  40307b:	e9 a0 ff ff ff       	jmpq   403020 <.plt>

0000000000403080 <_ZSt9terminatev@plt>:
  403080:	ff 25 ba 2f 01 00    	jmpq   *0x12fba(%rip)        # 416040 <_ZSt9terminatev@GLIBCXX_3.4>
  403086:	68 05 00 00 00       	pushq  $0x5
  40308b:	e9 90 ff ff ff       	jmpq   403020 <.plt>

0000000000403090 <_ZSt17__throw_bad_allocv@plt>:
  403090:	ff 25 b2 2f 01 00    	jmpq   *0x12fb2(%rip)        # 416048 <_ZSt17__throw_bad_allocv@GLIBCXX_3.4>
  403096:	68 06 00 00 00       	pushq  $0x6
  40309b:	e9 80 ff ff ff       	jmpq   403020 <.plt>

00000000004030a0 <__cxa_begin_catch@plt>:
  4030a0:	ff 25 aa 2f 01 00    	jmpq   *0x12faa(%rip)        # 416050 <__cxa_begin_catch@CXXABI_1.3>
  4030a6:	68 07 00 00 00       	pushq  $0x7
  4030ab:	e9 70 ff ff ff       	jmpq   403020 <.plt>

00000000004030b0 <_ZNKSt7__cxx1112basic_stringIcSt11char_traitsIcESaIcEE5c_strEv@plt>:
  4030b0:	ff 25 a2 2f 01 00    	jmpq   *0x12fa2(%rip)        # 416058 <_ZNKSt7__cxx1112basic_stringIcSt11char_traitsIcESaIcEE5c_strEv@GLIBCXX_3.4.21>
  4030b6:	68 08 00 00 00       	pushq  $0x8
  4030bb:	e9 60 ff ff ff       	jmpq   403020 <.plt>

00000000004030c0 <_ZNSt7__cxx1112basic_stringIcSt11char_traitsIcESaIcEEC1ERKS4_@plt>:
  4030c0:	ff 25 9a 2f 01 00    	jmpq   *0x12f9a(%rip)        # 416060 <_ZNSt7__cxx1112basic_stringIcSt11char_traitsIcESaIcEEC1ERKS4_@GLIBCXX_3.4.21>
  4030c6:	68 09 00 00 00       	pushq  $0x9
  4030cb:	e9 50 ff ff ff       	jmpq   403020 <.plt>

00000000004030d0 <memcmp@plt>:
  4030d0:	ff 25 92 2f 01 00    	jmpq   *0x12f92(%rip)        # 416068 <memcmp@GLIBC_2.2.5>
  4030d6:	68 0a 00 00 00       	pushq  $0xa
  4030db:	e9 40 ff ff ff       	jmpq   403020 <.plt>

00000000004030e0 <_ZNSt9basic_iosIcSt11char_traitsIcEE7copyfmtERKS2_@plt>:
  4030e0:	ff 25 8a 2f 01 00    	jmpq   *0x12f8a(%rip)        # 416070 <_ZNSt9basic_iosIcSt11char_traitsIcEE7copyfmtERKS2_@GLIBCXX_3.4>
  4030e6:	68 0b 00 00 00       	pushq  $0xb
  4030eb:	e9 30 ff ff ff       	jmpq   403020 <.plt>

00000000004030f0 <_ZSt4endlIcSt11char_traitsIcEERSt13basic_ostreamIT_T0_ES6_@plt>:
  4030f0:	ff 25 82 2f 01 00    	jmpq   *0x12f82(%rip)        # 416078 <_ZSt4endlIcSt11char_traitsIcEERSt13basic_ostreamIT_T0_ES6_@GLIBCXX_3.4>
  4030f6:	68 0c 00 00 00       	pushq  $0xc
  4030fb:	e9 20 ff ff ff       	jmpq   403020 <.plt>

0000000000403100 <__cxa_allocate_exception@plt>:
  403100:	ff 25 7a 2f 01 00    	jmpq   *0x12f7a(%rip)        # 416080 <__cxa_allocate_exception@CXXABI_1.3>
  403106:	68 0d 00 00 00       	pushq  $0xd
  40310b:	e9 10 ff ff ff       	jmpq   403020 <.plt>

0000000000403110 <_ZSt20__throw_length_errorPKc@plt>:
  403110:	ff 25 72 2f 01 00    	jmpq   *0x12f72(%rip)        # 416088 <_ZSt20__throw_length_errorPKc@GLIBCXX_3.4>
  403116:	68 0e 00 00 00       	pushq  $0xe
  40311b:	e9 00 ff ff ff       	jmpq   403020 <.plt>

0000000000403120 <_ZNSt7__cxx1112basic_stringIcSt11char_traitsIcESaIcEE3endEv@plt>:
  403120:	ff 25 6a 2f 01 00    	jmpq   *0x12f6a(%rip)        # 416090 <_ZNSt7__cxx1112basic_stringIcSt11char_traitsIcESaIcEE3endEv@GLIBCXX_3.4.21>
  403126:	68 0f 00 00 00       	pushq  $0xf
  40312b:	e9 f0 fe ff ff       	jmpq   403020 <.plt>

0000000000403130 <_ZNSt7__cxx1112basic_stringIcSt11char_traitsIcESaIcEEC1EOS4_@plt>:
  403130:	ff 25 62 2f 01 00    	jmpq   *0x12f62(%rip)        # 416098 <_ZNSt7__cxx1112basic_stringIcSt11char_traitsIcESaIcEEC1EOS4_@GLIBCXX_3.4.21>
  403136:	68 10 00 00 00       	pushq  $0x10
  40313b:	e9 e0 fe ff ff       	jmpq   403020 <.plt>

0000000000403140 <_ZNSt7__cxx1112basic_stringIcSt11char_traitsIcESaIcEED1Ev@plt>:
  403140:	ff 25 5a 2f 01 00    	jmpq   *0x12f5a(%rip)        # 4160a0 <_ZNSt7__cxx1112basic_stringIcSt11char_traitsIcESaIcEED1Ev@GLIBCXX_3.4.21>
  403146:	68 11 00 00 00       	pushq  $0x11
  40314b:	e9 d0 fe ff ff       	jmpq   403020 <.plt>

0000000000403150 <_ZNSt7__cxx1112basic_stringIcSt11char_traitsIcESaIcEEpLEc@plt>:
  403150:	ff 25 52 2f 01 00    	jmpq   *0x12f52(%rip)        # 4160a8 <_ZNSt7__cxx1112basic_stringIcSt11char_traitsIcESaIcEEpLEc@GLIBCXX_3.4.21>
  403156:	68 12 00 00 00       	pushq  $0x12
  40315b:	e9 c0 fe ff ff       	jmpq   403020 <.plt>

0000000000403160 <_ZNSt9bad_allocD1Ev@plt>:
  403160:	ff 25 4a 2f 01 00    	jmpq   *0x12f4a(%rip)        # 4160b0 <_ZNSt9bad_allocD1Ev@GLIBCXX_3.4>
  403166:	68 13 00 00 00       	pushq  $0x13
  40316b:	e9 b0 fe ff ff       	jmpq   403020 <.plt>

0000000000403170 <_ZNSt7__cxx1112basic_stringIcSt11char_traitsIcESaIcEE13_M_set_lengthEm@plt>:
  403170:	ff 25 42 2f 01 00    	jmpq   *0x12f42(%rip)        # 4160b8 <_ZNSt7__cxx1112basic_stringIcSt11char_traitsIcESaIcEE13_M_set_lengthEm@GLIBCXX_3.4.21>
  403176:	68 14 00 00 00       	pushq  $0x14
  40317b:	e9 a0 fe ff ff       	jmpq   403020 <.plt>

0000000000403180 <_ZNSt7__cxx1118basic_stringstreamIcSt11char_traitsIcESaIcEEC1Ev@plt>:
  403180:	ff 25 3a 2f 01 00    	jmpq   *0x12f3a(%rip)        # 4160c0 <_ZNSt7__cxx1118basic_stringstreamIcSt11char_traitsIcESaIcEEC1Ev@GLIBCXX_3.4.26>
  403186:	68 15 00 00 00       	pushq  $0x15
  40318b:	e9 90 fe ff ff       	jmpq   403020 <.plt>

0000000000403190 <_ZSt19__throw_logic_errorPKc@plt>:
  403190:	ff 25 32 2f 01 00    	jmpq   *0x12f32(%rip)        # 4160c8 <_ZSt19__throw_logic_errorPKc@GLIBCXX_3.4>
  403196:	68 16 00 00 00       	pushq  $0x16
  40319b:	e9 80 fe ff ff       	jmpq   403020 <.plt>

00000000004031a0 <__cxa_free_exception@plt>:
  4031a0:	ff 25 2a 2f 01 00    	jmpq   *0x12f2a(%rip)        # 4160d0 <__cxa_free_exception@CXXABI_1.3>
  4031a6:	68 17 00 00 00       	pushq  $0x17
  4031ab:	e9 70 fe ff ff       	jmpq   403020 <.plt>

00000000004031b0 <_ZNSt7__cxx1118basic_stringstreamIcSt11char_traitsIcESaIcEED1Ev@plt>:
  4031b0:	ff 25 22 2f 01 00    	jmpq   *0x12f22(%rip)        # 4160d8 <_ZNSt7__cxx1118basic_stringstreamIcSt11char_traitsIcESaIcEED1Ev@GLIBCXX_3.4.21>
  4031b6:	68 18 00 00 00       	pushq  $0x18
  4031bb:	e9 60 fe ff ff       	jmpq   403020 <.plt>

00000000004031c0 <_ZNSt7__cxx1112basic_stringIcSt11char_traitsIcESaIcEE13_M_local_dataEv@plt>:
  4031c0:	ff 25 1a 2f 01 00    	jmpq   *0x12f1a(%rip)        # 4160e0 <_ZNSt7__cxx1112basic_stringIcSt11char_traitsIcESaIcEE13_M_local_dataEv@GLIBCXX_3.4.21>
  4031c6:	68 19 00 00 00       	pushq  $0x19
  4031cb:	e9 50 fe ff ff       	jmpq   403020 <.plt>

00000000004031d0 <memcpy@plt>:
  4031d0:	ff 25 12 2f 01 00    	jmpq   *0x12f12(%rip)        # 4160e8 <memcpy@GLIBC_2.14>
  4031d6:	68 1a 00 00 00       	pushq  $0x1a
  4031db:	e9 40 fe ff ff       	jmpq   403020 <.plt>

00000000004031e0 <_ZNSt7__cxx1112basic_stringIcSt11char_traitsIcESaIcEE7_M_dataEPc@plt>:
  4031e0:	ff 25 0a 2f 01 00    	jmpq   *0x12f0a(%rip)        # 4160f0 <_ZNSt7__cxx1112basic_stringIcSt11char_traitsIcESaIcEE7_M_dataEPc@GLIBCXX_3.4.21>
  4031e6:	68 1b 00 00 00       	pushq  $0x1b
  4031eb:	e9 30 fe ff ff       	jmpq   403020 <.plt>

00000000004031f0 <_ZNSt7__cxx1112basic_stringIcSt11char_traitsIcESaIcEE5beginEv@plt>:
  4031f0:	ff 25 02 2f 01 00    	jmpq   *0x12f02(%rip)        # 4160f8 <_ZNSt7__cxx1112basic_stringIcSt11char_traitsIcESaIcEE5beginEv@GLIBCXX_3.4.21>
  4031f6:	68 1c 00 00 00       	pushq  $0x1c
  4031fb:	e9 20 fe ff ff       	jmpq   403020 <.plt>

0000000000403200 <__cxa_atexit@plt>:
  403200:	ff 25 fa 2e 01 00    	jmpq   *0x12efa(%rip)        # 416100 <__cxa_atexit@GLIBC_2.2.5>
  403206:	68 1d 00 00 00       	pushq  $0x1d
  40320b:	e9 10 fe ff ff       	jmpq   403020 <.plt>

0000000000403210 <_ZStlsIcSt11char_traitsIcESaIcEERSt13basic_ostreamIT_T0_ES7_RKNSt7__cxx1112basic_stringIS4_S5_T1_EE@plt>:
  403210:	ff 25 f2 2e 01 00    	jmpq   *0x12ef2(%rip)        # 416108 <_ZStlsIcSt11char_traitsIcESaIcEERSt13basic_ostreamIT_T0_ES7_RKNSt7__cxx1112basic_stringIS4_S5_T1_EE@GLIBCXX_3.4.21>
  403216:	68 1e 00 00 00       	pushq  $0x1e
  40321b:	e9 00 fe ff ff       	jmpq   403020 <.plt>

0000000000403220 <_ZdlPv@plt>:
  403220:	ff 25 ea 2e 01 00    	jmpq   *0x12eea(%rip)        # 416110 <_ZdlPv@GLIBCXX_3.4>
  403226:	68 1f 00 00 00       	pushq  $0x1f
  40322b:	e9 f0 fd ff ff       	jmpq   403020 <.plt>

0000000000403230 <_ZNKSt7__cxx1112basic_stringIcSt11char_traitsIcESaIcEE5beginEv@plt>:
  403230:	ff 25 e2 2e 01 00    	jmpq   *0x12ee2(%rip)        # 416118 <_ZNKSt7__cxx1112basic_stringIcSt11char_traitsIcESaIcEE5beginEv@GLIBCXX_3.4.21>
  403236:	68 20 00 00 00       	pushq  $0x20
  40323b:	e9 e0 fd ff ff       	jmpq   403020 <.plt>

0000000000403240 <_ZNKSt7__cxx1118basic_stringstreamIcSt11char_traitsIcESaIcEE3strEv@plt>:
  403240:	ff 25 da 2e 01 00    	jmpq   *0x12eda(%rip)        # 416120 <_ZNKSt7__cxx1118basic_stringstreamIcSt11char_traitsIcESaIcEE3strEv@GLIBCXX_3.4.21>
  403246:	68 21 00 00 00       	pushq  $0x21
  40324b:	e9 d0 fd ff ff       	jmpq   403020 <.plt>

0000000000403250 <_Znwm@plt>:
  403250:	ff 25 d2 2e 01 00    	jmpq   *0x12ed2(%rip)        # 416128 <_Znwm@GLIBCXX_3.4>
  403256:	68 22 00 00 00       	pushq  $0x22
  40325b:	e9 c0 fd ff ff       	jmpq   403020 <.plt>

0000000000403260 <_ZNSt7__cxx1112basic_stringIcSt11char_traitsIcESaIcEE13_S_copy_charsEPcN9__gnu_cxx17__normal_iteratorIS5_S4_EES8_@plt>:
  403260:	ff 25 ca 2e 01 00    	jmpq   *0x12eca(%rip)        # 416130 <_ZNSt7__cxx1112basic_stringIcSt11char_traitsIcESaIcEE13_S_copy_charsEPcN9__gnu_cxx17__normal_iteratorIS5_S4_EES8_@GLIBCXX_3.4.21>
  403266:	68 23 00 00 00       	pushq  $0x23
  40326b:	e9 b0 fd ff ff       	jmpq   403020 <.plt>

0000000000403270 <_ZNSolsEPFRSoS_E@plt>:
  403270:	ff 25 c2 2e 01 00    	jmpq   *0x12ec2(%rip)        # 416138 <_ZNSolsEPFRSoS_E@GLIBCXX_3.4>
  403276:	68 24 00 00 00       	pushq  $0x24
  40327b:	e9 a0 fd ff ff       	jmpq   403020 <.plt>

0000000000403280 <_ZNSt7__cxx1112basic_stringIcSt11char_traitsIcESaIcEE12_Alloc_hiderC1EPcRKS3_@plt>:
  403280:	ff 25 ba 2e 01 00    	jmpq   *0x12eba(%rip)        # 416140 <_ZNSt7__cxx1112basic_stringIcSt11char_traitsIcESaIcEE12_Alloc_hiderC1EPcRKS3_@GLIBCXX_3.4.21>
  403286:	68 25 00 00 00       	pushq  $0x25
  40328b:	e9 90 fd ff ff       	jmpq   403020 <.plt>

0000000000403290 <_ZNSaIcED1Ev@plt>:
  403290:	ff 25 b2 2e 01 00    	jmpq   *0x12eb2(%rip)        # 416148 <_ZNSaIcED1Ev@GLIBCXX_3.4>
  403296:	68 26 00 00 00       	pushq  $0x26
  40329b:	e9 80 fd ff ff       	jmpq   403020 <.plt>

00000000004032a0 <_ZNKSt7__cxx1112basic_stringIcSt11char_traitsIcESaIcEE7_M_dataEv@plt>:
  4032a0:	ff 25 aa 2e 01 00    	jmpq   *0x12eaa(%rip)        # 416150 <_ZNKSt7__cxx1112basic_stringIcSt11char_traitsIcESaIcEE7_M_dataEv@GLIBCXX_3.4.21>
  4032a6:	68 27 00 00 00       	pushq  $0x27
  4032ab:	e9 70 fd ff ff       	jmpq   403020 <.plt>

00000000004032b0 <_ZNSt13runtime_errorD2Ev@plt>:
  4032b0:	ff 25 a2 2e 01 00    	jmpq   *0x12ea2(%rip)        # 416158 <_ZNSt13runtime_errorD2Ev@GLIBCXX_3.4>
  4032b6:	68 28 00 00 00       	pushq  $0x28
  4032bb:	e9 60 fd ff ff       	jmpq   403020 <.plt>

00000000004032c0 <free@plt>:
  4032c0:	ff 25 9a 2e 01 00    	jmpq   *0x12e9a(%rip)        # 416160 <free@GLIBC_2.2.5>
  4032c6:	68 29 00 00 00       	pushq  $0x29
  4032cb:	e9 50 fd ff ff       	jmpq   403020 <.plt>

00000000004032d0 <_ZNSt7__cxx1112basic_stringIcSt11char_traitsIcESaIcEE10_M_disposeEv@plt>:
  4032d0:	ff 25 92 2e 01 00    	jmpq   *0x12e92(%rip)        # 416168 <_ZNSt7__cxx1112basic_stringIcSt11char_traitsIcESaIcEE10_M_disposeEv@GLIBCXX_3.4.21>
  4032d6:	68 2a 00 00 00       	pushq  $0x2a
  4032db:	e9 40 fd ff ff       	jmpq   403020 <.plt>

00000000004032e0 <atof@plt>:
  4032e0:	ff 25 8a 2e 01 00    	jmpq   *0x12e8a(%rip)        # 416170 <atof@GLIBC_2.2.5>
  4032e6:	68 2b 00 00 00       	pushq  $0x2b
  4032eb:	e9 30 fd ff ff       	jmpq   403020 <.plt>

00000000004032f0 <_ZNKSt9basic_iosIcSt11char_traitsIcEEcvbEv@plt>:
  4032f0:	ff 25 82 2e 01 00    	jmpq   *0x12e82(%rip)        # 416178 <_ZNKSt9basic_iosIcSt11char_traitsIcEEcvbEv@GLIBCXX_3.4.21>
  4032f6:	68 2c 00 00 00       	pushq  $0x2c
  4032fb:	e9 20 fd ff ff       	jmpq   403020 <.plt>

0000000000403300 <_ZdaPv@plt>:
  403300:	ff 25 7a 2e 01 00    	jmpq   *0x12e7a(%rip)        # 416180 <_ZdaPv@GLIBCXX_3.4>
  403306:	68 2d 00 00 00       	pushq  $0x2d
  40330b:	e9 10 fd ff ff       	jmpq   403020 <.plt>

0000000000403310 <_ZNSt13runtime_errorC2ERKS_@plt>:
  403310:	ff 25 72 2e 01 00    	jmpq   *0x12e72(%rip)        # 416188 <_ZNSt13runtime_errorC2ERKS_@GLIBCXX_3.4.21>
  403316:	68 2e 00 00 00       	pushq  $0x2e
  40331b:	e9 00 fd ff ff       	jmpq   403020 <.plt>

0000000000403320 <malloc@plt>:
  403320:	ff 25 6a 2e 01 00    	jmpq   *0x12e6a(%rip)        # 416190 <malloc@GLIBC_2.2.5>
  403326:	68 2f 00 00 00       	pushq  $0x2f
  40332b:	e9 f0 fc ff ff       	jmpq   403020 <.plt>

0000000000403330 <_ZNSt7__cxx1112basic_stringIcSt11char_traitsIcESaIcEEC1EPKcRKS3_@plt>:
  403330:	ff 25 62 2e 01 00    	jmpq   *0x12e62(%rip)        # 416198 <_ZNSt7__cxx1112basic_stringIcSt11char_traitsIcESaIcEEC1EPKcRKS3_@GLIBCXX_3.4.21>
  403336:	68 30 00 00 00       	pushq  $0x30
  40333b:	e9 e0 fc ff ff       	jmpq   403020 <.plt>

0000000000403340 <_ZNKSt13runtime_error4whatEv@plt>:
  403340:	ff 25 5a 2e 01 00    	jmpq   *0x12e5a(%rip)        # 4161a0 <_ZNKSt13runtime_error4whatEv@GLIBCXX_3.4>
  403346:	68 31 00 00 00       	pushq  $0x31
  40334b:	e9 d0 fc ff ff       	jmpq   403020 <.plt>

0000000000403350 <strcmp@plt>:
  403350:	ff 25 52 2e 01 00    	jmpq   *0x12e52(%rip)        # 4161a8 <strcmp@GLIBC_2.2.5>
  403356:	68 32 00 00 00       	pushq  $0x32
  40335b:	e9 c0 fc ff ff       	jmpq   403020 <.plt>

0000000000403360 <__cxa_rethrow@plt>:
  403360:	ff 25 4a 2e 01 00    	jmpq   *0x12e4a(%rip)        # 4161b0 <__cxa_rethrow@CXXABI_1.3>
  403366:	68 33 00 00 00       	pushq  $0x33
  40336b:	e9 b0 fc ff ff       	jmpq   403020 <.plt>

0000000000403370 <_ZNKSt7__cxx1112basic_stringIcSt11char_traitsIcESaIcEE6lengthEv@plt>:
  403370:	ff 25 42 2e 01 00    	jmpq   *0x12e42(%rip)        # 4161b8 <_ZNKSt7__cxx1112basic_stringIcSt11char_traitsIcESaIcEE6lengthEv@GLIBCXX_3.4.21>
  403376:	68 34 00 00 00       	pushq  $0x34
  40337b:	e9 a0 fc ff ff       	jmpq   403020 <.plt>

0000000000403380 <_ZNSt8ios_base4InitC1Ev@plt>:
  403380:	ff 25 3a 2e 01 00    	jmpq   *0x12e3a(%rip)        # 4161c0 <_ZNSt8ios_base4InitC1Ev@GLIBCXX_3.4>
  403386:	68 35 00 00 00       	pushq  $0x35
  40338b:	e9 90 fc ff ff       	jmpq   403020 <.plt>

0000000000403390 <_ZNSt14basic_ifstreamIcSt11char_traitsIcEEC1ERKNSt7__cxx1112basic_stringIcS1_SaIcEEESt13_Ios_Openmode@plt>:
  403390:	ff 25 32 2e 01 00    	jmpq   *0x12e32(%rip)        # 4161c8 <_ZNSt14basic_ifstreamIcSt11char_traitsIcEEC1ERKNSt7__cxx1112basic_stringIcS1_SaIcEEESt13_Ios_Openmode@GLIBCXX_3.4.21>
  403396:	68 36 00 00 00       	pushq  $0x36
  40339b:	e9 80 fc ff ff       	jmpq   403020 <.plt>

00000000004033a0 <memmove@plt>:
  4033a0:	ff 25 2a 2e 01 00    	jmpq   *0x12e2a(%rip)        # 4161d0 <memmove@GLIBC_2.2.5>
  4033a6:	68 37 00 00 00       	pushq  $0x37
  4033ab:	e9 70 fc ff ff       	jmpq   403020 <.plt>

00000000004033b0 <__cxa_end_catch@plt>:
  4033b0:	ff 25 22 2e 01 00    	jmpq   *0x12e22(%rip)        # 4161d8 <__cxa_end_catch@CXXABI_1.3>
  4033b6:	68 38 00 00 00       	pushq  $0x38
  4033bb:	e9 60 fc ff ff       	jmpq   403020 <.plt>

00000000004033c0 <__gxx_personality_v0@plt>:
  4033c0:	ff 25 1a 2e 01 00    	jmpq   *0x12e1a(%rip)        # 4161e0 <__gxx_personality_v0@CXXABI_1.3>
  4033c6:	68 39 00 00 00       	pushq  $0x39
  4033cb:	e9 50 fc ff ff       	jmpq   403020 <.plt>

00000000004033d0 <__cxa_throw@plt>:
  4033d0:	ff 25 12 2e 01 00    	jmpq   *0x12e12(%rip)        # 4161e8 <__cxa_throw@CXXABI_1.3>
  4033d6:	68 3a 00 00 00       	pushq  $0x3a
  4033db:	e9 40 fc ff ff       	jmpq   403020 <.plt>

00000000004033e0 <_Unwind_Resume@plt>:
  4033e0:	ff 25 0a 2e 01 00    	jmpq   *0x12e0a(%rip)        # 4161f0 <_Unwind_Resume@GCC_3.0>
  4033e6:	68 3b 00 00 00       	pushq  $0x3b
  4033eb:	e9 30 fc ff ff       	jmpq   403020 <.plt>

00000000004033f0 <_ZNSaIcEC1Ev@plt>:
  4033f0:	ff 25 02 2e 01 00    	jmpq   *0x12e02(%rip)        # 4161f8 <_ZNSaIcEC1Ev@GLIBCXX_3.4>
  4033f6:	68 3c 00 00 00       	pushq  $0x3c
  4033fb:	e9 20 fc ff ff       	jmpq   403020 <.plt>

0000000000403400 <_ZNSt7__cxx1112basic_stringIcSt11char_traitsIcESaIcEE9_M_createERmm@plt>:
  403400:	ff 25 fa 2d 01 00    	jmpq   *0x12dfa(%rip)        # 416200 <_ZNSt7__cxx1112basic_stringIcSt11char_traitsIcESaIcEE9_M_createERmm@GLIBCXX_3.4.21>
  403406:	68 3d 00 00 00       	pushq  $0x3d
  40340b:	e9 10 fc ff ff       	jmpq   403020 <.plt>

0000000000403410 <_ZNKSt7__cxx1112basic_stringIcSt11char_traitsIcESaIcEE3endEv@plt>:
  403410:	ff 25 f2 2d 01 00    	jmpq   *0x12df2(%rip)        # 416208 <_ZNKSt7__cxx1112basic_stringIcSt11char_traitsIcESaIcEE3endEv@GLIBCXX_3.4.21>
  403416:	68 3e 00 00 00       	pushq  $0x3e
  40341b:	e9 00 fc ff ff       	jmpq   403020 <.plt>

0000000000403420 <_ZNSt13runtime_errorC2EPKc@plt>:
  403420:	ff 25 ea 2d 01 00    	jmpq   *0x12dea(%rip)        # 416210 <_ZNSt13runtime_errorC2EPKc@GLIBCXX_3.4.21>
  403426:	68 3f 00 00 00       	pushq  $0x3f
  40342b:	e9 f0 fb ff ff       	jmpq   403020 <.plt>

0000000000403430 <_ZNSolsEd@plt>:
  403430:	ff 25 e2 2d 01 00    	jmpq   *0x12de2(%rip)        # 416218 <_ZNSolsEd@GLIBCXX_3.4>
  403436:	68 40 00 00 00       	pushq  $0x40
  40343b:	e9 e0 fb ff ff       	jmpq   403020 <.plt>

0000000000403440 <__cxa_pure_virtual@plt>:
  403440:	ff 25 da 2d 01 00    	jmpq   *0x12dda(%rip)        # 416220 <__cxa_pure_virtual@CXXABI_1.3>
  403446:	68 41 00 00 00       	pushq  $0x41
  40344b:	e9 d0 fb ff ff       	jmpq   403020 <.plt>

0000000000403450 <_ZNSt7__cxx1112basic_stringIcSt11char_traitsIcESaIcEE11_M_capacityEm@plt>:
  403450:	ff 25 d2 2d 01 00    	jmpq   *0x12dd2(%rip)        # 416228 <_ZNSt7__cxx1112basic_stringIcSt11char_traitsIcESaIcEE11_M_capacityEm@GLIBCXX_3.4.21>
  403456:	68 42 00 00 00       	pushq  $0x42
  40345b:	e9 c0 fb ff ff       	jmpq   403020 <.plt>

0000000000403460 <_ZNSt7__cxx1112basic_stringIcSt11char_traitsIcESaIcEEixEm@plt>:
  403460:	ff 25 ca 2d 01 00    	jmpq   *0x12dca(%rip)        # 416230 <_ZNSt7__cxx1112basic_stringIcSt11char_traitsIcESaIcEEixEm@GLIBCXX_3.4.21>
  403466:	68 43 00 00 00       	pushq  $0x43
  40346b:	e9 b0 fb ff ff       	jmpq   403020 <.plt>

0000000000403470 <_ZNSt8ios_base4InitD1Ev@plt>:
  403470:	ff 25 c2 2d 01 00    	jmpq   *0x12dc2(%rip)        # 416238 <_ZNSt8ios_base4InitD1Ev@GLIBCXX_3.4>
  403476:	68 44 00 00 00       	pushq  $0x44
  40347b:	e9 a0 fb ff ff       	jmpq   403020 <.plt>

Disassembly of section .text:

0000000000403480 <__cxx_global_var_init>:
  403480:	55                   	push   %rbp
  403481:	48 89 e5             	mov    %rsp,%rbp
  403484:	48 bf 91 63 41 00 00 	movabs $0x416391,%rdi
  40348b:	00 00 00 
  40348e:	e8 ed fe ff ff       	callq  403380 <_ZNSt8ios_base4InitC1Ev@plt>
  403493:	48 b8 70 34 40 00 00 	movabs $0x403470,%rax
  40349a:	00 00 00 
  40349d:	48 89 c7             	mov    %rax,%rdi
  4034a0:	48 be 91 63 41 00 00 	movabs $0x416391,%rsi
  4034a7:	00 00 00 
  4034aa:	48 ba 48 62 41 00 00 	movabs $0x416248,%rdx
  4034b1:	00 00 00 
  4034b4:	e8 47 fd ff ff       	callq  403200 <__cxa_atexit@plt>
  4034b9:	5d                   	pop    %rbp
  4034ba:	c3                   	retq   
  4034bb:	0f 1f 44 00 00       	nopl   0x0(%rax,%rax,1)

00000000004034c0 <_GLOBAL__sub_I_ETL.cpp>:
  4034c0:	55                   	push   %rbp
  4034c1:	48 89 e5             	mov    %rsp,%rbp
  4034c4:	e8 b7 ff ff ff       	callq  403480 <__cxx_global_var_init>
  4034c9:	5d                   	pop    %rbp
  4034ca:	c3                   	retq   
  4034cb:	0f 1f 44 00 00       	nopl   0x0(%rax,%rax,1)

00000000004034d0 <__cxx_global_var_init>:
  4034d0:	55                   	push   %rbp
  4034d1:	48 89 e5             	mov    %rsp,%rbp
  4034d4:	48 bf 92 63 41 00 00 	movabs $0x416392,%rdi
  4034db:	00 00 00 
  4034de:	e8 9d fe ff ff       	callq  403380 <_ZNSt8ios_base4InitC1Ev@plt>
  4034e3:	48 b8 70 34 40 00 00 	movabs $0x403470,%rax
  4034ea:	00 00 00 
  4034ed:	48 89 c7             	mov    %rax,%rdi
  4034f0:	48 be 92 63 41 00 00 	movabs $0x416392,%rsi
  4034f7:	00 00 00 
  4034fa:	48 ba 48 62 41 00 00 	movabs $0x416248,%rdx
  403501:	00 00 00 
  403504:	e8 f7 fc ff ff       	callq  403200 <__cxa_atexit@plt>
  403509:	5d                   	pop    %rbp
  40350a:	c3                   	retq   
  40350b:	0f 1f 44 00 00       	nopl   0x0(%rax,%rax,1)

0000000000403510 <_GLOBAL__sub_I_main.cpp>:
  403510:	55                   	push   %rbp
  403511:	48 89 e5             	mov    %rsp,%rbp
  403514:	e8 b7 ff ff ff       	callq  4034d0 <__cxx_global_var_init>
  403519:	5d                   	pop    %rbp
  40351a:	c3                   	retq   
  40351b:	0f 1f 44 00 00       	nopl   0x0(%rax,%rax,1)

0000000000403520 <_start>:
  403520:	f3 0f 1e fa          	endbr64 
  403524:	31 ed                	xor    %ebp,%ebp
  403526:	49 89 d1             	mov    %rdx,%r9
  403529:	5e                   	pop    %rsi
  40352a:	48 89 e2             	mov    %rsp,%rdx
  40352d:	48 83 e4 f0          	and    $0xfffffffffffffff0,%rsp
  403531:	50                   	push   %rax
  403532:	54                   	push   %rsp
  403533:	49 c7 c0 00 de 40 00 	mov    $0x40de00,%r8
  40353a:	48 c7 c1 90 dd 40 00 	mov    $0x40dd90,%rcx
  403541:	48 c7 c7 c0 c6 40 00 	mov    $0x40c6c0,%rdi
  403548:	ff 15 8a 2a 01 00    	callq  *0x12a8a(%rip)        # 415fd8 <__libc_start_main@GLIBC_2.2.5>
  40354e:	f4                   	hlt    
  40354f:	90                   	nop

0000000000403550 <_dl_relocate_static_pie>:
  403550:	f3 0f 1e fa          	endbr64 
  403554:	c3                   	retq   
  403555:	66 2e 0f 1f 84 00 00 	nopw   %cs:0x0(%rax,%rax,1)
  40355c:	00 00 00 
  40355f:	90                   	nop

0000000000403560 <deregister_tm_clones>:
  403560:	b8 58 62 41 00       	mov    $0x416258,%eax
  403565:	48 3d 58 62 41 00    	cmp    $0x416258,%rax
  40356b:	74 13                	je     403580 <deregister_tm_clones+0x20>
  40356d:	b8 00 00 00 00       	mov    $0x0,%eax
  403572:	48 85 c0             	test   %rax,%rax
  403575:	74 09                	je     403580 <deregister_tm_clones+0x20>
  403577:	bf 58 62 41 00       	mov    $0x416258,%edi
  40357c:	ff e0                	jmpq   *%rax
  40357e:	66 90                	xchg   %ax,%ax
  403580:	c3                   	retq   
  403581:	66 66 2e 0f 1f 84 00 	data16 nopw %cs:0x0(%rax,%rax,1)
  403588:	00 00 00 00 
  40358c:	0f 1f 40 00          	nopl   0x0(%rax)

0000000000403590 <register_tm_clones>:
  403590:	be 58 62 41 00       	mov    $0x416258,%esi
  403595:	48 81 ee 58 62 41 00 	sub    $0x416258,%rsi
  40359c:	48 89 f0             	mov    %rsi,%rax
  40359f:	48 c1 ee 3f          	shr    $0x3f,%rsi
  4035a3:	48 c1 f8 03          	sar    $0x3,%rax
  4035a7:	48 01 c6             	add    %rax,%rsi
  4035aa:	48 d1 fe             	sar    %rsi
  4035ad:	74 11                	je     4035c0 <register_tm_clones+0x30>
  4035af:	b8 00 00 00 00       	mov    $0x0,%eax
  4035b4:	48 85 c0             	test   %rax,%rax
  4035b7:	74 07                	je     4035c0 <register_tm_clones+0x30>
  4035b9:	bf 58 62 41 00       	mov    $0x416258,%edi
  4035be:	ff e0                	jmpq   *%rax
  4035c0:	c3                   	retq   
  4035c1:	66 66 2e 0f 1f 84 00 	data16 nopw %cs:0x0(%rax,%rax,1)
  4035c8:	00 00 00 00 
  4035cc:	0f 1f 40 00          	nopl   0x0(%rax)

00000000004035d0 <__do_global_dtors_aux>:
  4035d0:	f3 0f 1e fa          	endbr64 
  4035d4:	80 3d b5 2d 01 00 00 	cmpb   $0x0,0x12db5(%rip)        # 416390 <completed.8060>
  4035db:	75 13                	jne    4035f0 <__do_global_dtors_aux+0x20>
  4035dd:	55                   	push   %rbp
  4035de:	48 89 e5             	mov    %rsp,%rbp
  4035e1:	e8 7a ff ff ff       	callq  403560 <deregister_tm_clones>
  4035e6:	c6 05 a3 2d 01 00 01 	movb   $0x1,0x12da3(%rip)        # 416390 <completed.8060>
  4035ed:	5d                   	pop    %rbp
  4035ee:	c3                   	retq   
  4035ef:	90                   	nop
  4035f0:	c3                   	retq   
  4035f1:	66 66 2e 0f 1f 84 00 	data16 nopw %cs:0x0(%rax,%rax,1)
  4035f8:	00 00 00 00 
  4035fc:	0f 1f 40 00          	nopl   0x0(%rax)

0000000000403600 <frame_dummy>:
  403600:	f3 0f 1e fa          	endbr64 
  403604:	eb 8a                	jmp    403590 <register_tm_clones>
  403606:	66 2e 0f 1f 84 00 00 	nopw   %cs:0x0(%rax,%rax,1)
  40360d:	00 00 00 

0000000000403610 <_ZN3ETL7readCSVB5cxx11Ev>:
  403610:	55                   	push   %rbp
  403611:	48 89 e5             	mov    %rsp,%rbp
  403614:	48 81 ec c0 02 00 00 	sub    $0x2c0,%rsp
  40361b:	48 89 f8             	mov    %rdi,%rax
  40361e:	48 89 7d f8          	mov    %rdi,-0x8(%rbp)
  403622:	48 89 75 f0          	mov    %rsi,-0x10(%rbp)
  403626:	48 8b 4d f0          	mov    -0x10(%rbp),%rcx
  40362a:	48 8d 95 e8 fd ff ff 	lea    -0x218(%rbp),%rdx
  403631:	41 b8 08 00 00 00    	mov    $0x8,%r8d
  403637:	48 89 bd 70 fd ff ff 	mov    %rdi,-0x290(%rbp)
  40363e:	48 89 d7             	mov    %rdx,%rdi
  403641:	48 89 ce             	mov    %rcx,%rsi
  403644:	44 89 c2             	mov    %r8d,%edx
  403647:	48 89 85 68 fd ff ff 	mov    %rax,-0x298(%rbp)
  40364e:	48 89 8d 60 fd ff ff 	mov    %rcx,-0x2a0(%rbp)
  403655:	e8 36 fd ff ff       	callq  403390 <_ZNSt14basic_ifstreamIcSt11char_traitsIcEEC1ERKNSt7__cxx1112basic_stringIcS1_SaIcEEESt13_Ios_Openmode@plt>
  40365a:	c6 85 e7 fd ff ff 00 	movb   $0x0,-0x219(%rbp)
  403661:	48 8b bd 70 fd ff ff 	mov    -0x290(%rbp),%rdi
  403668:	e8 83 03 00 00       	callq  4039f0 <_ZNSt6vectorIS_INSt7__cxx1112basic_stringIcSt11char_traitsIcESaIcEEESaIS5_EESaIS7_EEC2Ev>
  40366d:	48 8d 85 b8 fd ff ff 	lea    -0x248(%rbp),%rax
  403674:	48 89 c7             	mov    %rax,%rdi
  403677:	48 89 85 58 fd ff ff 	mov    %rax,-0x2a8(%rbp)
  40367e:	e8 6d fd ff ff       	callq  4033f0 <_ZNSaIcEC1Ev@plt>
  403683:	be fb e2 40 00       	mov    $0x40e2fb,%esi
  403688:	48 8d bd c0 fd ff ff 	lea    -0x240(%rbp),%rdi
  40368f:	48 8b 95 58 fd ff ff 	mov    -0x2a8(%rbp),%rdx
  403696:	e8 95 fc ff ff       	callq  403330 <_ZNSt7__cxx1112basic_stringIcSt11char_traitsIcESaIcEEC1EPKcRKS3_@plt>
  40369b:	e9 00 00 00 00       	jmpq   4036a0 <_ZN3ETL7readCSVB5cxx11Ev+0x90>
  4036a0:	48 8d bd b8 fd ff ff 	lea    -0x248(%rbp),%rdi
  4036a7:	e8 e4 fb ff ff       	callq  403290 <_ZNSaIcED1Ev@plt>
  4036ac:	48 8d bd e8 fd ff ff 	lea    -0x218(%rbp),%rdi
  4036b3:	48 8d b5 c0 fd ff ff 	lea    -0x240(%rbp),%rsi
  4036ba:	e8 91 f9 ff ff       	callq  403050 <_ZSt7getlineIcSt11char_traitsIcESaIcEERSt13basic_istreamIT_T0_ES7_RNSt7__cxx1112basic_stringIS4_S5_T1_EE@plt>
  4036bf:	48 89 85 50 fd ff ff 	mov    %rax,-0x2b0(%rbp)
  4036c6:	e9 00 00 00 00       	jmpq   4036cb <_ZN3ETL7readCSVB5cxx11Ev+0xbb>
  4036cb:	48 8b 85 50 fd ff ff 	mov    -0x2b0(%rbp),%rax
  4036d2:	48 8b 08             	mov    (%rax),%rcx
  4036d5:	48 8b 49 e8          	mov    -0x18(%rcx),%rcx
  4036d9:	48 01 c8             	add    %rcx,%rax
  4036dc:	48 89 c7             	mov    %rax,%rdi
  4036df:	e8 0c fc ff ff       	callq  4032f0 <_ZNKSt9basic_iosIcSt11char_traitsIcEEcvbEv@plt>
  4036e4:	88 85 4f fd ff ff    	mov    %al,-0x2b1(%rbp)
  4036ea:	e9 00 00 00 00       	jmpq   4036ef <_ZN3ETL7readCSVB5cxx11Ev+0xdf>
  4036ef:	8a 85 4f fd ff ff    	mov    -0x2b1(%rbp),%al
  4036f5:	a8 01                	test   $0x1,%al
  4036f7:	0f 85 05 00 00 00    	jne    403702 <_ZN3ETL7readCSVB5cxx11Ev+0xf2>
  4036fd:	e9 f0 00 00 00       	jmpq   4037f2 <_ZN3ETL7readCSVB5cxx11Ev+0x1e2>
  403702:	48 8d bd 90 fd ff ff 	lea    -0x270(%rbp),%rdi
  403709:	e8 02 03 00 00       	callq  403a10 <_ZNSt6vectorINSt7__cxx1112basic_stringIcSt11char_traitsIcESaIcEEESaIS5_EEC2Ev>
  40370e:	48 8b 85 60 fd ff ff 	mov    -0x2a0(%rbp),%rax
  403715:	48 83 c0 20          	add    $0x20,%rax
  403719:	48 8d bd 78 fd ff ff 	lea    -0x288(%rbp),%rdi
  403720:	48 89 c6             	mov    %rax,%rsi
  403723:	e8 c8 03 00 00       	callq  403af0 <_ZN5boost9algorithm9is_any_ofINSt7__cxx1112basic_stringIcSt11char_traitsIcESaIcEEEEENS0_6detail10is_any_ofFINS_11range_valueIT_E4typeEEERKSB_>
  403728:	e9 00 00 00 00       	jmpq   40372d <_ZN3ETL7readCSVB5cxx11Ev+0x11d>
  40372d:	48 8d bd 90 fd ff ff 	lea    -0x270(%rbp),%rdi
  403734:	48 8d b5 c0 fd ff ff 	lea    -0x240(%rbp),%rsi
  40373b:	48 8d 95 78 fd ff ff 	lea    -0x288(%rbp),%rdx
  403742:	b9 01 00 00 00       	mov    $0x1,%ecx
  403747:	e8 e4 02 00 00       	callq  403a30 <_ZN5boost9algorithm5splitISt6vectorINSt7__cxx1112basic_stringIcSt11char_traitsIcESaIcEEESaIS8_EERS8_NS0_6detail10is_any_ofFIcEEEERT_SG_OT0_T1_NS0_24token_compress_mode_typeE>
  40374c:	e9 00 00 00 00       	jmpq   403751 <_ZN3ETL7readCSVB5cxx11Ev+0x141>
  403751:	48 8d bd 78 fd ff ff 	lea    -0x288(%rbp),%rdi
  403758:	e8 e3 03 00 00       	callq  403b40 <_ZN5boost9algorithm6detail10is_any_ofFIcED2Ev>
  40375d:	48 8d b5 90 fd ff ff 	lea    -0x270(%rbp),%rsi
  403764:	48 8b bd 70 fd ff ff 	mov    -0x290(%rbp),%rdi
  40376b:	e8 50 04 00 00       	callq  403bc0 <_ZNSt6vectorIS_INSt7__cxx1112basic_stringIcSt11char_traitsIcESaIcEEESaIS5_EESaIS7_EE9push_backERKS7_>
  403770:	e9 00 00 00 00       	jmpq   403775 <_ZN3ETL7readCSVB5cxx11Ev+0x165>
  403775:	48 8d bd 90 fd ff ff 	lea    -0x270(%rbp),%rdi
  40377c:	e8 bf 04 00 00       	callq  403c40 <_ZNSt6vectorINSt7__cxx1112basic_stringIcSt11char_traitsIcESaIcEEESaIS5_EED2Ev>
  403781:	e9 26 ff ff ff       	jmpq   4036ac <_ZN3ETL7readCSVB5cxx11Ev+0x9c>
  403786:	48 89 85 b0 fd ff ff 	mov    %rax,-0x250(%rbp)
  40378d:	89 95 ac fd ff ff    	mov    %edx,-0x254(%rbp)
  403793:	48 8d bd b8 fd ff ff 	lea    -0x248(%rbp),%rdi
  40379a:	e8 f1 fa ff ff       	callq  403290 <_ZNSaIcED1Ev@plt>
  40379f:	e9 bd 00 00 00       	jmpq   403861 <_ZN3ETL7readCSVB5cxx11Ev+0x251>
  4037a4:	48 89 85 b0 fd ff ff 	mov    %rax,-0x250(%rbp)
  4037ab:	89 95 ac fd ff ff    	mov    %edx,-0x254(%rbp)
  4037b1:	e9 72 00 00 00       	jmpq   403828 <_ZN3ETL7readCSVB5cxx11Ev+0x218>
  4037b6:	48 89 85 b0 fd ff ff 	mov    %rax,-0x250(%rbp)
  4037bd:	89 95 ac fd ff ff    	mov    %edx,-0x254(%rbp)
  4037c3:	e9 19 00 00 00       	jmpq   4037e1 <_ZN3ETL7readCSVB5cxx11Ev+0x1d1>
  4037c8:	48 89 85 b0 fd ff ff 	mov    %rax,-0x250(%rbp)
  4037cf:	89 95 ac fd ff ff    	mov    %edx,-0x254(%rbp)
  4037d5:	48 8d bd 78 fd ff ff 	lea    -0x288(%rbp),%rdi
  4037dc:	e8 5f 03 00 00       	callq  403b40 <_ZN5boost9algorithm6detail10is_any_ofFIcED2Ev>
  4037e1:	48 8d bd 90 fd ff ff 	lea    -0x270(%rbp),%rdi
  4037e8:	e8 53 04 00 00       	callq  403c40 <_ZNSt6vectorINSt7__cxx1112basic_stringIcSt11char_traitsIcESaIcEEESaIS5_EED2Ev>
  4037ed:	e9 36 00 00 00       	jmpq   403828 <_ZN3ETL7readCSVB5cxx11Ev+0x218>
  4037f2:	48 8d bd e8 fd ff ff 	lea    -0x218(%rbp),%rdi
  4037f9:	e8 62 f8 ff ff       	callq  403060 <_ZNSt14basic_ifstreamIcSt11char_traitsIcEE5closeEv@plt>
  4037fe:	e9 00 00 00 00       	jmpq   403803 <_ZN3ETL7readCSVB5cxx11Ev+0x1f3>
  403803:	c6 85 e7 fd ff ff 01 	movb   $0x1,-0x219(%rbp)
  40380a:	48 8d bd c0 fd ff ff 	lea    -0x240(%rbp),%rdi
  403811:	e8 2a f9 ff ff       	callq  403140 <_ZNSt7__cxx1112basic_stringIcSt11char_traitsIcESaIcEED1Ev@plt>
  403816:	f6 85 e7 fd ff ff 01 	testb  $0x1,-0x219(%rbp)
  40381d:	0f 85 22 00 00 00    	jne    403845 <_ZN3ETL7readCSVB5cxx11Ev+0x235>
  403823:	e9 11 00 00 00       	jmpq   403839 <_ZN3ETL7readCSVB5cxx11Ev+0x229>
  403828:	48 8d bd c0 fd ff ff 	lea    -0x240(%rbp),%rdi
  40382f:	e8 0c f9 ff ff       	callq  403140 <_ZNSt7__cxx1112basic_stringIcSt11char_traitsIcESaIcEED1Ev@plt>
  403834:	e9 28 00 00 00       	jmpq   403861 <_ZN3ETL7readCSVB5cxx11Ev+0x251>
  403839:	48 8b bd 70 fd ff ff 	mov    -0x290(%rbp),%rdi
  403840:	e8 6b 04 00 00       	callq  403cb0 <_ZNSt6vectorIS_INSt7__cxx1112basic_stringIcSt11char_traitsIcESaIcEEESaIS5_EESaIS7_EED2Ev>
  403845:	48 8d bd e8 fd ff ff 	lea    -0x218(%rbp),%rdi
  40384c:	e8 1f f8 ff ff       	callq  403070 <_ZNSt14basic_ifstreamIcSt11char_traitsIcEED1Ev@plt>
  403851:	48 8b 85 68 fd ff ff 	mov    -0x298(%rbp),%rax
  403858:	48 81 c4 c0 02 00 00 	add    $0x2c0,%rsp
  40385f:	5d                   	pop    %rbp
  403860:	c3                   	retq   
  403861:	48 8b bd 70 fd ff ff 	mov    -0x290(%rbp),%rdi
  403868:	e8 43 04 00 00       	callq  403cb0 <_ZNSt6vectorIS_INSt7__cxx1112basic_stringIcSt11char_traitsIcESaIcEEESaIS5_EESaIS7_EED2Ev>
  40386d:	48 8d bd e8 fd ff ff 	lea    -0x218(%rbp),%rdi
  403874:	e8 f7 f7 ff ff       	callq  403070 <_ZNSt14basic_ifstreamIcSt11char_traitsIcEED1Ev@plt>
  403879:	48 8b bd b0 fd ff ff 	mov    -0x250(%rbp),%rdi
  403880:	e8 5b fb ff ff       	callq  4033e0 <_Unwind_Resume@plt>
  403885:	66 2e 0f 1f 84 00 00 	nopw   %cs:0x0(%rax,%rax,1)
  40388c:	00 00 00 
  40388f:	90                   	nop

0000000000403890 <_ZN3ETL10CSVtoEigenESt6vectorIS0_INSt7__cxx1112basic_stringIcSt11char_traitsIcESaIcEEESaIS6_EESaIS8_EEii>:
  403890:	55                   	push   %rbp
  403891:	48 89 e5             	mov    %rsp,%rbp
  403894:	48 81 ec 80 00 00 00 	sub    $0x80,%rsp
  40389b:	48 89 f8             	mov    %rdi,%rax
  40389e:	49 89 f9             	mov    %rdi,%r9
  4038a1:	4c 89 4d f8          	mov    %r9,-0x8(%rbp)
  4038a5:	48 89 75 f0          	mov    %rsi,-0x10(%rbp)
  4038a9:	89 4d ec             	mov    %ecx,-0x14(%rbp)
  4038ac:	44 89 45 e8          	mov    %r8d,-0x18(%rbp)
  4038b0:	48 8b 75 f0          	mov    -0x10(%rbp),%rsi
  4038b4:	44 8a 56 40          	mov    0x40(%rsi),%r10b
  4038b8:	41 80 e2 01          	and    $0x1,%r10b
  4038bc:	41 0f b6 ca          	movzbl %r10b,%ecx
  4038c0:	83 f9 01             	cmp    $0x1,%ecx
  4038c3:	48 89 55 a8          	mov    %rdx,-0x58(%rbp)
  4038c7:	48 89 7d a0          	mov    %rdi,-0x60(%rbp)
  4038cb:	48 89 45 98          	mov    %rax,-0x68(%rbp)
  4038cf:	0f 85 09 00 00 00    	jne    4038de <_ZN3ETL10CSVtoEigenESt6vectorIS0_INSt7__cxx1112basic_stringIcSt11char_traitsIcESaIcEEESaIS6_EESaIS8_EEii+0x4e>
  4038d5:	8b 45 ec             	mov    -0x14(%rbp),%eax
  4038d8:	83 e8 01             	sub    $0x1,%eax
  4038db:	89 45 ec             	mov    %eax,-0x14(%rbp)
  4038de:	48 8d 7d d0          	lea    -0x30(%rbp),%rdi
  4038e2:	48 8d 75 e8          	lea    -0x18(%rbp),%rsi
  4038e6:	48 8d 55 ec          	lea    -0x14(%rbp),%rdx
  4038ea:	e8 31 04 00 00       	callq  403d20 <_ZN5Eigen6MatrixIdLin1ELin1ELi0ELin1ELin1EEC2IiiEERKT_RKT0_>
  4038ef:	c7 45 cc 00 00 00 00 	movl   $0x0,-0x34(%rbp)
  4038f6:	8b 45 cc             	mov    -0x34(%rbp),%eax
  4038f9:	3b 45 ec             	cmp    -0x14(%rbp),%eax
  4038fc:	0f 8d 9e 00 00 00    	jge    4039a0 <_ZN3ETL10CSVtoEigenESt6vectorIS0_INSt7__cxx1112basic_stringIcSt11char_traitsIcESaIcEEESaIS6_EESaIS8_EEii+0x110>
  403902:	c7 45 c8 00 00 00 00 	movl   $0x0,-0x38(%rbp)
  403909:	8b 45 c8             	mov    -0x38(%rbp),%eax
  40390c:	3b 45 e8             	cmp    -0x18(%rbp),%eax
  40390f:	0f 8d 78 00 00 00    	jge    40398d <_ZN3ETL10CSVtoEigenESt6vectorIS0_INSt7__cxx1112basic_stringIcSt11char_traitsIcESaIcEEESaIS6_EESaIS8_EEii+0xfd>
  403915:	48 63 75 cc          	movslq -0x34(%rbp),%rsi
  403919:	48 8b 7d a8          	mov    -0x58(%rbp),%rdi
  40391d:	e8 6e 04 00 00       	callq  403d90 <_ZNSt6vectorIS_INSt7__cxx1112basic_stringIcSt11char_traitsIcESaIcEEESaIS5_EESaIS7_EEixEm>
  403922:	48 63 75 c8          	movslq -0x38(%rbp),%rsi
  403926:	48 89 c7             	mov    %rax,%rdi
  403929:	e8 82 04 00 00       	callq  403db0 <_ZNSt6vectorINSt7__cxx1112basic_stringIcSt11char_traitsIcESaIcEEESaIS5_EEixEm>
  40392e:	48 89 c7             	mov    %rax,%rdi
  403931:	e8 7a f7 ff ff       	callq  4030b0 <_ZNKSt7__cxx1112basic_stringIcSt11char_traitsIcESaIcEE5c_strEv@plt>
  403936:	48 89 c7             	mov    %rax,%rdi
  403939:	e8 a2 f9 ff ff       	callq  4032e0 <atof@plt>
  40393e:	48 63 75 c8          	movslq -0x38(%rbp),%rsi
  403942:	48 63 55 cc          	movslq -0x34(%rbp),%rdx
  403946:	48 8d 7d d0          	lea    -0x30(%rbp),%rdi
  40394a:	f2 0f 11 45 90       	movsd  %xmm0,-0x70(%rbp)
  40394f:	e8 7c 04 00 00       	callq  403dd0 <_ZN5Eigen15DenseCoeffsBaseINS_6MatrixIdLin1ELin1ELi0ELin1ELin1EEELi1EEclEll>
  403954:	48 89 45 88          	mov    %rax,-0x78(%rbp)
  403958:	e9 00 00 00 00       	jmpq   40395d <_ZN3ETL10CSVtoEigenESt6vectorIS0_INSt7__cxx1112basic_stringIcSt11char_traitsIcESaIcEEESaIS6_EESaIS8_EEii+0xcd>
  40395d:	48 8b 45 88          	mov    -0x78(%rbp),%rax
  403961:	f2 0f 10 45 90       	movsd  -0x70(%rbp),%xmm0
  403966:	f2 0f 11 00          	movsd  %xmm0,(%rax)
  40396a:	8b 45 c8             	mov    -0x38(%rbp),%eax
  40396d:	83 c0 01             	add    $0x1,%eax
  403970:	89 45 c8             	mov    %eax,-0x38(%rbp)
  403973:	e9 91 ff ff ff       	jmpq   403909 <_ZN3ETL10CSVtoEigenESt6vectorIS0_INSt7__cxx1112basic_stringIcSt11char_traitsIcESaIcEEESaIS6_EESaIS8_EEii+0x79>
  403978:	48 89 45 c0          	mov    %rax,-0x40(%rbp)
  40397c:	89 55 bc             	mov    %edx,-0x44(%rbp)
  40397f:	48 8d 7d d0          	lea    -0x30(%rbp),%rdi
  403983:	e8 e8 04 00 00       	callq  403e70 <_ZN5Eigen6MatrixIdLin1ELin1ELi0ELin1ELin1EED2Ev>
  403988:	e9 55 00 00 00       	jmpq   4039e2 <_ZN3ETL10CSVtoEigenESt6vectorIS0_INSt7__cxx1112basic_stringIcSt11char_traitsIcESaIcEEESaIS6_EESaIS8_EEii+0x152>
  40398d:	e9 00 00 00 00       	jmpq   403992 <_ZN3ETL10CSVtoEigenESt6vectorIS0_INSt7__cxx1112basic_stringIcSt11char_traitsIcESaIcEEESaIS6_EESaIS8_EEii+0x102>
  403992:	8b 45 cc             	mov    -0x34(%rbp),%eax
  403995:	83 c0 01             	add    $0x1,%eax
  403998:	89 45 cc             	mov    %eax,-0x34(%rbp)
  40399b:	e9 56 ff ff ff       	jmpq   4038f6 <_ZN3ETL10CSVtoEigenESt6vectorIS0_INSt7__cxx1112basic_stringIcSt11char_traitsIcESaIcEEESaIS6_EESaIS8_EEii+0x66>
  4039a0:	48 8d 7d d0          	lea    -0x30(%rbp),%rdi
  4039a4:	e8 57 04 00 00       	callq  403e00 <_ZN5Eigen9DenseBaseINS_6MatrixIdLin1ELin1ELi0ELin1ELin1EEEE9transposeEv>
  4039a9:	48 89 45 80          	mov    %rax,-0x80(%rbp)
  4039ad:	e9 00 00 00 00       	jmpq   4039b2 <_ZN3ETL10CSVtoEigenESt6vectorIS0_INSt7__cxx1112basic_stringIcSt11char_traitsIcESaIcEEESaIS6_EESaIS8_EEii+0x122>
  4039b2:	48 8b 45 80          	mov    -0x80(%rbp),%rax
  4039b6:	48 89 45 b0          	mov    %rax,-0x50(%rbp)
  4039ba:	48 8d 75 b0          	lea    -0x50(%rbp),%rsi
  4039be:	48 8b 7d a0          	mov    -0x60(%rbp),%rdi
  4039c2:	e8 69 04 00 00       	callq  403e30 <_ZN5Eigen6MatrixIdLin1ELin1ELi0ELin1ELin1EEC2INS_9TransposeIS1_EEEERKNS_9EigenBaseIT_EE>
  4039c7:	e9 00 00 00 00       	jmpq   4039cc <_ZN3ETL10CSVtoEigenESt6vectorIS0_INSt7__cxx1112basic_stringIcSt11char_traitsIcESaIcEEESaIS6_EESaIS8_EEii+0x13c>
  4039cc:	48 8d 7d d0          	lea    -0x30(%rbp),%rdi
  4039d0:	e8 9b 04 00 00       	callq  403e70 <_ZN5Eigen6MatrixIdLin1ELin1ELi0ELin1ELin1EED2Ev>
  4039d5:	48 8b 45 98          	mov    -0x68(%rbp),%rax
  4039d9:	48 81 c4 80 00 00 00 	add    $0x80,%rsp
  4039e0:	5d                   	pop    %rbp
  4039e1:	c3                   	retq   
  4039e2:	48 8b 7d c0          	mov    -0x40(%rbp),%rdi
  4039e6:	e8 f5 f9 ff ff       	callq  4033e0 <_Unwind_Resume@plt>
  4039eb:	0f 1f 44 00 00       	nopl   0x0(%rax,%rax,1)

00000000004039f0 <_ZNSt6vectorIS_INSt7__cxx1112basic_stringIcSt11char_traitsIcESaIcEEESaIS5_EESaIS7_EEC2Ev>:
  4039f0:	55                   	push   %rbp
  4039f1:	48 89 e5             	mov    %rsp,%rbp
  4039f4:	48 83 ec 10          	sub    $0x10,%rsp
  4039f8:	48 89 7d f8          	mov    %rdi,-0x8(%rbp)
  4039fc:	48 8b 45 f8          	mov    -0x8(%rbp),%rax
  403a00:	48 89 c7             	mov    %rax,%rdi
  403a03:	e8 88 04 00 00       	callq  403e90 <_ZNSt12_Vector_baseISt6vectorINSt7__cxx1112basic_stringIcSt11char_traitsIcESaIcEEESaIS6_EESaIS8_EEC2Ev>
  403a08:	48 83 c4 10          	add    $0x10,%rsp
  403a0c:	5d                   	pop    %rbp
  403a0d:	c3                   	retq   
  403a0e:	66 90                	xchg   %ax,%ax

0000000000403a10 <_ZNSt6vectorINSt7__cxx1112basic_stringIcSt11char_traitsIcESaIcEEESaIS5_EEC2Ev>:
  403a10:	55                   	push   %rbp
  403a11:	48 89 e5             	mov    %rsp,%rbp
  403a14:	48 83 ec 10          	sub    $0x10,%rsp
  403a18:	48 89 7d f8          	mov    %rdi,-0x8(%rbp)
  403a1c:	48 8b 45 f8          	mov    -0x8(%rbp),%rax
  403a20:	48 89 c7             	mov    %rax,%rdi
  403a23:	e8 28 05 00 00       	callq  403f50 <_ZNSt12_Vector_baseINSt7__cxx1112basic_stringIcSt11char_traitsIcESaIcEEESaIS5_EEC2Ev>
  403a28:	48 83 c4 10          	add    $0x10,%rsp
  403a2c:	5d                   	pop    %rbp
  403a2d:	c3                   	retq   
  403a2e:	66 90                	xchg   %ax,%ax

0000000000403a30 <_ZN5boost9algorithm5splitISt6vectorINSt7__cxx1112basic_stringIcSt11char_traitsIcESaIcEEESaIS8_EERS8_NS0_6detail10is_any_ofFIcEEEERT_SG_OT0_T1_NS0_24token_compress_mode_typeE>:
  403a30:	55                   	push   %rbp
  403a31:	48 89 e5             	mov    %rsp,%rbp
  403a34:	48 81 ec 80 00 00 00 	sub    $0x80,%rsp
  403a3b:	48 89 7d f8          	mov    %rdi,-0x8(%rbp)
  403a3f:	48 89 75 f0          	mov    %rsi,-0x10(%rbp)
  403a43:	89 4d ec             	mov    %ecx,-0x14(%rbp)
  403a46:	48 8b 7d f8          	mov    -0x8(%rbp),%rdi
  403a4a:	48 8b 75 f0          	mov    -0x10(%rbp),%rsi
  403a4e:	48 8d 45 b0          	lea    -0x50(%rbp),%rax
  403a52:	48 89 7d 98          	mov    %rdi,-0x68(%rbp)
  403a56:	48 89 c7             	mov    %rax,%rdi
  403a59:	48 89 75 90          	mov    %rsi,-0x70(%rbp)
  403a5d:	48 89 d6             	mov    %rdx,%rsi
  403a60:	48 89 45 88          	mov    %rax,-0x78(%rbp)
  403a64:	e8 97 23 00 00       	callq  405e00 <_ZN5boost9algorithm6detail10is_any_ofFIcEC2ERKS3_>
  403a69:	8b 55 ec             	mov    -0x14(%rbp),%edx
  403a6c:	48 8d 7d c8          	lea    -0x38(%rbp),%rdi
  403a70:	48 8b 75 88          	mov    -0x78(%rbp),%rsi
  403a74:	e8 17 23 00 00       	callq  405d90 <_ZN5boost9algorithm12token_finderINS0_6detail10is_any_ofFIcEEEENS2_13token_finderFIT_EES6_NS0_24token_compress_mode_typeE>
  403a79:	e9 00 00 00 00       	jmpq   403a7e <_ZN5boost9algorithm5splitISt6vectorINSt7__cxx1112basic_stringIcSt11char_traitsIcESaIcEEESaIS8_EERS8_NS0_6detail10is_any_ofFIcEEEERT_SG_OT0_T1_NS0_24token_compress_mode_typeE+0x4e>
  403a7e:	48 8d 55 c8          	lea    -0x38(%rbp),%rdx
  403a82:	48 8b 7d 98          	mov    -0x68(%rbp),%rdi
  403a86:	48 8b 75 90          	mov    -0x70(%rbp),%rsi
  403a8a:	e8 41 20 00 00       	callq  405ad0 <_ZN5boost9algorithm10iter_splitISt6vectorINSt7__cxx1112basic_stringIcSt11char_traitsIcESaIcEEESaIS8_EERS8_NS0_6detail13token_finderFINSC_10is_any_ofFIcEEEEEERT_SI_OT0_T1_>
  403a8f:	48 89 45 80          	mov    %rax,-0x80(%rbp)
  403a93:	e9 00 00 00 00       	jmpq   403a98 <_ZN5boost9algorithm5splitISt6vectorINSt7__cxx1112basic_stringIcSt11char_traitsIcESaIcEEESaIS8_EERS8_NS0_6detail10is_any_ofFIcEEEERT_SG_OT0_T1_NS0_24token_compress_mode_typeE+0x68>
  403a98:	48 8d 7d c8          	lea    -0x38(%rbp),%rdi
  403a9c:	e8 0f 24 00 00       	callq  405eb0 <_ZN5boost9algorithm6detail13token_finderFINS1_10is_any_ofFIcEEED2Ev>
  403aa1:	48 8d 7d b0          	lea    -0x50(%rbp),%rdi
  403aa5:	e8 96 00 00 00       	callq  403b40 <_ZN5boost9algorithm6detail10is_any_ofFIcED2Ev>
  403aaa:	48 8b 45 80          	mov    -0x80(%rbp),%rax
  403aae:	48 81 c4 80 00 00 00 	add    $0x80,%rsp
  403ab5:	5d                   	pop    %rbp
  403ab6:	c3                   	retq   
  403ab7:	48 89 45 a8          	mov    %rax,-0x58(%rbp)
  403abb:	89 55 a4             	mov    %edx,-0x5c(%rbp)
  403abe:	e9 10 00 00 00       	jmpq   403ad3 <_ZN5boost9algorithm5splitISt6vectorINSt7__cxx1112basic_stringIcSt11char_traitsIcESaIcEEESaIS8_EERS8_NS0_6detail10is_any_ofFIcEEEERT_SG_OT0_T1_NS0_24token_compress_mode_typeE+0xa3>
  403ac3:	48 89 45 a8          	mov    %rax,-0x58(%rbp)
  403ac7:	89 55 a4             	mov    %edx,-0x5c(%rbp)
  403aca:	48 8d 7d c8          	lea    -0x38(%rbp),%rdi
  403ace:	e8 dd 23 00 00       	callq  405eb0 <_ZN5boost9algorithm6detail13token_finderFINS1_10is_any_ofFIcEEED2Ev>
  403ad3:	48 8d 7d b0          	lea    -0x50(%rbp),%rdi
  403ad7:	e8 64 00 00 00       	callq  403b40 <_ZN5boost9algorithm6detail10is_any_ofFIcED2Ev>
  403adc:	48 8b 7d a8          	mov    -0x58(%rbp),%rdi
  403ae0:	e8 fb f8 ff ff       	callq  4033e0 <_Unwind_Resume@plt>
  403ae5:	66 2e 0f 1f 84 00 00 	nopw   %cs:0x0(%rax,%rax,1)
  403aec:	00 00 00 
  403aef:	90                   	nop

0000000000403af0 <_ZN5boost9algorithm9is_any_ofINSt7__cxx1112basic_stringIcSt11char_traitsIcESaIcEEEEENS0_6detail10is_any_ofFINS_11range_valueIT_E4typeEEERKSB_>:
  403af0:	55                   	push   %rbp
  403af1:	48 89 e5             	mov    %rsp,%rbp
  403af4:	48 83 ec 30          	sub    $0x30,%rsp
  403af8:	48 89 f8             	mov    %rdi,%rax
  403afb:	48 89 f9             	mov    %rdi,%rcx
  403afe:	48 89 4d f8          	mov    %rcx,-0x8(%rbp)
  403b02:	48 89 75 f0          	mov    %rsi,-0x10(%rbp)
  403b06:	48 8b 4d f0          	mov    -0x10(%rbp),%rcx
  403b0a:	48 89 7d d8          	mov    %rdi,-0x28(%rbp)
  403b0e:	48 89 cf             	mov    %rcx,%rdi
  403b11:	48 89 45 d0          	mov    %rax,-0x30(%rbp)
  403b15:	e8 16 0a 00 00       	callq  404530 <_ZN5boost10as_literalINSt7__cxx1112basic_stringIcSt11char_traitsIcESaIcEEEEENS_14iterator_rangeINS_14range_iteratorIKT_vE4typeEEERSA_>
  403b1a:	48 89 45 e0          	mov    %rax,-0x20(%rbp)
  403b1e:	48 89 55 e8          	mov    %rdx,-0x18(%rbp)
  403b22:	48 8b 7d d8          	mov    -0x28(%rbp),%rdi
  403b26:	48 8d 75 e0          	lea    -0x20(%rbp),%rsi
  403b2a:	e8 41 0a 00 00       	callq  404570 <_ZN5boost9algorithm6detail10is_any_ofFIcEC2INS_14iterator_rangeIN9__gnu_cxx17__normal_iteratorIPKcNSt7__cxx1112basic_stringIcSt11char_traitsIcESaIcEEEEEEEEERKT_>
  403b2f:	48 8b 45 d0          	mov    -0x30(%rbp),%rax
  403b33:	48 83 c4 30          	add    $0x30,%rsp
  403b37:	5d                   	pop    %rbp
  403b38:	c3                   	retq   
  403b39:	0f 1f 80 00 00 00 00 	nopl   0x0(%rax)

0000000000403b40 <_ZN5boost9algorithm6detail10is_any_ofFIcED2Ev>:
  403b40:	55                   	push   %rbp
  403b41:	48 89 e5             	mov    %rsp,%rbp
  403b44:	48 83 ec 30          	sub    $0x30,%rsp
  403b48:	48 89 7d f8          	mov    %rdi,-0x8(%rbp)
  403b4c:	48 8b 45 f8          	mov    -0x8(%rbp),%rax
  403b50:	48 8b 78 10          	mov    0x10(%rax),%rdi
  403b54:	48 89 45 f0          	mov    %rax,-0x10(%rbp)
  403b58:	e8 c3 0d 00 00       	callq  404920 <_ZN5boost9algorithm6detail10is_any_ofFIcE17use_fixed_storageEm>
  403b5d:	88 45 ef             	mov    %al,-0x11(%rbp)
  403b60:	e9 00 00 00 00       	jmpq   403b65 <_ZN5boost9algorithm6detail10is_any_ofFIcED2Ev+0x25>
  403b65:	8a 45 ef             	mov    -0x11(%rbp),%al
  403b68:	a8 01                	test   $0x1,%al
  403b6a:	0f 85 36 00 00 00    	jne    403ba6 <_ZN5boost9algorithm6detail10is_any_ofFIcED2Ev+0x66>
  403b70:	e9 00 00 00 00       	jmpq   403b75 <_ZN5boost9algorithm6detail10is_any_ofFIcED2Ev+0x35>
  403b75:	48 8b 45 f0          	mov    -0x10(%rbp),%rax
  403b79:	48 83 38 00          	cmpq   $0x0,(%rax)
  403b7d:	0f 84 23 00 00 00    	je     403ba6 <_ZN5boost9algorithm6detail10is_any_ofFIcED2Ev+0x66>
  403b83:	48 8b 45 f0          	mov    -0x10(%rbp),%rax
  403b87:	48 8b 08             	mov    (%rax),%rcx
  403b8a:	48 83 f9 00          	cmp    $0x0,%rcx
  403b8e:	48 89 4d e0          	mov    %rcx,-0x20(%rbp)
  403b92:	0f 84 09 00 00 00    	je     403ba1 <_ZN5boost9algorithm6detail10is_any_ofFIcED2Ev+0x61>
  403b98:	48 8b 7d e0          	mov    -0x20(%rbp),%rdi
  403b9c:	e8 5f f7 ff ff       	callq  403300 <_ZdaPv@plt>
  403ba1:	e9 00 00 00 00       	jmpq   403ba6 <_ZN5boost9algorithm6detail10is_any_ofFIcED2Ev+0x66>
  403ba6:	48 83 c4 30          	add    $0x30,%rsp
  403baa:	5d                   	pop    %rbp
  403bab:	c3                   	retq   
  403bac:	48 89 c7             	mov    %rax,%rdi
  403baf:	89 55 dc             	mov    %edx,-0x24(%rbp)
  403bb2:	e8 99 04 00 00       	callq  404050 <__clang_call_terminate>
  403bb7:	66 0f 1f 84 00 00 00 	nopw   0x0(%rax,%rax,1)
  403bbe:	00 00 

0000000000403bc0 <_ZNSt6vectorIS_INSt7__cxx1112basic_stringIcSt11char_traitsIcESaIcEEESaIS5_EESaIS7_EE9push_backERKS7_>:
  403bc0:	55                   	push   %rbp
  403bc1:	48 89 e5             	mov    %rsp,%rbp
  403bc4:	48 83 ec 20          	sub    $0x20,%rsp
  403bc8:	48 89 7d f8          	mov    %rdi,-0x8(%rbp)
  403bcc:	48 89 75 f0          	mov    %rsi,-0x10(%rbp)
  403bd0:	48 8b 45 f8          	mov    -0x8(%rbp),%rax
  403bd4:	48 8b 48 08          	mov    0x8(%rax),%rcx
  403bd8:	48 3b 48 10          	cmp    0x10(%rax),%rcx
  403bdc:	48 89 45 e0          	mov    %rax,-0x20(%rbp)
  403be0:	0f 84 30 00 00 00    	je     403c16 <_ZNSt6vectorIS_INSt7__cxx1112basic_stringIcSt11char_traitsIcESaIcEEESaIS5_EESaIS7_EE9push_backERKS7_+0x56>
  403be6:	48 8b 45 e0          	mov    -0x20(%rbp),%rax
  403bea:	48 8b 4d e0          	mov    -0x20(%rbp),%rcx
  403bee:	48 8b 71 08          	mov    0x8(%rcx),%rsi
  403bf2:	48 8b 55 f0          	mov    -0x10(%rbp),%rdx
  403bf6:	48 89 c7             	mov    %rax,%rdi
  403bf9:	e8 d2 68 00 00       	callq  40a4d0 <_ZNSt16allocator_traitsISaISt6vectorINSt7__cxx1112basic_stringIcSt11char_traitsIcESaIcEEESaIS6_EEEE9constructIS8_JRKS8_EEEvRS9_PT_DpOT0_>
  403bfe:	48 8b 45 e0          	mov    -0x20(%rbp),%rax
  403c02:	48 8b 48 08          	mov    0x8(%rax),%rcx
  403c06:	48 81 c1 18 00 00 00 	add    $0x18,%rcx
  403c0d:	48 89 48 08          	mov    %rcx,0x8(%rax)
  403c11:	e9 1e 00 00 00       	jmpq   403c34 <_ZNSt6vectorIS_INSt7__cxx1112basic_stringIcSt11char_traitsIcESaIcEEESaIS5_EESaIS7_EE9push_backERKS7_+0x74>
  403c16:	48 8b 7d e0          	mov    -0x20(%rbp),%rdi
  403c1a:	e8 b1 6b 00 00       	callq  40a7d0 <_ZNSt6vectorIS_INSt7__cxx1112basic_stringIcSt11char_traitsIcESaIcEEESaIS5_EESaIS7_EE3endEv>
  403c1f:	48 89 45 e8          	mov    %rax,-0x18(%rbp)
  403c23:	48 8b 55 f0          	mov    -0x10(%rbp),%rdx
  403c27:	48 8b 75 e8          	mov    -0x18(%rbp),%rsi
  403c2b:	48 8b 7d e0          	mov    -0x20(%rbp),%rdi
  403c2f:	e8 ec 68 00 00       	callq  40a520 <_ZNSt6vectorIS_INSt7__cxx1112basic_stringIcSt11char_traitsIcESaIcEEESaIS5_EESaIS7_EE17_M_realloc_insertIJRKS7_EEEvN9__gnu_cxx17__normal_iteratorIPS7_S9_EEDpOT_>
  403c34:	48 83 c4 20          	add    $0x20,%rsp
  403c38:	5d                   	pop    %rbp
  403c39:	c3                   	retq   
  403c3a:	66 0f 1f 44 00 00    	nopw   0x0(%rax,%rax,1)

0000000000403c40 <_ZNSt6vectorINSt7__cxx1112basic_stringIcSt11char_traitsIcESaIcEEESaIS5_EED2Ev>:
  403c40:	55                   	push   %rbp
  403c41:	48 89 e5             	mov    %rsp,%rbp
  403c44:	48 83 ec 30          	sub    $0x30,%rsp
  403c48:	48 89 7d f8          	mov    %rdi,-0x8(%rbp)
  403c4c:	48 8b 45 f8          	mov    -0x8(%rbp),%rax
  403c50:	48 8b 38             	mov    (%rax),%rdi
  403c53:	48 8b 70 08          	mov    0x8(%rax),%rsi
  403c57:	48 89 7d e0          	mov    %rdi,-0x20(%rbp)
  403c5b:	48 89 c7             	mov    %rax,%rdi
  403c5e:	48 89 45 d8          	mov    %rax,-0x28(%rbp)
  403c62:	48 89 75 d0          	mov    %rsi,-0x30(%rbp)
  403c66:	e8 c5 06 00 00       	callq  404330 <_ZNSt12_Vector_baseINSt7__cxx1112basic_stringIcSt11char_traitsIcESaIcEEESaIS5_EE19_M_get_Tp_allocatorEv>
  403c6b:	48 8b 7d e0          	mov    -0x20(%rbp),%rdi
  403c6f:	48 8b 75 d0          	mov    -0x30(%rbp),%rsi
  403c73:	48 89 c2             	mov    %rax,%rdx
  403c76:	e8 85 06 00 00       	callq  404300 <_ZSt8_DestroyIPNSt7__cxx1112basic_stringIcSt11char_traitsIcESaIcEEES5_EvT_S7_RSaIT0_E>
  403c7b:	e9 00 00 00 00       	jmpq   403c80 <_ZNSt6vectorINSt7__cxx1112basic_stringIcSt11char_traitsIcESaIcEEESaIS5_EED2Ev+0x40>
  403c80:	48 8b 45 d8          	mov    -0x28(%rbp),%rax
  403c84:	48 89 c7             	mov    %rax,%rdi
  403c87:	e8 b4 06 00 00       	callq  404340 <_ZNSt12_Vector_baseINSt7__cxx1112basic_stringIcSt11char_traitsIcESaIcEEESaIS5_EED2Ev>
  403c8c:	48 83 c4 30          	add    $0x30,%rsp
  403c90:	5d                   	pop    %rbp
  403c91:	c3                   	retq   
  403c92:	48 89 45 f0          	mov    %rax,-0x10(%rbp)
  403c96:	89 55 ec             	mov    %edx,-0x14(%rbp)
  403c99:	48 8b 45 d8          	mov    -0x28(%rbp),%rax
  403c9d:	48 89 c7             	mov    %rax,%rdi
  403ca0:	e8 9b 06 00 00       	callq  404340 <_ZNSt12_Vector_baseINSt7__cxx1112basic_stringIcSt11char_traitsIcESaIcEEESaIS5_EED2Ev>
  403ca5:	48 8b 7d f0          	mov    -0x10(%rbp),%rdi
  403ca9:	e8 a2 03 00 00       	callq  404050 <__clang_call_terminate>
  403cae:	66 90                	xchg   %ax,%ax

0000000000403cb0 <_ZNSt6vectorIS_INSt7__cxx1112basic_stringIcSt11char_traitsIcESaIcEEESaIS5_EESaIS7_EED2Ev>:
  403cb0:	55                   	push   %rbp
  403cb1:	48 89 e5             	mov    %rsp,%rbp
  403cb4:	48 83 ec 30          	sub    $0x30,%rsp
  403cb8:	48 89 7d f8          	mov    %rdi,-0x8(%rbp)
  403cbc:	48 8b 45 f8          	mov    -0x8(%rbp),%rax
  403cc0:	48 8b 38             	mov    (%rax),%rdi
  403cc3:	48 8b 70 08          	mov    0x8(%rax),%rsi
  403cc7:	48 89 7d e0          	mov    %rdi,-0x20(%rbp)
  403ccb:	48 89 c7             	mov    %rax,%rdi
  403cce:	48 89 45 d8          	mov    %rax,-0x28(%rbp)
  403cd2:	48 89 75 d0          	mov    %rsi,-0x30(%rbp)
  403cd6:	e8 f5 03 00 00       	callq  4040d0 <_ZNSt12_Vector_baseISt6vectorINSt7__cxx1112basic_stringIcSt11char_traitsIcESaIcEEESaIS6_EESaIS8_EE19_M_get_Tp_allocatorEv>
  403cdb:	48 8b 7d e0          	mov    -0x20(%rbp),%rdi
  403cdf:	48 8b 75 d0          	mov    -0x30(%rbp),%rsi
  403ce3:	48 89 c2             	mov    %rax,%rdx
  403ce6:	e8 b5 03 00 00       	callq  4040a0 <_ZSt8_DestroyIPSt6vectorINSt7__cxx1112basic_stringIcSt11char_traitsIcESaIcEEESaIS6_EES8_EvT_SA_RSaIT0_E>
  403ceb:	e9 00 00 00 00       	jmpq   403cf0 <_ZNSt6vectorIS_INSt7__cxx1112basic_stringIcSt11char_traitsIcESaIcEEESaIS5_EESaIS7_EED2Ev+0x40>
  403cf0:	48 8b 45 d8          	mov    -0x28(%rbp),%rax
  403cf4:	48 89 c7             	mov    %rax,%rdi
  403cf7:	e8 e4 03 00 00       	callq  4040e0 <_ZNSt12_Vector_baseISt6vectorINSt7__cxx1112basic_stringIcSt11char_traitsIcESaIcEEESaIS6_EESaIS8_EED2Ev>
  403cfc:	48 83 c4 30          	add    $0x30,%rsp
  403d00:	5d                   	pop    %rbp
  403d01:	c3                   	retq   
  403d02:	48 89 45 f0          	mov    %rax,-0x10(%rbp)
  403d06:	89 55 ec             	mov    %edx,-0x14(%rbp)
  403d09:	48 8b 45 d8          	mov    -0x28(%rbp),%rax
  403d0d:	48 89 c7             	mov    %rax,%rdi
  403d10:	e8 cb 03 00 00       	callq  4040e0 <_ZNSt12_Vector_baseISt6vectorINSt7__cxx1112basic_stringIcSt11char_traitsIcESaIcEEESaIS6_EESaIS8_EED2Ev>
  403d15:	48 8b 7d f0          	mov    -0x10(%rbp),%rdi
  403d19:	e8 32 03 00 00       	callq  404050 <__clang_call_terminate>
  403d1e:	66 90                	xchg   %ax,%ax

0000000000403d20 <_ZN5Eigen6MatrixIdLin1ELin1ELi0ELin1ELin1EEC2IiiEERKT_RKT0_>:
  403d20:	55                   	push   %rbp
  403d21:	48 89 e5             	mov    %rsp,%rbp
  403d24:	48 83 ec 30          	sub    $0x30,%rsp
  403d28:	48 89 7d f8          	mov    %rdi,-0x8(%rbp)
  403d2c:	48 89 75 f0          	mov    %rsi,-0x10(%rbp)
  403d30:	48 89 55 e8          	mov    %rdx,-0x18(%rbp)
  403d34:	48 8b 45 f8          	mov    -0x8(%rbp),%rax
  403d38:	48 89 c7             	mov    %rax,%rdi
  403d3b:	48 89 45 d0          	mov    %rax,-0x30(%rbp)
  403d3f:	e8 9c 77 00 00       	callq  40b4e0 <_ZN5Eigen15PlainObjectBaseINS_6MatrixIdLin1ELin1ELi0ELin1ELin1EEEEC2Ev>
  403d44:	e8 c7 77 00 00       	callq  40b510 <_ZN5Eigen15PlainObjectBaseINS_6MatrixIdLin1ELin1ELi0ELin1ELin1EEEE22_check_template_paramsEv>
  403d49:	e9 00 00 00 00       	jmpq   403d4e <_ZN5Eigen6MatrixIdLin1ELin1ELi0ELin1ELin1EEC2IiiEERKT_RKT0_+0x2e>
  403d4e:	48 8b 45 f0          	mov    -0x10(%rbp),%rax
  403d52:	48 63 30             	movslq (%rax),%rsi
  403d55:	48 8b 45 e8          	mov    -0x18(%rbp),%rax
  403d59:	48 63 10             	movslq (%rax),%rdx
  403d5c:	31 c9                	xor    %ecx,%ecx
  403d5e:	48 8b 7d d0          	mov    -0x30(%rbp),%rdi
  403d62:	e8 b9 77 00 00       	callq  40b520 <_ZN5Eigen15PlainObjectBaseINS_6MatrixIdLin1ELin1ELi0ELin1ELin1EEEE6_init2IiiEEvllPNS_8internal9enable_ifILb1ET_E4typeE>
  403d67:	e9 00 00 00 00       	jmpq   403d6c <_ZN5Eigen6MatrixIdLin1ELin1ELi0ELin1ELin1EEC2IiiEERKT_RKT0_+0x4c>
  403d6c:	48 83 c4 30          	add    $0x30,%rsp
  403d70:	5d                   	pop    %rbp
  403d71:	c3                   	retq   
  403d72:	48 89 45 e0          	mov    %rax,-0x20(%rbp)
  403d76:	89 55 dc             	mov    %edx,-0x24(%rbp)
  403d79:	48 8b 45 d0          	mov    -0x30(%rbp),%rax
  403d7d:	48 89 c7             	mov    %rax,%rdi
  403d80:	e8 3b 02 00 00       	callq  403fc0 <_ZN5Eigen15PlainObjectBaseINS_6MatrixIdLin1ELin1ELi0ELin1ELin1EEEED2Ev>
  403d85:	48 8b 7d e0          	mov    -0x20(%rbp),%rdi
  403d89:	e8 52 f6 ff ff       	callq  4033e0 <_Unwind_Resume@plt>
  403d8e:	66 90                	xchg   %ax,%ax

0000000000403d90 <_ZNSt6vectorIS_INSt7__cxx1112basic_stringIcSt11char_traitsIcESaIcEEESaIS5_EESaIS7_EEixEm>:
  403d90:	55                   	push   %rbp
  403d91:	48 89 e5             	mov    %rsp,%rbp
  403d94:	48 89 7d f8          	mov    %rdi,-0x8(%rbp)
  403d98:	48 89 75 f0          	mov    %rsi,-0x10(%rbp)
  403d9c:	48 8b 45 f8          	mov    -0x8(%rbp),%rax
  403da0:	48 8b 00             	mov    (%rax),%rax
  403da3:	48 69 4d f0 18 00 00 	imul   $0x18,-0x10(%rbp),%rcx
  403daa:	00 
  403dab:	48 01 c8             	add    %rcx,%rax
  403dae:	5d                   	pop    %rbp
  403daf:	c3                   	retq   

0000000000403db0 <_ZNSt6vectorINSt7__cxx1112basic_stringIcSt11char_traitsIcESaIcEEESaIS5_EEixEm>:
  403db0:	55                   	push   %rbp
  403db1:	48 89 e5             	mov    %rsp,%rbp
  403db4:	48 89 7d f8          	mov    %rdi,-0x8(%rbp)
  403db8:	48 89 75 f0          	mov    %rsi,-0x10(%rbp)
  403dbc:	48 8b 45 f8          	mov    -0x8(%rbp),%rax
  403dc0:	48 8b 00             	mov    (%rax),%rax
  403dc3:	48 8b 4d f0          	mov    -0x10(%rbp),%rcx
  403dc7:	48 c1 e1 05          	shl    $0x5,%rcx
  403dcb:	48 01 c8             	add    %rcx,%rax
  403dce:	5d                   	pop    %rbp
  403dcf:	c3                   	retq   

0000000000403dd0 <_ZN5Eigen15DenseCoeffsBaseINS_6MatrixIdLin1ELin1ELi0ELin1ELin1EEELi1EEclEll>:
  403dd0:	55                   	push   %rbp
  403dd1:	48 89 e5             	mov    %rsp,%rbp
  403dd4:	48 83 ec 20          	sub    $0x20,%rsp
  403dd8:	48 89 7d f8          	mov    %rdi,-0x8(%rbp)
  403ddc:	48 89 75 f0          	mov    %rsi,-0x10(%rbp)
  403de0:	48 89 55 e8          	mov    %rdx,-0x18(%rbp)
  403de4:	48 8b 7d f8          	mov    -0x8(%rbp),%rdi
  403de8:	48 8b 75 f0          	mov    -0x10(%rbp),%rsi
  403dec:	48 8b 55 e8          	mov    -0x18(%rbp),%rdx
  403df0:	e8 db 7a 00 00       	callq  40b8d0 <_ZN5Eigen15DenseCoeffsBaseINS_6MatrixIdLin1ELin1ELi0ELin1ELin1EEELi1EE8coeffRefEll>
  403df5:	48 83 c4 20          	add    $0x20,%rsp
  403df9:	5d                   	pop    %rbp
  403dfa:	c3                   	retq   
  403dfb:	0f 1f 44 00 00       	nopl   0x0(%rax,%rax,1)

0000000000403e00 <_ZN5Eigen9DenseBaseINS_6MatrixIdLin1ELin1ELi0ELin1ELin1EEEE9transposeEv>:
  403e00:	55                   	push   %rbp
  403e01:	48 89 e5             	mov    %rsp,%rbp
  403e04:	48 83 ec 10          	sub    $0x10,%rsp
  403e08:	48 89 7d f0          	mov    %rdi,-0x10(%rbp)
  403e0c:	48 8b 45 f0          	mov    -0x10(%rbp),%rax
  403e10:	48 89 c7             	mov    %rax,%rdi
  403e13:	e8 38 7b 00 00       	callq  40b950 <_ZN5Eigen9EigenBaseINS_6MatrixIdLin1ELin1ELi0ELin1ELin1EEEE7derivedEv>
  403e18:	48 8d 7d f8          	lea    -0x8(%rbp),%rdi
  403e1c:	48 89 c6             	mov    %rax,%rsi
  403e1f:	e8 7c 7e 00 00       	callq  40bca0 <_ZN5Eigen9TransposeINS_6MatrixIdLin1ELin1ELi0ELin1ELin1EEEEC2ERS2_>
  403e24:	48 8b 45 f8          	mov    -0x8(%rbp),%rax
  403e28:	48 83 c4 10          	add    $0x10,%rsp
  403e2c:	5d                   	pop    %rbp
  403e2d:	c3                   	retq   
  403e2e:	66 90                	xchg   %ax,%ax

0000000000403e30 <_ZN5Eigen6MatrixIdLin1ELin1ELi0ELin1ELin1EEC2INS_9TransposeIS1_EEEERKNS_9EigenBaseIT_EE>:
  403e30:	55                   	push   %rbp
  403e31:	48 89 e5             	mov    %rsp,%rbp
  403e34:	48 83 ec 20          	sub    $0x20,%rsp
  403e38:	48 89 7d f8          	mov    %rdi,-0x8(%rbp)
  403e3c:	48 89 75 f0          	mov    %rsi,-0x10(%rbp)
  403e40:	48 8b 45 f8          	mov    -0x8(%rbp),%rax
  403e44:	48 8b 7d f0          	mov    -0x10(%rbp),%rdi
  403e48:	48 89 45 e8          	mov    %rax,-0x18(%rbp)
  403e4c:	e8 df 7e 00 00       	callq  40bd30 <_ZNK5Eigen9EigenBaseINS_9TransposeINS_6MatrixIdLin1ELin1ELi0ELin1ELin1EEEEEE7derivedEv>
  403e51:	48 8b 7d e8          	mov    -0x18(%rbp),%rdi
  403e55:	48 89 c6             	mov    %rax,%rsi
  403e58:	e8 e3 7e 00 00       	callq  40bd40 <_ZN5Eigen15PlainObjectBaseINS_6MatrixIdLin1ELin1ELi0ELin1ELin1EEEEC2INS_9TransposeIS2_EEEERKNS_9DenseBaseIT_EE>
  403e5d:	48 83 c4 20          	add    $0x20,%rsp
  403e61:	5d                   	pop    %rbp
  403e62:	c3                   	retq   
  403e63:	66 2e 0f 1f 84 00 00 	nopw   %cs:0x0(%rax,%rax,1)
  403e6a:	00 00 00 
  403e6d:	0f 1f 00             	nopl   (%rax)

0000000000403e70 <_ZN5Eigen6MatrixIdLin1ELin1ELi0ELin1ELin1EED2Ev>:
  403e70:	55                   	push   %rbp
  403e71:	48 89 e5             	mov    %rsp,%rbp
  403e74:	48 83 ec 10          	sub    $0x10,%rsp
  403e78:	48 89 7d f8          	mov    %rdi,-0x8(%rbp)
  403e7c:	48 8b 45 f8          	mov    -0x8(%rbp),%rax
  403e80:	48 89 c7             	mov    %rax,%rdi
  403e83:	e8 38 01 00 00       	callq  403fc0 <_ZN5Eigen15PlainObjectBaseINS_6MatrixIdLin1ELin1ELi0ELin1ELin1EEEED2Ev>
  403e88:	48 83 c4 10          	add    $0x10,%rsp
  403e8c:	5d                   	pop    %rbp
  403e8d:	c3                   	retq   
  403e8e:	66 90                	xchg   %ax,%ax

0000000000403e90 <_ZNSt12_Vector_baseISt6vectorINSt7__cxx1112basic_stringIcSt11char_traitsIcESaIcEEESaIS6_EESaIS8_EEC2Ev>:
  403e90:	55                   	push   %rbp
  403e91:	48 89 e5             	mov    %rsp,%rbp
  403e94:	48 83 ec 10          	sub    $0x10,%rsp
  403e98:	48 89 7d f8          	mov    %rdi,-0x8(%rbp)
  403e9c:	48 8b 7d f8          	mov    -0x8(%rbp),%rdi
  403ea0:	e8 0b 00 00 00       	callq  403eb0 <_ZNSt12_Vector_baseISt6vectorINSt7__cxx1112basic_stringIcSt11char_traitsIcESaIcEEESaIS6_EESaIS8_EE12_Vector_implC2Ev>
  403ea5:	48 83 c4 10          	add    $0x10,%rsp
  403ea9:	5d                   	pop    %rbp
  403eaa:	c3                   	retq   
  403eab:	0f 1f 44 00 00       	nopl   0x0(%rax,%rax,1)

0000000000403eb0 <_ZNSt12_Vector_baseISt6vectorINSt7__cxx1112basic_stringIcSt11char_traitsIcESaIcEEESaIS6_EESaIS8_EE12_Vector_implC2Ev>:
  403eb0:	55                   	push   %rbp
  403eb1:	48 89 e5             	mov    %rsp,%rbp
  403eb4:	48 83 ec 10          	sub    $0x10,%rsp
  403eb8:	48 89 7d f8          	mov    %rdi,-0x8(%rbp)
  403ebc:	48 8b 45 f8          	mov    -0x8(%rbp),%rax
  403ec0:	48 89 c1             	mov    %rax,%rcx
  403ec3:	48 89 cf             	mov    %rcx,%rdi
  403ec6:	48 89 45 f0          	mov    %rax,-0x10(%rbp)
  403eca:	e8 21 00 00 00       	callq  403ef0 <_ZNSaISt6vectorINSt7__cxx1112basic_stringIcSt11char_traitsIcESaIcEEESaIS5_EEEC2Ev>
  403ecf:	48 8b 45 f0          	mov    -0x10(%rbp),%rax
  403ed3:	48 89 c7             	mov    %rax,%rdi
  403ed6:	e8 35 00 00 00       	callq  403f10 <_ZNSt12_Vector_baseISt6vectorINSt7__cxx1112basic_stringIcSt11char_traitsIcESaIcEEESaIS6_EESaIS8_EE17_Vector_impl_dataC2Ev>
  403edb:	48 83 c4 10          	add    $0x10,%rsp
  403edf:	5d                   	pop    %rbp
  403ee0:	c3                   	retq   
  403ee1:	66 2e 0f 1f 84 00 00 	nopw   %cs:0x0(%rax,%rax,1)
  403ee8:	00 00 00 
  403eeb:	0f 1f 44 00 00       	nopl   0x0(%rax,%rax,1)

0000000000403ef0 <_ZNSaISt6vectorINSt7__cxx1112basic_stringIcSt11char_traitsIcESaIcEEESaIS5_EEEC2Ev>:
  403ef0:	55                   	push   %rbp
  403ef1:	48 89 e5             	mov    %rsp,%rbp
  403ef4:	48 83 ec 10          	sub    $0x10,%rsp
  403ef8:	48 89 7d f8          	mov    %rdi,-0x8(%rbp)
  403efc:	48 8b 45 f8          	mov    -0x8(%rbp),%rax
  403f00:	48 89 c7             	mov    %rax,%rdi
  403f03:	e8 38 00 00 00       	callq  403f40 <_ZN9__gnu_cxx13new_allocatorISt6vectorINSt7__cxx1112basic_stringIcSt11char_traitsIcESaIcEEESaIS7_EEEC2Ev>
  403f08:	48 83 c4 10          	add    $0x10,%rsp
  403f0c:	5d                   	pop    %rbp
  403f0d:	c3                   	retq   
  403f0e:	66 90                	xchg   %ax,%ax

0000000000403f10 <_ZNSt12_Vector_baseISt6vectorINSt7__cxx1112basic_stringIcSt11char_traitsIcESaIcEEESaIS6_EESaIS8_EE17_Vector_impl_dataC2Ev>:
  403f10:	55                   	push   %rbp
  403f11:	48 89 e5             	mov    %rsp,%rbp
  403f14:	48 89 7d f8          	mov    %rdi,-0x8(%rbp)
  403f18:	48 8b 45 f8          	mov    -0x8(%rbp),%rax
  403f1c:	48 c7 00 00 00 00 00 	movq   $0x0,(%rax)
  403f23:	48 c7 40 08 00 00 00 	movq   $0x0,0x8(%rax)
  403f2a:	00 
  403f2b:	48 c7 40 10 00 00 00 	movq   $0x0,0x10(%rax)
  403f32:	00 
  403f33:	5d                   	pop    %rbp
  403f34:	c3                   	retq   
  403f35:	66 2e 0f 1f 84 00 00 	nopw   %cs:0x0(%rax,%rax,1)
  403f3c:	00 00 00 
  403f3f:	90                   	nop

0000000000403f40 <_ZN9__gnu_cxx13new_allocatorISt6vectorINSt7__cxx1112basic_stringIcSt11char_traitsIcESaIcEEESaIS7_EEEC2Ev>:
  403f40:	55                   	push   %rbp
  403f41:	48 89 e5             	mov    %rsp,%rbp
  403f44:	48 89 7d f8          	mov    %rdi,-0x8(%rbp)
  403f48:	5d                   	pop    %rbp
  403f49:	c3                   	retq   
  403f4a:	66 0f 1f 44 00 00    	nopw   0x0(%rax,%rax,1)

0000000000403f50 <_ZNSt12_Vector_baseINSt7__cxx1112basic_stringIcSt11char_traitsIcESaIcEEESaIS5_EEC2Ev>:
  403f50:	55                   	push   %rbp
  403f51:	48 89 e5             	mov    %rsp,%rbp
  403f54:	48 83 ec 10          	sub    $0x10,%rsp
  403f58:	48 89 7d f8          	mov    %rdi,-0x8(%rbp)
  403f5c:	48 8b 7d f8          	mov    -0x8(%rbp),%rdi
  403f60:	e8 0b 00 00 00       	callq  403f70 <_ZNSt12_Vector_baseINSt7__cxx1112basic_stringIcSt11char_traitsIcESaIcEEESaIS5_EE12_Vector_implC2Ev>
  403f65:	48 83 c4 10          	add    $0x10,%rsp
  403f69:	5d                   	pop    %rbp
  403f6a:	c3                   	retq   
  403f6b:	0f 1f 44 00 00       	nopl   0x0(%rax,%rax,1)

0000000000403f70 <_ZNSt12_Vector_baseINSt7__cxx1112basic_stringIcSt11char_traitsIcESaIcEEESaIS5_EE12_Vector_implC2Ev>:
  403f70:	55                   	push   %rbp
  403f71:	48 89 e5             	mov    %rsp,%rbp
  403f74:	48 83 ec 10          	sub    $0x10,%rsp
  403f78:	48 89 7d f8          	mov    %rdi,-0x8(%rbp)
  403f7c:	48 8b 45 f8          	mov    -0x8(%rbp),%rax
  403f80:	48 89 c1             	mov    %rax,%rcx
  403f83:	48 89 cf             	mov    %rcx,%rdi
  403f86:	48 89 45 f0          	mov    %rax,-0x10(%rbp)
  403f8a:	e8 21 22 00 00       	callq  4061b0 <_ZNSaINSt7__cxx1112basic_stringIcSt11char_traitsIcESaIcEEEEC2Ev>
  403f8f:	48 8b 45 f0          	mov    -0x10(%rbp),%rax
  403f93:	48 89 c7             	mov    %rax,%rdi
  403f96:	e8 55 64 00 00       	callq  40a3f0 <_ZNSt12_Vector_baseINSt7__cxx1112basic_stringIcSt11char_traitsIcESaIcEEESaIS5_EE17_Vector_impl_dataC2Ev>
  403f9b:	48 83 c4 10          	add    $0x10,%rsp
  403f9f:	5d                   	pop    %rbp
  403fa0:	c3                   	retq   
  403fa1:	66 2e 0f 1f 84 00 00 	nopw   %cs:0x0(%rax,%rax,1)
  403fa8:	00 00 00 
  403fab:	0f 1f 44 00 00       	nopl   0x0(%rax,%rax,1)

0000000000403fb0 <_ZN9__gnu_cxx13new_allocatorINSt7__cxx1112basic_stringIcSt11char_traitsIcESaIcEEEEC2Ev>:
  403fb0:	55                   	push   %rbp
  403fb1:	48 89 e5             	mov    %rsp,%rbp
  403fb4:	48 89 7d f8          	mov    %rdi,-0x8(%rbp)
  403fb8:	5d                   	pop    %rbp
  403fb9:	c3                   	retq   
  403fba:	66 0f 1f 44 00 00    	nopw   0x0(%rax,%rax,1)

0000000000403fc0 <_ZN5Eigen15PlainObjectBaseINS_6MatrixIdLin1ELin1ELi0ELin1ELin1EEEED2Ev>:
  403fc0:	55                   	push   %rbp
  403fc1:	48 89 e5             	mov    %rsp,%rbp
  403fc4:	48 83 ec 10          	sub    $0x10,%rsp
  403fc8:	48 89 7d f8          	mov    %rdi,-0x8(%rbp)
  403fcc:	48 8b 7d f8          	mov    -0x8(%rbp),%rdi
  403fd0:	e8 0b 00 00 00       	callq  403fe0 <_ZN5Eigen12DenseStorageIdLin1ELin1ELin1ELi0EED2Ev>
  403fd5:	48 83 c4 10          	add    $0x10,%rsp
  403fd9:	5d                   	pop    %rbp
  403fda:	c3                   	retq   
  403fdb:	0f 1f 44 00 00       	nopl   0x0(%rax,%rax,1)

0000000000403fe0 <_ZN5Eigen12DenseStorageIdLin1ELin1ELin1ELi0EED2Ev>:
  403fe0:	55                   	push   %rbp
  403fe1:	48 89 e5             	mov    %rsp,%rbp
  403fe4:	48 83 ec 10          	sub    $0x10,%rsp
  403fe8:	48 89 7d f8          	mov    %rdi,-0x8(%rbp)
  403fec:	48 8b 45 f8          	mov    -0x8(%rbp),%rax
  403ff0:	48 8b 38             	mov    (%rax),%rdi
  403ff3:	48 8b 48 08          	mov    0x8(%rax),%rcx
  403ff7:	48 8b 40 10          	mov    0x10(%rax),%rax
  403ffb:	48 0f af c8          	imul   %rax,%rcx
  403fff:	48 89 ce             	mov    %rcx,%rsi
  404002:	e8 19 00 00 00       	callq  404020 <_ZN5Eigen8internal31conditional_aligned_delete_autoIdLb1EEEvPT_m>
  404007:	e9 00 00 00 00       	jmpq   40400c <_ZN5Eigen12DenseStorageIdLin1ELin1ELin1ELi0EED2Ev+0x2c>
  40400c:	48 83 c4 10          	add    $0x10,%rsp
  404010:	5d                   	pop    %rbp
  404011:	c3                   	retq   
  404012:	48 89 c7             	mov    %rax,%rdi
  404015:	89 55 f4             	mov    %edx,-0xc(%rbp)
  404018:	e8 33 00 00 00       	callq  404050 <__clang_call_terminate>
  40401d:	0f 1f 00             	nopl   (%rax)

0000000000404020 <_ZN5Eigen8internal31conditional_aligned_delete_autoIdLb1EEEvPT_m>:
  404020:	55                   	push   %rbp
  404021:	48 89 e5             	mov    %rsp,%rbp
  404024:	48 83 ec 10          	sub    $0x10,%rsp
  404028:	48 89 7d f8          	mov    %rdi,-0x8(%rbp)
  40402c:	48 89 75 f0          	mov    %rsi,-0x10(%rbp)
  404030:	48 8b 45 f8          	mov    -0x8(%rbp),%rax
  404034:	48 89 c7             	mov    %rax,%rdi
  404037:	e8 24 00 00 00       	callq  404060 <_ZN5Eigen8internal24conditional_aligned_freeILb1EEEvPv>
  40403c:	48 83 c4 10          	add    $0x10,%rsp
  404040:	5d                   	pop    %rbp
  404041:	c3                   	retq   
  404042:	66 2e 0f 1f 84 00 00 	nopw   %cs:0x0(%rax,%rax,1)
  404049:	00 00 00 
  40404c:	0f 1f 40 00          	nopl   0x0(%rax)

0000000000404050 <__clang_call_terminate>:
  404050:	50                   	push   %rax
  404051:	e8 4a f0 ff ff       	callq  4030a0 <__cxa_begin_catch@plt>
  404056:	48 89 04 24          	mov    %rax,(%rsp)
  40405a:	e8 21 f0 ff ff       	callq  403080 <_ZSt9terminatev@plt>
  40405f:	90                   	nop

0000000000404060 <_ZN5Eigen8internal24conditional_aligned_freeILb1EEEvPv>:
  404060:	55                   	push   %rbp
  404061:	48 89 e5             	mov    %rsp,%rbp
  404064:	48 83 ec 10          	sub    $0x10,%rsp
  404068:	48 89 7d f8          	mov    %rdi,-0x8(%rbp)
  40406c:	48 8b 7d f8          	mov    -0x8(%rbp),%rdi
  404070:	e8 0b 00 00 00       	callq  404080 <_ZN5Eigen8internal12aligned_freeEPv>
  404075:	48 83 c4 10          	add    $0x10,%rsp
  404079:	5d                   	pop    %rbp
  40407a:	c3                   	retq   
  40407b:	0f 1f 44 00 00       	nopl   0x0(%rax,%rax,1)

0000000000404080 <_ZN5Eigen8internal12aligned_freeEPv>:
  404080:	55                   	push   %rbp
  404081:	48 89 e5             	mov    %rsp,%rbp
  404084:	48 83 ec 10          	sub    $0x10,%rsp
  404088:	48 89 7d f8          	mov    %rdi,-0x8(%rbp)
  40408c:	48 8b 7d f8          	mov    -0x8(%rbp),%rdi
  404090:	e8 2b f2 ff ff       	callq  4032c0 <free@plt>
  404095:	48 83 c4 10          	add    $0x10,%rsp
  404099:	5d                   	pop    %rbp
  40409a:	c3                   	retq   
  40409b:	0f 1f 44 00 00       	nopl   0x0(%rax,%rax,1)

00000000004040a0 <_ZSt8_DestroyIPSt6vectorINSt7__cxx1112basic_stringIcSt11char_traitsIcESaIcEEESaIS6_EES8_EvT_SA_RSaIT0_E>:
  4040a0:	55                   	push   %rbp
  4040a1:	48 89 e5             	mov    %rsp,%rbp
  4040a4:	48 83 ec 20          	sub    $0x20,%rsp
  4040a8:	48 89 7d f8          	mov    %rdi,-0x8(%rbp)
  4040ac:	48 89 75 f0          	mov    %rsi,-0x10(%rbp)
  4040b0:	48 89 55 e8          	mov    %rdx,-0x18(%rbp)
  4040b4:	48 8b 7d f8          	mov    -0x8(%rbp),%rdi
  4040b8:	48 8b 75 f0          	mov    -0x10(%rbp),%rsi
  4040bc:	e8 8f 00 00 00       	callq  404150 <_ZSt8_DestroyIPSt6vectorINSt7__cxx1112basic_stringIcSt11char_traitsIcESaIcEEESaIS6_EEEvT_SA_>
  4040c1:	48 83 c4 20          	add    $0x20,%rsp
  4040c5:	5d                   	pop    %rbp
  4040c6:	c3                   	retq   
  4040c7:	66 0f 1f 84 00 00 00 	nopw   0x0(%rax,%rax,1)
  4040ce:	00 00 

00000000004040d0 <_ZNSt12_Vector_baseISt6vectorINSt7__cxx1112basic_stringIcSt11char_traitsIcESaIcEEESaIS6_EESaIS8_EE19_M_get_Tp_allocatorEv>:
  4040d0:	55                   	push   %rbp
  4040d1:	48 89 e5             	mov    %rsp,%rbp
  4040d4:	48 89 7d f8          	mov    %rdi,-0x8(%rbp)
  4040d8:	48 8b 45 f8          	mov    -0x8(%rbp),%rax
  4040dc:	5d                   	pop    %rbp
  4040dd:	c3                   	retq   
  4040de:	66 90                	xchg   %ax,%ax

00000000004040e0 <_ZNSt12_Vector_baseISt6vectorINSt7__cxx1112basic_stringIcSt11char_traitsIcESaIcEEESaIS6_EESaIS8_EED2Ev>:
  4040e0:	55                   	push   %rbp
  4040e1:	48 89 e5             	mov    %rsp,%rbp
  4040e4:	48 83 ec 20          	sub    $0x20,%rsp
  4040e8:	48 89 7d f8          	mov    %rdi,-0x8(%rbp)
  4040ec:	48 8b 45 f8          	mov    -0x8(%rbp),%rax
  4040f0:	48 8b 08             	mov    (%rax),%rcx
  4040f3:	48 8b 50 10          	mov    0x10(%rax),%rdx
  4040f7:	48 29 ca             	sub    %rcx,%rdx
  4040fa:	48 c1 fa 03          	sar    $0x3,%rdx
  4040fe:	48 be ab aa aa aa aa 	movabs $0xaaaaaaaaaaaaaaab,%rsi
  404105:	aa aa aa 
  404108:	48 0f af d6          	imul   %rsi,%rdx
  40410c:	48 89 c7             	mov    %rax,%rdi
  40410f:	48 89 ce             	mov    %rcx,%rsi
  404112:	48 89 45 e0          	mov    %rax,-0x20(%rbp)
  404116:	e8 e5 00 00 00       	callq  404200 <_ZNSt12_Vector_baseISt6vectorINSt7__cxx1112basic_stringIcSt11char_traitsIcESaIcEEESaIS6_EESaIS8_EE13_M_deallocateEPS8_m>
  40411b:	e9 00 00 00 00       	jmpq   404120 <_ZNSt12_Vector_baseISt6vectorINSt7__cxx1112basic_stringIcSt11char_traitsIcESaIcEEESaIS6_EESaIS8_EED2Ev+0x40>
  404120:	48 8b 7d e0          	mov    -0x20(%rbp),%rdi
  404124:	e8 27 01 00 00       	callq  404250 <_ZNSt12_Vector_baseISt6vectorINSt7__cxx1112basic_stringIcSt11char_traitsIcESaIcEEESaIS6_EESaIS8_EE12_Vector_implD2Ev>
  404129:	48 83 c4 20          	add    $0x20,%rsp
  40412d:	5d                   	pop    %rbp
  40412e:	c3                   	retq   
  40412f:	48 89 45 f0          	mov    %rax,-0x10(%rbp)
  404133:	89 55 ec             	mov    %edx,-0x14(%rbp)
  404136:	48 8b 7d e0          	mov    -0x20(%rbp),%rdi
  40413a:	e8 11 01 00 00       	callq  404250 <_ZNSt12_Vector_baseISt6vectorINSt7__cxx1112basic_stringIcSt11char_traitsIcESaIcEEESaIS6_EESaIS8_EE12_Vector_implD2Ev>
  40413f:	48 8b 7d f0          	mov    -0x10(%rbp),%rdi
  404143:	e8 08 ff ff ff       	callq  404050 <__clang_call_terminate>
  404148:	0f 1f 84 00 00 00 00 	nopl   0x0(%rax,%rax,1)
  40414f:	00 

0000000000404150 <_ZSt8_DestroyIPSt6vectorINSt7__cxx1112basic_stringIcSt11char_traitsIcESaIcEEESaIS6_EEEvT_SA_>:
  404150:	55                   	push   %rbp
  404151:	48 89 e5             	mov    %rsp,%rbp
  404154:	48 83 ec 10          	sub    $0x10,%rsp
  404158:	48 89 7d f8          	mov    %rdi,-0x8(%rbp)
  40415c:	48 89 75 f0          	mov    %rsi,-0x10(%rbp)
  404160:	48 8b 7d f8          	mov    -0x8(%rbp),%rdi
  404164:	48 8b 75 f0          	mov    -0x10(%rbp),%rsi
  404168:	e8 13 00 00 00       	callq  404180 <_ZNSt12_Destroy_auxILb0EE9__destroyIPSt6vectorINSt7__cxx1112basic_stringIcSt11char_traitsIcESaIcEEESaIS8_EEEEvT_SC_>
  40416d:	48 83 c4 10          	add    $0x10,%rsp
  404171:	5d                   	pop    %rbp
  404172:	c3                   	retq   
  404173:	66 2e 0f 1f 84 00 00 	nopw   %cs:0x0(%rax,%rax,1)
  40417a:	00 00 00 
  40417d:	0f 1f 00             	nopl   (%rax)

0000000000404180 <_ZNSt12_Destroy_auxILb0EE9__destroyIPSt6vectorINSt7__cxx1112basic_stringIcSt11char_traitsIcESaIcEEESaIS8_EEEEvT_SC_>:
  404180:	55                   	push   %rbp
  404181:	48 89 e5             	mov    %rsp,%rbp
  404184:	48 83 ec 10          	sub    $0x10,%rsp
  404188:	48 89 7d f8          	mov    %rdi,-0x8(%rbp)
  40418c:	48 89 75 f0          	mov    %rsi,-0x10(%rbp)
  404190:	48 8b 45 f8          	mov    -0x8(%rbp),%rax
  404194:	48 3b 45 f0          	cmp    -0x10(%rbp),%rax
  404198:	0f 84 24 00 00 00    	je     4041c2 <_ZNSt12_Destroy_auxILb0EE9__destroyIPSt6vectorINSt7__cxx1112basic_stringIcSt11char_traitsIcESaIcEEESaIS8_EEEEvT_SC_+0x42>
  40419e:	48 8b 7d f8          	mov    -0x8(%rbp),%rdi
  4041a2:	e8 49 00 00 00       	callq  4041f0 <_ZSt11__addressofISt6vectorINSt7__cxx1112basic_stringIcSt11char_traitsIcESaIcEEESaIS6_EEEPT_RS9_>
  4041a7:	48 89 c7             	mov    %rax,%rdi
  4041aa:	e8 21 00 00 00       	callq  4041d0 <_ZSt8_DestroyISt6vectorINSt7__cxx1112basic_stringIcSt11char_traitsIcESaIcEEESaIS6_EEEvPT_>
  4041af:	48 8b 45 f8          	mov    -0x8(%rbp),%rax
  4041b3:	48 05 18 00 00 00    	add    $0x18,%rax
  4041b9:	48 89 45 f8          	mov    %rax,-0x8(%rbp)
  4041bd:	e9 ce ff ff ff       	jmpq   404190 <_ZNSt12_Destroy_auxILb0EE9__destroyIPSt6vectorINSt7__cxx1112basic_stringIcSt11char_traitsIcESaIcEEESaIS8_EEEEvT_SC_+0x10>
  4041c2:	48 83 c4 10          	add    $0x10,%rsp
  4041c6:	5d                   	pop    %rbp
  4041c7:	c3                   	retq   
  4041c8:	0f 1f 84 00 00 00 00 	nopl   0x0(%rax,%rax,1)
  4041cf:	00 

00000000004041d0 <_ZSt8_DestroyISt6vectorINSt7__cxx1112basic_stringIcSt11char_traitsIcESaIcEEESaIS6_EEEvPT_>:
  4041d0:	55                   	push   %rbp
  4041d1:	48 89 e5             	mov    %rsp,%rbp
  4041d4:	48 83 ec 10          	sub    $0x10,%rsp
  4041d8:	48 89 7d f8          	mov    %rdi,-0x8(%rbp)
  4041dc:	48 8b 7d f8          	mov    -0x8(%rbp),%rdi
  4041e0:	e8 5b fa ff ff       	callq  403c40 <_ZNSt6vectorINSt7__cxx1112basic_stringIcSt11char_traitsIcESaIcEEESaIS5_EED2Ev>
  4041e5:	48 83 c4 10          	add    $0x10,%rsp
  4041e9:	5d                   	pop    %rbp
  4041ea:	c3                   	retq   
  4041eb:	0f 1f 44 00 00       	nopl   0x0(%rax,%rax,1)

00000000004041f0 <_ZSt11__addressofISt6vectorINSt7__cxx1112basic_stringIcSt11char_traitsIcESaIcEEESaIS6_EEEPT_RS9_>:
  4041f0:	55                   	push   %rbp
  4041f1:	48 89 e5             	mov    %rsp,%rbp
  4041f4:	48 89 7d f8          	mov    %rdi,-0x8(%rbp)
  4041f8:	48 8b 45 f8          	mov    -0x8(%rbp),%rax
  4041fc:	5d                   	pop    %rbp
  4041fd:	c3                   	retq   
  4041fe:	66 90                	xchg   %ax,%ax

0000000000404200 <_ZNSt12_Vector_baseISt6vectorINSt7__cxx1112basic_stringIcSt11char_traitsIcESaIcEEESaIS6_EESaIS8_EE13_M_deallocateEPS8_m>:
  404200:	55                   	push   %rbp
  404201:	48 89 e5             	mov    %rsp,%rbp
  404204:	48 83 ec 20          	sub    $0x20,%rsp
  404208:	48 89 7d f8          	mov    %rdi,-0x8(%rbp)
  40420c:	48 89 75 f0          	mov    %rsi,-0x10(%rbp)
  404210:	48 89 55 e8          	mov    %rdx,-0x18(%rbp)
  404214:	48 8b 45 f8          	mov    -0x8(%rbp),%rax
  404218:	48 83 7d f0 00       	cmpq   $0x0,-0x10(%rbp)
  40421d:	48 89 45 e0          	mov    %rax,-0x20(%rbp)
  404221:	0f 84 14 00 00 00    	je     40423b <_ZNSt12_Vector_baseISt6vectorINSt7__cxx1112basic_stringIcSt11char_traitsIcESaIcEEESaIS6_EESaIS8_EE13_M_deallocateEPS8_m+0x3b>
  404227:	48 8b 45 e0          	mov    -0x20(%rbp),%rax
  40422b:	48 8b 75 f0          	mov    -0x10(%rbp),%rsi
  40422f:	48 8b 55 e8          	mov    -0x18(%rbp),%rdx
  404233:	48 89 c7             	mov    %rax,%rdi
  404236:	e8 35 00 00 00       	callq  404270 <_ZNSt16allocator_traitsISaISt6vectorINSt7__cxx1112basic_stringIcSt11char_traitsIcESaIcEEESaIS6_EEEE10deallocateERS9_PS8_m>
  40423b:	48 83 c4 20          	add    $0x20,%rsp
  40423f:	5d                   	pop    %rbp
  404240:	c3                   	retq   
  404241:	66 2e 0f 1f 84 00 00 	nopw   %cs:0x0(%rax,%rax,1)
  404248:	00 00 00 
  40424b:	0f 1f 44 00 00       	nopl   0x0(%rax,%rax,1)

0000000000404250 <_ZNSt12_Vector_baseISt6vectorINSt7__cxx1112basic_stringIcSt11char_traitsIcESaIcEEESaIS6_EESaIS8_EE12_Vector_implD2Ev>:
  404250:	55                   	push   %rbp
  404251:	48 89 e5             	mov    %rsp,%rbp
  404254:	48 83 ec 10          	sub    $0x10,%rsp
  404258:	48 89 7d f8          	mov    %rdi,-0x8(%rbp)
  40425c:	48 8b 45 f8          	mov    -0x8(%rbp),%rax
  404260:	48 89 c7             	mov    %rax,%rdi
  404263:	e8 68 00 00 00       	callq  4042d0 <_ZNSaISt6vectorINSt7__cxx1112basic_stringIcSt11char_traitsIcESaIcEEESaIS5_EEED2Ev>
  404268:	48 83 c4 10          	add    $0x10,%rsp
  40426c:	5d                   	pop    %rbp
  40426d:	c3                   	retq   
  40426e:	66 90                	xchg   %ax,%ax

0000000000404270 <_ZNSt16allocator_traitsISaISt6vectorINSt7__cxx1112basic_stringIcSt11char_traitsIcESaIcEEESaIS6_EEEE10deallocateERS9_PS8_m>:
  404270:	55                   	push   %rbp
  404271:	48 89 e5             	mov    %rsp,%rbp
  404274:	48 83 ec 20          	sub    $0x20,%rsp
  404278:	48 89 7d f8          	mov    %rdi,-0x8(%rbp)
  40427c:	48 89 75 f0          	mov    %rsi,-0x10(%rbp)
  404280:	48 89 55 e8          	mov    %rdx,-0x18(%rbp)
  404284:	48 8b 45 f8          	mov    -0x8(%rbp),%rax
  404288:	48 8b 75 f0          	mov    -0x10(%rbp),%rsi
  40428c:	48 8b 55 e8          	mov    -0x18(%rbp),%rdx
  404290:	48 89 c7             	mov    %rax,%rdi
  404293:	e8 08 00 00 00       	callq  4042a0 <_ZN9__gnu_cxx13new_allocatorISt6vectorINSt7__cxx1112basic_stringIcSt11char_traitsIcESaIcEEESaIS7_EEE10deallocateEPS9_m>
  404298:	48 83 c4 20          	add    $0x20,%rsp
  40429c:	5d                   	pop    %rbp
  40429d:	c3                   	retq   
  40429e:	66 90                	xchg   %ax,%ax

00000000004042a0 <_ZN9__gnu_cxx13new_allocatorISt6vectorINSt7__cxx1112basic_stringIcSt11char_traitsIcESaIcEEESaIS7_EEE10deallocateEPS9_m>:
  4042a0:	55                   	push   %rbp
  4042a1:	48 89 e5             	mov    %rsp,%rbp
  4042a4:	48 83 ec 20          	sub    $0x20,%rsp
  4042a8:	48 89 7d f8          	mov    %rdi,-0x8(%rbp)
  4042ac:	48 89 75 f0          	mov    %rsi,-0x10(%rbp)
  4042b0:	48 89 55 e8          	mov    %rdx,-0x18(%rbp)
  4042b4:	48 8b 45 f0          	mov    -0x10(%rbp),%rax
  4042b8:	48 89 c7             	mov    %rax,%rdi
  4042bb:	e8 60 ef ff ff       	callq  403220 <_ZdlPv@plt>
  4042c0:	48 83 c4 20          	add    $0x20,%rsp
  4042c4:	5d                   	pop    %rbp
  4042c5:	c3                   	retq   
  4042c6:	66 2e 0f 1f 84 00 00 	nopw   %cs:0x0(%rax,%rax,1)
  4042cd:	00 00 00 

00000000004042d0 <_ZNSaISt6vectorINSt7__cxx1112basic_stringIcSt11char_traitsIcESaIcEEESaIS5_EEED2Ev>:
  4042d0:	55                   	push   %rbp
  4042d1:	48 89 e5             	mov    %rsp,%rbp
  4042d4:	48 83 ec 10          	sub    $0x10,%rsp
  4042d8:	48 89 7d f8          	mov    %rdi,-0x8(%rbp)
  4042dc:	48 8b 45 f8          	mov    -0x8(%rbp),%rax
  4042e0:	48 89 c7             	mov    %rax,%rdi
  4042e3:	e8 08 00 00 00       	callq  4042f0 <_ZN9__gnu_cxx13new_allocatorISt6vectorINSt7__cxx1112basic_stringIcSt11char_traitsIcESaIcEEESaIS7_EEED2Ev>
  4042e8:	48 83 c4 10          	add    $0x10,%rsp
  4042ec:	5d                   	pop    %rbp
  4042ed:	c3                   	retq   
  4042ee:	66 90                	xchg   %ax,%ax

00000000004042f0 <_ZN9__gnu_cxx13new_allocatorISt6vectorINSt7__cxx1112basic_stringIcSt11char_traitsIcESaIcEEESaIS7_EEED2Ev>:
  4042f0:	55                   	push   %rbp
  4042f1:	48 89 e5             	mov    %rsp,%rbp
  4042f4:	48 89 7d f8          	mov    %rdi,-0x8(%rbp)
  4042f8:	5d                   	pop    %rbp
  4042f9:	c3                   	retq   
  4042fa:	66 0f 1f 44 00 00    	nopw   0x0(%rax,%rax,1)

0000000000404300 <_ZSt8_DestroyIPNSt7__cxx1112basic_stringIcSt11char_traitsIcESaIcEEES5_EvT_S7_RSaIT0_E>:
  404300:	55                   	push   %rbp
  404301:	48 89 e5             	mov    %rsp,%rbp
  404304:	48 83 ec 20          	sub    $0x20,%rsp
  404308:	48 89 7d f8          	mov    %rdi,-0x8(%rbp)
  40430c:	48 89 75 f0          	mov    %rsi,-0x10(%rbp)
  404310:	48 89 55 e8          	mov    %rdx,-0x18(%rbp)
  404314:	48 8b 7d f8          	mov    -0x8(%rbp),%rdi
  404318:	48 8b 75 f0          	mov    -0x10(%rbp),%rsi
  40431c:	e8 7f 00 00 00       	callq  4043a0 <_ZSt8_DestroyIPNSt7__cxx1112basic_stringIcSt11char_traitsIcESaIcEEEEvT_S7_>
  404321:	48 83 c4 20          	add    $0x20,%rsp
  404325:	5d                   	pop    %rbp
  404326:	c3                   	retq   
  404327:	66 0f 1f 84 00 00 00 	nopw   0x0(%rax,%rax,1)
  40432e:	00 00 

0000000000404330 <_ZNSt12_Vector_baseINSt7__cxx1112basic_stringIcSt11char_traitsIcESaIcEEESaIS5_EE19_M_get_Tp_allocatorEv>:
  404330:	55                   	push   %rbp
  404331:	48 89 e5             	mov    %rsp,%rbp
  404334:	48 89 7d f8          	mov    %rdi,-0x8(%rbp)
  404338:	48 8b 45 f8          	mov    -0x8(%rbp),%rax
  40433c:	5d                   	pop    %rbp
  40433d:	c3                   	retq   
  40433e:	66 90                	xchg   %ax,%ax

0000000000404340 <_ZNSt12_Vector_baseINSt7__cxx1112basic_stringIcSt11char_traitsIcESaIcEEESaIS5_EED2Ev>:
  404340:	55                   	push   %rbp
  404341:	48 89 e5             	mov    %rsp,%rbp
  404344:	48 83 ec 20          	sub    $0x20,%rsp
  404348:	48 89 7d f8          	mov    %rdi,-0x8(%rbp)
  40434c:	48 8b 45 f8          	mov    -0x8(%rbp),%rax
  404350:	48 8b 08             	mov    (%rax),%rcx
  404353:	48 8b 50 10          	mov    0x10(%rax),%rdx
  404357:	48 29 ca             	sub    %rcx,%rdx
  40435a:	48 c1 fa 05          	sar    $0x5,%rdx
  40435e:	48 89 c7             	mov    %rax,%rdi
  404361:	48 89 ce             	mov    %rcx,%rsi
  404364:	48 89 45 e0          	mov    %rax,-0x20(%rbp)
  404368:	e8 e3 00 00 00       	callq  404450 <_ZNSt12_Vector_baseINSt7__cxx1112basic_stringIcSt11char_traitsIcESaIcEEESaIS5_EE13_M_deallocateEPS5_m>
  40436d:	e9 00 00 00 00       	jmpq   404372 <_ZNSt12_Vector_baseINSt7__cxx1112basic_stringIcSt11char_traitsIcESaIcEEESaIS5_EED2Ev+0x32>
  404372:	48 8b 7d e0          	mov    -0x20(%rbp),%rdi
  404376:	e8 25 01 00 00       	callq  4044a0 <_ZNSt12_Vector_baseINSt7__cxx1112basic_stringIcSt11char_traitsIcESaIcEEESaIS5_EE12_Vector_implD2Ev>
  40437b:	48 83 c4 20          	add    $0x20,%rsp
  40437f:	5d                   	pop    %rbp
  404380:	c3                   	retq   
  404381:	48 89 45 f0          	mov    %rax,-0x10(%rbp)
  404385:	89 55 ec             	mov    %edx,-0x14(%rbp)
  404388:	48 8b 7d e0          	mov    -0x20(%rbp),%rdi
  40438c:	e8 0f 01 00 00       	callq  4044a0 <_ZNSt12_Vector_baseINSt7__cxx1112basic_stringIcSt11char_traitsIcESaIcEEESaIS5_EE12_Vector_implD2Ev>
  404391:	48 8b 7d f0          	mov    -0x10(%rbp),%rdi
  404395:	e8 b6 fc ff ff       	callq  404050 <__clang_call_terminate>
  40439a:	66 0f 1f 44 00 00    	nopw   0x0(%rax,%rax,1)

00000000004043a0 <_ZSt8_DestroyIPNSt7__cxx1112basic_stringIcSt11char_traitsIcESaIcEEEEvT_S7_>:
  4043a0:	55                   	push   %rbp
  4043a1:	48 89 e5             	mov    %rsp,%rbp
  4043a4:	48 83 ec 10          	sub    $0x10,%rsp
  4043a8:	48 89 7d f8          	mov    %rdi,-0x8(%rbp)
  4043ac:	48 89 75 f0          	mov    %rsi,-0x10(%rbp)
  4043b0:	48 8b 7d f8          	mov    -0x8(%rbp),%rdi
  4043b4:	48 8b 75 f0          	mov    -0x10(%rbp),%rsi
  4043b8:	e8 13 00 00 00       	callq  4043d0 <_ZNSt12_Destroy_auxILb0EE9__destroyIPNSt7__cxx1112basic_stringIcSt11char_traitsIcESaIcEEEEEvT_S9_>
  4043bd:	48 83 c4 10          	add    $0x10,%rsp
  4043c1:	5d                   	pop    %rbp
  4043c2:	c3                   	retq   
  4043c3:	66 2e 0f 1f 84 00 00 	nopw   %cs:0x0(%rax,%rax,1)
  4043ca:	00 00 00 
  4043cd:	0f 1f 00             	nopl   (%rax)

00000000004043d0 <_ZNSt12_Destroy_auxILb0EE9__destroyIPNSt7__cxx1112basic_stringIcSt11char_traitsIcESaIcEEEEEvT_S9_>:
  4043d0:	55                   	push   %rbp
  4043d1:	48 89 e5             	mov    %rsp,%rbp
  4043d4:	48 83 ec 10          	sub    $0x10,%rsp
  4043d8:	48 89 7d f8          	mov    %rdi,-0x8(%rbp)
  4043dc:	48 89 75 f0          	mov    %rsi,-0x10(%rbp)
  4043e0:	48 8b 45 f8          	mov    -0x8(%rbp),%rax
  4043e4:	48 3b 45 f0          	cmp    -0x10(%rbp),%rax
  4043e8:	0f 84 24 00 00 00    	je     404412 <_ZNSt12_Destroy_auxILb0EE9__destroyIPNSt7__cxx1112basic_stringIcSt11char_traitsIcESaIcEEEEEvT_S9_+0x42>
  4043ee:	48 8b 7d f8          	mov    -0x8(%rbp),%rdi
  4043f2:	e8 49 00 00 00       	callq  404440 <_ZSt11__addressofINSt7__cxx1112basic_stringIcSt11char_traitsIcESaIcEEEEPT_RS6_>
  4043f7:	48 89 c7             	mov    %rax,%rdi
  4043fa:	e8 21 00 00 00       	callq  404420 <_ZSt8_DestroyINSt7__cxx1112basic_stringIcSt11char_traitsIcESaIcEEEEvPT_>
  4043ff:	48 8b 45 f8          	mov    -0x8(%rbp),%rax
  404403:	48 05 20 00 00 00    	add    $0x20,%rax
  404409:	48 89 45 f8          	mov    %rax,-0x8(%rbp)
  40440d:	e9 ce ff ff ff       	jmpq   4043e0 <_ZNSt12_Destroy_auxILb0EE9__destroyIPNSt7__cxx1112basic_stringIcSt11char_traitsIcESaIcEEEEEvT_S9_+0x10>
  404412:	48 83 c4 10          	add    $0x10,%rsp
  404416:	5d                   	pop    %rbp
  404417:	c3                   	retq   
  404418:	0f 1f 84 00 00 00 00 	nopl   0x0(%rax,%rax,1)
  40441f:	00 

0000000000404420 <_ZSt8_DestroyINSt7__cxx1112basic_stringIcSt11char_traitsIcESaIcEEEEvPT_>:
  404420:	55                   	push   %rbp
  404421:	48 89 e5             	mov    %rsp,%rbp
  404424:	48 83 ec 10          	sub    $0x10,%rsp
  404428:	48 89 7d f8          	mov    %rdi,-0x8(%rbp)
  40442c:	48 8b 7d f8          	mov    -0x8(%rbp),%rdi
  404430:	e8 0b ed ff ff       	callq  403140 <_ZNSt7__cxx1112basic_stringIcSt11char_traitsIcESaIcEED1Ev@plt>
  404435:	48 83 c4 10          	add    $0x10,%rsp
  404439:	5d                   	pop    %rbp
  40443a:	c3                   	retq   
  40443b:	0f 1f 44 00 00       	nopl   0x0(%rax,%rax,1)

0000000000404440 <_ZSt11__addressofINSt7__cxx1112basic_stringIcSt11char_traitsIcESaIcEEEEPT_RS6_>:
  404440:	55                   	push   %rbp
  404441:	48 89 e5             	mov    %rsp,%rbp
  404444:	48 89 7d f8          	mov    %rdi,-0x8(%rbp)
  404448:	48 8b 45 f8          	mov    -0x8(%rbp),%rax
  40444c:	5d                   	pop    %rbp
  40444d:	c3                   	retq   
  40444e:	66 90                	xchg   %ax,%ax

0000000000404450 <_ZNSt12_Vector_baseINSt7__cxx1112basic_stringIcSt11char_traitsIcESaIcEEESaIS5_EE13_M_deallocateEPS5_m>:
  404450:	55                   	push   %rbp
  404451:	48 89 e5             	mov    %rsp,%rbp
  404454:	48 83 ec 20          	sub    $0x20,%rsp
  404458:	48 89 7d f8          	mov    %rdi,-0x8(%rbp)
  40445c:	48 89 75 f0          	mov    %rsi,-0x10(%rbp)
  404460:	48 89 55 e8          	mov    %rdx,-0x18(%rbp)
  404464:	48 8b 45 f8          	mov    -0x8(%rbp),%rax
  404468:	48 83 7d f0 00       	cmpq   $0x0,-0x10(%rbp)
  40446d:	48 89 45 e0          	mov    %rax,-0x20(%rbp)
  404471:	0f 84 14 00 00 00    	je     40448b <_ZNSt12_Vector_baseINSt7__cxx1112basic_stringIcSt11char_traitsIcESaIcEEESaIS5_EE13_M_deallocateEPS5_m+0x3b>
  404477:	48 8b 45 e0          	mov    -0x20(%rbp),%rax
  40447b:	48 8b 75 f0          	mov    -0x10(%rbp),%rsi
  40447f:	48 8b 55 e8          	mov    -0x18(%rbp),%rdx
  404483:	48 89 c7             	mov    %rax,%rdi
  404486:	e8 35 00 00 00       	callq  4044c0 <_ZNSt16allocator_traitsISaINSt7__cxx1112basic_stringIcSt11char_traitsIcESaIcEEEEE10deallocateERS6_PS5_m>
  40448b:	48 83 c4 20          	add    $0x20,%rsp
  40448f:	5d                   	pop    %rbp
  404490:	c3                   	retq   
  404491:	66 2e 0f 1f 84 00 00 	nopw   %cs:0x0(%rax,%rax,1)
  404498:	00 00 00 
  40449b:	0f 1f 44 00 00       	nopl   0x0(%rax,%rax,1)

00000000004044a0 <_ZNSt12_Vector_baseINSt7__cxx1112basic_stringIcSt11char_traitsIcESaIcEEESaIS5_EE12_Vector_implD2Ev>:
  4044a0:	55                   	push   %rbp
  4044a1:	48 89 e5             	mov    %rsp,%rbp
  4044a4:	48 83 ec 10          	sub    $0x10,%rsp
  4044a8:	48 89 7d f8          	mov    %rdi,-0x8(%rbp)
  4044ac:	48 8b 45 f8          	mov    -0x8(%rbp),%rax
  4044b0:	48 89 c7             	mov    %rax,%rdi
  4044b3:	e8 18 1e 00 00       	callq  4062d0 <_ZNSaINSt7__cxx1112basic_stringIcSt11char_traitsIcESaIcEEEED2Ev>
  4044b8:	48 83 c4 10          	add    $0x10,%rsp
  4044bc:	5d                   	pop    %rbp
  4044bd:	c3                   	retq   
  4044be:	66 90                	xchg   %ax,%ax

00000000004044c0 <_ZNSt16allocator_traitsISaINSt7__cxx1112basic_stringIcSt11char_traitsIcESaIcEEEEE10deallocateERS6_PS5_m>:
  4044c0:	55                   	push   %rbp
  4044c1:	48 89 e5             	mov    %rsp,%rbp
  4044c4:	48 83 ec 20          	sub    $0x20,%rsp
  4044c8:	48 89 7d f8          	mov    %rdi,-0x8(%rbp)
  4044cc:	48 89 75 f0          	mov    %rsi,-0x10(%rbp)
  4044d0:	48 89 55 e8          	mov    %rdx,-0x18(%rbp)
  4044d4:	48 8b 45 f8          	mov    -0x8(%rbp),%rax
  4044d8:	48 8b 75 f0          	mov    -0x10(%rbp),%rsi
  4044dc:	48 8b 55 e8          	mov    -0x18(%rbp),%rdx
  4044e0:	48 89 c7             	mov    %rax,%rdi
  4044e3:	e8 08 00 00 00       	callq  4044f0 <_ZN9__gnu_cxx13new_allocatorINSt7__cxx1112basic_stringIcSt11char_traitsIcESaIcEEEE10deallocateEPS6_m>
  4044e8:	48 83 c4 20          	add    $0x20,%rsp
  4044ec:	5d                   	pop    %rbp
  4044ed:	c3                   	retq   
  4044ee:	66 90                	xchg   %ax,%ax

00000000004044f0 <_ZN9__gnu_cxx13new_allocatorINSt7__cxx1112basic_stringIcSt11char_traitsIcESaIcEEEE10deallocateEPS6_m>:
  4044f0:	55                   	push   %rbp
  4044f1:	48 89 e5             	mov    %rsp,%rbp
  4044f4:	48 83 ec 20          	sub    $0x20,%rsp
  4044f8:	48 89 7d f8          	mov    %rdi,-0x8(%rbp)
  4044fc:	48 89 75 f0          	mov    %rsi,-0x10(%rbp)
  404500:	48 89 55 e8          	mov    %rdx,-0x18(%rbp)
  404504:	48 8b 45 f0          	mov    -0x10(%rbp),%rax
  404508:	48 89 c7             	mov    %rax,%rdi
  40450b:	e8 10 ed ff ff       	callq  403220 <_ZdlPv@plt>
  404510:	48 83 c4 20          	add    $0x20,%rsp
  404514:	5d                   	pop    %rbp
  404515:	c3                   	retq   
  404516:	66 2e 0f 1f 84 00 00 	nopw   %cs:0x0(%rax,%rax,1)
  40451d:	00 00 00 

0000000000404520 <_ZN9__gnu_cxx13new_allocatorINSt7__cxx1112basic_stringIcSt11char_traitsIcESaIcEEEED2Ev>:
  404520:	55                   	push   %rbp
  404521:	48 89 e5             	mov    %rsp,%rbp
  404524:	48 89 7d f8          	mov    %rdi,-0x8(%rbp)
  404528:	5d                   	pop    %rbp
  404529:	c3                   	retq   
  40452a:	66 0f 1f 44 00 00    	nopw   0x0(%rax,%rax,1)

0000000000404530 <_ZN5boost10as_literalINSt7__cxx1112basic_stringIcSt11char_traitsIcESaIcEEEEENS_14iterator_rangeINS_14range_iteratorIKT_vE4typeEEERSA_>:
  404530:	55                   	push   %rbp
  404531:	48 89 e5             	mov    %rsp,%rbp
  404534:	48 83 ec 20          	sub    $0x20,%rsp
  404538:	48 89 7d e8          	mov    %rdi,-0x18(%rbp)
  40453c:	48 8b 45 e8          	mov    -0x18(%rbp),%rax
  404540:	48 89 c7             	mov    %rax,%rdi
  404543:	48 89 45 e0          	mov    %rax,-0x20(%rbp)
  404547:	e8 34 01 00 00       	callq  404680 <_ZN5boost12range_detail11is_char_ptrINSt7__cxx1112basic_stringIcSt11char_traitsIcESaIcEEEEElRKT_>
  40454c:	48 8b 7d e0          	mov    -0x20(%rbp),%rdi
  404550:	48 89 c6             	mov    %rax,%rsi
  404553:	e8 f8 00 00 00       	callq  404650 <_ZN5boost12range_detail10make_rangeIKNSt7__cxx1112basic_stringIcSt11char_traitsIcESaIcEEEEENS_14iterator_rangeINS_14range_iteratorIT_vE4typeEEERSB_l>
  404558:	48 89 45 f0          	mov    %rax,-0x10(%rbp)
  40455c:	48 89 55 f8          	mov    %rdx,-0x8(%rbp)
  404560:	48 8b 45 f0          	mov    -0x10(%rbp),%rax
  404564:	48 8b 55 f8          	mov    -0x8(%rbp),%rdx
  404568:	48 83 c4 20          	add    $0x20,%rsp
  40456c:	5d                   	pop    %rbp
  40456d:	c3                   	retq   
  40456e:	66 90                	xchg   %ax,%ax

0000000000404570 <_ZN5boost9algorithm6detail10is_any_ofFIcEC2INS_14iterator_rangeIN9__gnu_cxx17__normal_iteratorIPKcNSt7__cxx1112basic_stringIcSt11char_traitsIcESaIcEEEEEEEEERKT_>:
  404570:	55                   	push   %rbp
  404571:	48 89 e5             	mov    %rsp,%rbp
  404574:	48 83 ec 40          	sub    $0x40,%rsp
  404578:	48 89 7d f8          	mov    %rdi,-0x8(%rbp)
  40457c:	48 89 75 f0          	mov    %rsi,-0x10(%rbp)
  404580:	48 8b 45 f8          	mov    -0x8(%rbp),%rax
  404584:	48 c7 40 10 00 00 00 	movq   $0x0,0x10(%rax)
  40458b:	00 
  40458c:	48 c7 00 00 00 00 00 	movq   $0x0,(%rax)
  404593:	48 8b 7d f0          	mov    -0x10(%rbp),%rdi
  404597:	48 89 45 c8          	mov    %rax,-0x38(%rbp)
  40459b:	e8 40 03 00 00       	callq  4048e0 <_ZN5boost26range_distance_adl_barrier8distanceINS_14iterator_rangeIN9__gnu_cxx17__normal_iteratorIPKcNSt7__cxx1112basic_stringIcSt11char_traitsIcESaIcEEEEEEEEENS_16range_differenceIT_E4typeERKSG_>
  4045a0:	48 89 45 e8          	mov    %rax,-0x18(%rbp)
  4045a4:	48 8b 45 e8          	mov    -0x18(%rbp),%rax
  4045a8:	48 8b 4d c8          	mov    -0x38(%rbp),%rcx
  4045ac:	48 89 41 10          	mov    %rax,0x10(%rcx)
  4045b0:	48 c7 45 e0 00 00 00 	movq   $0x0,-0x20(%rbp)
  4045b7:	00 
  4045b8:	48 8b 79 10          	mov    0x10(%rcx),%rdi
  4045bc:	e8 5f 03 00 00       	callq  404920 <_ZN5boost9algorithm6detail10is_any_ofFIcE17use_fixed_storageEm>
  4045c1:	a8 01                	test   $0x1,%al
  4045c3:	0f 85 05 00 00 00    	jne    4045ce <_ZN5boost9algorithm6detail10is_any_ofFIcEC2INS_14iterator_rangeIN9__gnu_cxx17__normal_iteratorIPKcNSt7__cxx1112basic_stringIcSt11char_traitsIcESaIcEEEEEEEEERKT_+0x5e>
  4045c9:	e9 0d 00 00 00       	jmpq   4045db <_ZN5boost9algorithm6detail10is_any_ofFIcEC2INS_14iterator_rangeIN9__gnu_cxx17__normal_iteratorIPKcNSt7__cxx1112basic_stringIcSt11char_traitsIcESaIcEEEEEEEEERKT_+0x6b>
  4045ce:	48 8b 45 c8          	mov    -0x38(%rbp),%rax
  4045d2:	48 89 45 e0          	mov    %rax,-0x20(%rbp)
  4045d6:	e9 1b 00 00 00       	jmpq   4045f6 <_ZN5boost9algorithm6detail10is_any_ofFIcEC2INS_14iterator_rangeIN9__gnu_cxx17__normal_iteratorIPKcNSt7__cxx1112basic_stringIcSt11char_traitsIcESaIcEEEEEEEEERKT_+0x86>
  4045db:	48 8b 45 c8          	mov    -0x38(%rbp),%rax
  4045df:	48 8b 78 10          	mov    0x10(%rax),%rdi
  4045e3:	e8 48 ea ff ff       	callq  403030 <_Znam@plt>
  4045e8:	48 8b 4d c8          	mov    -0x38(%rbp),%rcx
  4045ec:	48 89 01             	mov    %rax,(%rcx)
  4045ef:	48 8b 01             	mov    (%rcx),%rax
  4045f2:	48 89 45 e0          	mov    %rax,-0x20(%rbp)
  4045f6:	48 8b 7d f0          	mov    -0x10(%rbp),%rdi
  4045fa:	e8 a1 03 00 00       	callq  4049a0 <_ZN5boost17range_adl_barrier5beginINS_14iterator_rangeIN9__gnu_cxx17__normal_iteratorIPKcNSt7__cxx1112basic_stringIcSt11char_traitsIcESaIcEEEEEEEEENS_14range_iteratorIKT_vE4typeERSH_>
  4045ff:	48 89 45 d8          	mov    %rax,-0x28(%rbp)
  404603:	48 8b 7d f0          	mov    -0x10(%rbp),%rdi
  404607:	e8 c4 03 00 00       	callq  4049d0 <_ZN5boost17range_adl_barrier3endINS_14iterator_rangeIN9__gnu_cxx17__normal_iteratorIPKcNSt7__cxx1112basic_stringIcSt11char_traitsIcESaIcEEEEEEEEENS_14range_iteratorIKT_vE4typeERSH_>
  40460c:	48 89 45 d0          	mov    %rax,-0x30(%rbp)
  404610:	48 8b 55 e0          	mov    -0x20(%rbp),%rdx
  404614:	48 8b 7d d8          	mov    -0x28(%rbp),%rdi
  404618:	48 8b 75 d0          	mov    -0x30(%rbp),%rsi
  40461c:	e8 1f 03 00 00       	callq  404940 <_ZSt4copyIN9__gnu_cxx17__normal_iteratorIPKcNSt7__cxx1112basic_stringIcSt11char_traitsIcESaIcEEEEEPcET0_T_SD_SC_>
  404621:	48 8b 7d e0          	mov    -0x20(%rbp),%rdi
  404625:	48 8b 4d e0          	mov    -0x20(%rbp),%rcx
  404629:	48 8b 55 c8          	mov    -0x38(%rbp),%rdx
  40462d:	48 03 4a 10          	add    0x10(%rdx),%rcx
  404631:	48 89 ce             	mov    %rcx,%rsi
  404634:	48 89 45 c0          	mov    %rax,-0x40(%rbp)
  404638:	e8 c3 03 00 00       	callq  404a00 <_ZSt4sortIPcEvT_S1_>
  40463d:	48 83 c4 40          	add    $0x40,%rsp
  404641:	5d                   	pop    %rbp
  404642:	c3                   	retq   
  404643:	66 2e 0f 1f 84 00 00 	nopw   %cs:0x0(%rax,%rax,1)
  40464a:	00 00 00 
  40464d:	0f 1f 00             	nopl   (%rax)

0000000000404650 <_ZN5boost12range_detail10make_rangeIKNSt7__cxx1112basic_stringIcSt11char_traitsIcESaIcEEEEENS_14iterator_rangeINS_14range_iteratorIT_vE4typeEEERSB_l>:
  404650:	55                   	push   %rbp
  404651:	48 89 e5             	mov    %rsp,%rbp
  404654:	48 83 ec 20          	sub    $0x20,%rsp
  404658:	48 89 7d e8          	mov    %rdi,-0x18(%rbp)
  40465c:	48 89 75 e0          	mov    %rsi,-0x20(%rbp)
  404660:	48 8b 7d e8          	mov    -0x18(%rbp),%rdi
  404664:	e8 27 00 00 00       	callq  404690 <_ZN5boost19make_iterator_rangeINSt7__cxx1112basic_stringIcSt11char_traitsIcESaIcEEEEENS_14iterator_rangeINS_14range_iteratorIKT_vE4typeEEERSA_>
  404669:	48 89 45 f0          	mov    %rax,-0x10(%rbp)
  40466d:	48 89 55 f8          	mov    %rdx,-0x8(%rbp)
  404671:	48 8b 45 f0          	mov    -0x10(%rbp),%rax
  404675:	48 8b 55 f8          	mov    -0x8(%rbp),%rdx
  404679:	48 83 c4 20          	add    $0x20,%rsp
  40467d:	5d                   	pop    %rbp
  40467e:	c3                   	retq   
  40467f:	90                   	nop

0000000000404680 <_ZN5boost12range_detail11is_char_ptrINSt7__cxx1112basic_stringIcSt11char_traitsIcESaIcEEEEElRKT_>:
  404680:	55                   	push   %rbp
  404681:	48 89 e5             	mov    %rsp,%rbp
  404684:	31 c0                	xor    %eax,%eax
  404686:	48 89 7d f8          	mov    %rdi,-0x8(%rbp)
  40468a:	5d                   	pop    %rbp
  40468b:	c3                   	retq   
  40468c:	0f 1f 40 00          	nopl   0x0(%rax)

0000000000404690 <_ZN5boost19make_iterator_rangeINSt7__cxx1112basic_stringIcSt11char_traitsIcESaIcEEEEENS_14iterator_rangeINS_14range_iteratorIKT_vE4typeEEERSA_>:
  404690:	55                   	push   %rbp
  404691:	48 89 e5             	mov    %rsp,%rbp
  404694:	48 83 ec 20          	sub    $0x20,%rsp
  404698:	48 89 7d e8          	mov    %rdi,-0x18(%rbp)
  40469c:	48 8b 75 e8          	mov    -0x18(%rbp),%rsi
  4046a0:	48 8d 7d f0          	lea    -0x10(%rbp),%rdi
  4046a4:	e8 17 00 00 00       	callq  4046c0 <_ZN5boost14iterator_rangeIN9__gnu_cxx17__normal_iteratorIPKcNSt7__cxx1112basic_stringIcSt11char_traitsIcESaIcEEEEEEC2ISA_EERKT_NS_21iterator_range_detail15const_range_tagE>
  4046a9:	48 8b 45 f0          	mov    -0x10(%rbp),%rax
  4046ad:	48 8b 55 f8          	mov    -0x8(%rbp),%rdx
  4046b1:	48 83 c4 20          	add    $0x20,%rsp
  4046b5:	5d                   	pop    %rbp
  4046b6:	c3                   	retq   
  4046b7:	66 0f 1f 84 00 00 00 	nopw   0x0(%rax,%rax,1)
  4046be:	00 00 

00000000004046c0 <_ZN5boost14iterator_rangeIN9__gnu_cxx17__normal_iteratorIPKcNSt7__cxx1112basic_stringIcSt11char_traitsIcESaIcEEEEEEC2ISA_EERKT_NS_21iterator_range_detail15const_range_tagE>:
  4046c0:	55                   	push   %rbp
  4046c1:	48 89 e5             	mov    %rsp,%rbp
  4046c4:	48 83 ec 30          	sub    $0x30,%rsp
  4046c8:	48 89 7d f0          	mov    %rdi,-0x10(%rbp)
  4046cc:	48 89 75 e8          	mov    %rsi,-0x18(%rbp)
  4046d0:	48 8b 45 f0          	mov    -0x10(%rbp),%rax
  4046d4:	48 8b 7d e8          	mov    -0x18(%rbp),%rdi
  4046d8:	48 89 45 d0          	mov    %rax,-0x30(%rbp)
  4046dc:	e8 2f 00 00 00       	callq  404710 <_ZN5boost21iterator_range_detail19iterator_range_implIN9__gnu_cxx17__normal_iteratorIPKcNSt7__cxx1112basic_stringIcSt11char_traitsIcESaIcEEEEEE9adl_beginIKSB_EESC_RT_>
  4046e1:	48 89 45 e0          	mov    %rax,-0x20(%rbp)
  4046e5:	48 8b 7d e8          	mov    -0x18(%rbp),%rdi
  4046e9:	e8 52 00 00 00       	callq  404740 <_ZN5boost21iterator_range_detail19iterator_range_implIN9__gnu_cxx17__normal_iteratorIPKcNSt7__cxx1112basic_stringIcSt11char_traitsIcESaIcEEEEEE7adl_endIKSB_EESC_RT_>
  4046ee:	48 89 45 d8          	mov    %rax,-0x28(%rbp)
  4046f2:	48 8b 75 e0          	mov    -0x20(%rbp),%rsi
  4046f6:	48 8b 55 d8          	mov    -0x28(%rbp),%rdx
  4046fa:	48 8b 7d d0          	mov    -0x30(%rbp),%rdi
  4046fe:	e8 6d 00 00 00       	callq  404770 <_ZN5boost21iterator_range_detail19iterator_range_baseIN9__gnu_cxx17__normal_iteratorIPKcNSt7__cxx1112basic_stringIcSt11char_traitsIcESaIcEEEEENS_9iterators27random_access_traversal_tagEEC2ISC_EET_SH_>
  404703:	48 83 c4 30          	add    $0x30,%rsp
  404707:	5d                   	pop    %rbp
  404708:	c3                   	retq   
  404709:	0f 1f 80 00 00 00 00 	nopl   0x0(%rax)

0000000000404710 <_ZN5boost21iterator_range_detail19iterator_range_implIN9__gnu_cxx17__normal_iteratorIPKcNSt7__cxx1112basic_stringIcSt11char_traitsIcESaIcEEEEEE9adl_beginIKSB_EESC_RT_>:
  404710:	55                   	push   %rbp
  404711:	48 89 e5             	mov    %rsp,%rbp
  404714:	48 83 ec 10          	sub    $0x10,%rsp
  404718:	48 89 7d f0          	mov    %rdi,-0x10(%rbp)
  40471c:	48 8b 7d f0          	mov    -0x10(%rbp),%rdi
  404720:	e8 8b 00 00 00       	callq  4047b0 <_ZN5boost17range_adl_barrier5beginINSt7__cxx1112basic_stringIcSt11char_traitsIcESaIcEEEEENS_14range_iteratorIKT_vE4typeERSA_>
  404725:	48 89 45 f8          	mov    %rax,-0x8(%rbp)
  404729:	48 8b 45 f8          	mov    -0x8(%rbp),%rax
  40472d:	48 83 c4 10          	add    $0x10,%rsp
  404731:	5d                   	pop    %rbp
  404732:	c3                   	retq   
  404733:	66 2e 0f 1f 84 00 00 	nopw   %cs:0x0(%rax,%rax,1)
  40473a:	00 00 00 
  40473d:	0f 1f 00             	nopl   (%rax)

0000000000404740 <_ZN5boost21iterator_range_detail19iterator_range_implIN9__gnu_cxx17__normal_iteratorIPKcNSt7__cxx1112basic_stringIcSt11char_traitsIcESaIcEEEEEE7adl_endIKSB_EESC_RT_>:
  404740:	55                   	push   %rbp
  404741:	48 89 e5             	mov    %rsp,%rbp
  404744:	48 83 ec 10          	sub    $0x10,%rsp
  404748:	48 89 7d f0          	mov    %rdi,-0x10(%rbp)
  40474c:	48 8b 7d f0          	mov    -0x10(%rbp),%rdi
  404750:	e8 bb 00 00 00       	callq  404810 <_ZN5boost17range_adl_barrier3endINSt7__cxx1112basic_stringIcSt11char_traitsIcESaIcEEEEENS_14range_iteratorIKT_vE4typeERSA_>
  404755:	48 89 45 f8          	mov    %rax,-0x8(%rbp)
  404759:	48 8b 45 f8          	mov    -0x8(%rbp),%rax
  40475d:	48 83 c4 10          	add    $0x10,%rsp
  404761:	5d                   	pop    %rbp
  404762:	c3                   	retq   
  404763:	66 2e 0f 1f 84 00 00 	nopw   %cs:0x0(%rax,%rax,1)
  40476a:	00 00 00 
  40476d:	0f 1f 00             	nopl   (%rax)

0000000000404770 <_ZN5boost21iterator_range_detail19iterator_range_baseIN9__gnu_cxx17__normal_iteratorIPKcNSt7__cxx1112basic_stringIcSt11char_traitsIcESaIcEEEEENS_9iterators27random_access_traversal_tagEEC2ISC_EET_SH_>:
  404770:	55                   	push   %rbp
  404771:	48 89 e5             	mov    %rsp,%rbp
  404774:	48 83 ec 30          	sub    $0x30,%rsp
  404778:	48 89 75 f8          	mov    %rsi,-0x8(%rbp)
  40477c:	48 89 55 f0          	mov    %rdx,-0x10(%rbp)
  404780:	48 89 7d e8          	mov    %rdi,-0x18(%rbp)
  404784:	48 8b 45 e8          	mov    -0x18(%rbp),%rax
  404788:	48 8b 4d f8          	mov    -0x8(%rbp),%rcx
  40478c:	48 89 4d e0          	mov    %rcx,-0x20(%rbp)
  404790:	48 8b 4d f0          	mov    -0x10(%rbp),%rcx
  404794:	48 89 4d d8          	mov    %rcx,-0x28(%rbp)
  404798:	48 8b 75 e0          	mov    -0x20(%rbp),%rsi
  40479c:	48 8b 55 d8          	mov    -0x28(%rbp),%rdx
  4047a0:	48 89 c7             	mov    %rax,%rdi
  4047a3:	e8 c8 00 00 00       	callq  404870 <_ZN5boost21iterator_range_detail19iterator_range_baseIN9__gnu_cxx17__normal_iteratorIPKcNSt7__cxx1112basic_stringIcSt11char_traitsIcESaIcEEEEENS_9iterators27bidirectional_traversal_tagEEC2ISC_EET_SH_>
  4047a8:	48 83 c4 30          	add    $0x30,%rsp
  4047ac:	5d                   	pop    %rbp
  4047ad:	c3                   	retq   
  4047ae:	66 90                	xchg   %ax,%ax

00000000004047b0 <_ZN5boost17range_adl_barrier5beginINSt7__cxx1112basic_stringIcSt11char_traitsIcESaIcEEEEENS_14range_iteratorIKT_vE4typeERSA_>:
  4047b0:	55                   	push   %rbp
  4047b1:	48 89 e5             	mov    %rsp,%rbp
  4047b4:	48 83 ec 10          	sub    $0x10,%rsp
  4047b8:	48 89 7d f0          	mov    %rdi,-0x10(%rbp)
  4047bc:	48 8b 7d f0          	mov    -0x10(%rbp),%rdi
  4047c0:	e8 1b 00 00 00       	callq  4047e0 <_ZN5boost12range_detail11range_beginIKNSt7__cxx1112basic_stringIcSt11char_traitsIcESaIcEEEEENS_14range_iteratorIT_vE4typeERSA_>
  4047c5:	48 89 45 f8          	mov    %rax,-0x8(%rbp)
  4047c9:	48 8b 45 f8          	mov    -0x8(%rbp),%rax
  4047cd:	48 83 c4 10          	add    $0x10,%rsp
  4047d1:	5d                   	pop    %rbp
  4047d2:	c3                   	retq   
  4047d3:	66 2e 0f 1f 84 00 00 	nopw   %cs:0x0(%rax,%rax,1)
  4047da:	00 00 00 
  4047dd:	0f 1f 00             	nopl   (%rax)

00000000004047e0 <_ZN5boost12range_detail11range_beginIKNSt7__cxx1112basic_stringIcSt11char_traitsIcESaIcEEEEENS_14range_iteratorIT_vE4typeERSA_>:
  4047e0:	55                   	push   %rbp
  4047e1:	48 89 e5             	mov    %rsp,%rbp
  4047e4:	48 83 ec 10          	sub    $0x10,%rsp
  4047e8:	48 89 7d f0          	mov    %rdi,-0x10(%rbp)
  4047ec:	48 8b 7d f0          	mov    -0x10(%rbp),%rdi
  4047f0:	e8 3b ea ff ff       	callq  403230 <_ZNKSt7__cxx1112basic_stringIcSt11char_traitsIcESaIcEE5beginEv@plt>
  4047f5:	48 89 45 f8          	mov    %rax,-0x8(%rbp)
  4047f9:	48 8b 45 f8          	mov    -0x8(%rbp),%rax
  4047fd:	48 83 c4 10          	add    $0x10,%rsp
  404801:	5d                   	pop    %rbp
  404802:	c3                   	retq   
  404803:	66 2e 0f 1f 84 00 00 	nopw   %cs:0x0(%rax,%rax,1)
  40480a:	00 00 00 
  40480d:	0f 1f 00             	nopl   (%rax)

0000000000404810 <_ZN5boost17range_adl_barrier3endINSt7__cxx1112basic_stringIcSt11char_traitsIcESaIcEEEEENS_14range_iteratorIKT_vE4typeERSA_>:
  404810:	55                   	push   %rbp
  404811:	48 89 e5             	mov    %rsp,%rbp
  404814:	48 83 ec 10          	sub    $0x10,%rsp
  404818:	48 89 7d f0          	mov    %rdi,-0x10(%rbp)
  40481c:	48 8b 7d f0          	mov    -0x10(%rbp),%rdi
  404820:	e8 1b 00 00 00       	callq  404840 <_ZN5boost12range_detail9range_endIKNSt7__cxx1112basic_stringIcSt11char_traitsIcESaIcEEEEENS_14range_iteratorIT_vE4typeERSA_>
  404825:	48 89 45 f8          	mov    %rax,-0x8(%rbp)
  404829:	48 8b 45 f8          	mov    -0x8(%rbp),%rax
  40482d:	48 83 c4 10          	add    $0x10,%rsp
  404831:	5d                   	pop    %rbp
  404832:	c3                   	retq   
  404833:	66 2e 0f 1f 84 00 00 	nopw   %cs:0x0(%rax,%rax,1)
  40483a:	00 00 00 
  40483d:	0f 1f 00             	nopl   (%rax)

0000000000404840 <_ZN5boost12range_detail9range_endIKNSt7__cxx1112basic_stringIcSt11char_traitsIcESaIcEEEEENS_14range_iteratorIT_vE4typeERSA_>:
  404840:	55                   	push   %rbp
  404841:	48 89 e5             	mov    %rsp,%rbp
  404844:	48 83 ec 10          	sub    $0x10,%rsp
  404848:	48 89 7d f0          	mov    %rdi,-0x10(%rbp)
  40484c:	48 8b 7d f0          	mov    -0x10(%rbp),%rdi
  404850:	e8 bb eb ff ff       	callq  403410 <_ZNKSt7__cxx1112basic_stringIcSt11char_traitsIcESaIcEE3endEv@plt>
  404855:	48 89 45 f8          	mov    %rax,-0x8(%rbp)
  404859:	48 8b 45 f8          	mov    -0x8(%rbp),%rax
  40485d:	48 83 c4 10          	add    $0x10,%rsp
  404861:	5d                   	pop    %rbp
  404862:	c3                   	retq   
  404863:	66 2e 0f 1f 84 00 00 	nopw   %cs:0x0(%rax,%rax,1)
  40486a:	00 00 00 
  40486d:	0f 1f 00             	nopl   (%rax)

0000000000404870 <_ZN5boost21iterator_range_detail19iterator_range_baseIN9__gnu_cxx17__normal_iteratorIPKcNSt7__cxx1112basic_stringIcSt11char_traitsIcESaIcEEEEENS_9iterators27bidirectional_traversal_tagEEC2ISC_EET_SH_>:
  404870:	55                   	push   %rbp
  404871:	48 89 e5             	mov    %rsp,%rbp
  404874:	48 83 ec 30          	sub    $0x30,%rsp
  404878:	48 89 75 f8          	mov    %rsi,-0x8(%rbp)
  40487c:	48 89 55 f0          	mov    %rdx,-0x10(%rbp)
  404880:	48 89 7d e8          	mov    %rdi,-0x18(%rbp)
  404884:	48 8b 45 e8          	mov    -0x18(%rbp),%rax
  404888:	48 8b 4d f8          	mov    -0x8(%rbp),%rcx
  40488c:	48 89 4d e0          	mov    %rcx,-0x20(%rbp)
  404890:	48 8b 4d f0          	mov    -0x10(%rbp),%rcx
  404894:	48 89 4d d8          	mov    %rcx,-0x28(%rbp)
  404898:	48 8b 75 e0          	mov    -0x20(%rbp),%rsi
  40489c:	48 8b 55 d8          	mov    -0x28(%rbp),%rdx
  4048a0:	48 89 c7             	mov    %rax,%rdi
  4048a3:	e8 08 00 00 00       	callq  4048b0 <_ZN5boost21iterator_range_detail19iterator_range_baseIN9__gnu_cxx17__normal_iteratorIPKcNSt7__cxx1112basic_stringIcSt11char_traitsIcESaIcEEEEENS_9iterators27incrementable_traversal_tagEEC2ISC_EET_SH_>
  4048a8:	48 83 c4 30          	add    $0x30,%rsp
  4048ac:	5d                   	pop    %rbp
  4048ad:	c3                   	retq   
  4048ae:	66 90                	xchg   %ax,%ax

00000000004048b0 <_ZN5boost21iterator_range_detail19iterator_range_baseIN9__gnu_cxx17__normal_iteratorIPKcNSt7__cxx1112basic_stringIcSt11char_traitsIcESaIcEEEEENS_9iterators27incrementable_traversal_tagEEC2ISC_EET_SH_>:
  4048b0:	55                   	push   %rbp
  4048b1:	48 89 e5             	mov    %rsp,%rbp
  4048b4:	48 89 75 f8          	mov    %rsi,-0x8(%rbp)
  4048b8:	48 89 55 f0          	mov    %rdx,-0x10(%rbp)
  4048bc:	48 89 7d e8          	mov    %rdi,-0x18(%rbp)
  4048c0:	48 8b 45 e8          	mov    -0x18(%rbp),%rax
  4048c4:	48 8b 4d f8          	mov    -0x8(%rbp),%rcx
  4048c8:	48 89 08             	mov    %rcx,(%rax)
  4048cb:	48 8b 4d f0          	mov    -0x10(%rbp),%rcx
  4048cf:	48 89 48 08          	mov    %rcx,0x8(%rax)
  4048d3:	5d                   	pop    %rbp
  4048d4:	c3                   	retq   
  4048d5:	66 2e 0f 1f 84 00 00 	nopw   %cs:0x0(%rax,%rax,1)
  4048dc:	00 00 00 
  4048df:	90                   	nop

00000000004048e0 <_ZN5boost26range_distance_adl_barrier8distanceINS_14iterator_rangeIN9__gnu_cxx17__normal_iteratorIPKcNSt7__cxx1112basic_stringIcSt11char_traitsIcESaIcEEEEEEEEENS_16range_differenceIT_E4typeERKSG_>:
  4048e0:	55                   	push   %rbp
  4048e1:	48 89 e5             	mov    %rsp,%rbp
  4048e4:	48 83 ec 20          	sub    $0x20,%rsp
  4048e8:	48 89 7d f8          	mov    %rdi,-0x8(%rbp)
  4048ec:	48 8b 7d f8          	mov    -0x8(%rbp),%rdi
  4048f0:	e8 ab 00 00 00       	callq  4049a0 <_ZN5boost17range_adl_barrier5beginINS_14iterator_rangeIN9__gnu_cxx17__normal_iteratorIPKcNSt7__cxx1112basic_stringIcSt11char_traitsIcESaIcEEEEEEEEENS_14range_iteratorIKT_vE4typeERSH_>
  4048f5:	48 89 45 f0          	mov    %rax,-0x10(%rbp)
  4048f9:	48 8b 7d f8          	mov    -0x8(%rbp),%rdi
  4048fd:	e8 ce 00 00 00       	callq  4049d0 <_ZN5boost17range_adl_barrier3endINS_14iterator_rangeIN9__gnu_cxx17__normal_iteratorIPKcNSt7__cxx1112basic_stringIcSt11char_traitsIcESaIcEEEEEEEEENS_14range_iteratorIKT_vE4typeERSH_>
  404902:	48 89 45 e8          	mov    %rax,-0x18(%rbp)
  404906:	48 8b 7d f0          	mov    -0x10(%rbp),%rdi
  40490a:	48 8b 75 e8          	mov    -0x18(%rbp),%rsi
  40490e:	e8 2d 01 00 00       	callq  404a40 <_ZN5boost9iterators20distance_adl_barrier8distanceIN9__gnu_cxx17__normal_iteratorIPKcNSt7__cxx1112basic_stringIcSt11char_traitsIcESaIcEEEEEEENS0_19iterator_differenceIT_E4typeESF_SF_>
  404913:	48 83 c4 20          	add    $0x20,%rsp
  404917:	5d                   	pop    %rbp
  404918:	c3                   	retq   
  404919:	0f 1f 80 00 00 00 00 	nopl   0x0(%rax)

0000000000404920 <_ZN5boost9algorithm6detail10is_any_ofFIcE17use_fixed_storageEm>:
  404920:	55                   	push   %rbp
  404921:	48 89 e5             	mov    %rsp,%rbp
  404924:	48 89 7d f8          	mov    %rdi,-0x8(%rbp)
  404928:	48 83 7d f8 10       	cmpq   $0x10,-0x8(%rbp)
  40492d:	0f 96 c0             	setbe  %al
  404930:	24 01                	and    $0x1,%al
  404932:	0f b6 c0             	movzbl %al,%eax
  404935:	5d                   	pop    %rbp
  404936:	c3                   	retq   
  404937:	66 0f 1f 84 00 00 00 	nopw   0x0(%rax,%rax,1)
  40493e:	00 00 

0000000000404940 <_ZSt4copyIN9__gnu_cxx17__normal_iteratorIPKcNSt7__cxx1112basic_stringIcSt11char_traitsIcESaIcEEEEEPcET0_T_SD_SC_>:
  404940:	55                   	push   %rbp
  404941:	48 89 e5             	mov    %rsp,%rbp
  404944:	48 83 ec 40          	sub    $0x40,%rsp
  404948:	48 89 7d f8          	mov    %rdi,-0x8(%rbp)
  40494c:	48 89 75 f0          	mov    %rsi,-0x10(%rbp)
  404950:	48 89 55 e8          	mov    %rdx,-0x18(%rbp)
  404954:	48 8b 45 f8          	mov    -0x8(%rbp),%rax
  404958:	48 89 45 d8          	mov    %rax,-0x28(%rbp)
  40495c:	48 8b 7d d8          	mov    -0x28(%rbp),%rdi
  404960:	e8 0b 02 00 00       	callq  404b70 <_ZSt12__miter_baseIN9__gnu_cxx17__normal_iteratorIPKcNSt7__cxx1112basic_stringIcSt11char_traitsIcESaIcEEEEEET_SB_>
  404965:	48 89 45 e0          	mov    %rax,-0x20(%rbp)
  404969:	48 8b 45 f0          	mov    -0x10(%rbp),%rax
  40496d:	48 89 45 c8          	mov    %rax,-0x38(%rbp)
  404971:	48 8b 7d c8          	mov    -0x38(%rbp),%rdi
  404975:	e8 f6 01 00 00       	callq  404b70 <_ZSt12__miter_baseIN9__gnu_cxx17__normal_iteratorIPKcNSt7__cxx1112basic_stringIcSt11char_traitsIcESaIcEEEEEET_SB_>
  40497a:	48 89 45 d0          	mov    %rax,-0x30(%rbp)
  40497e:	48 8b 55 e8          	mov    -0x18(%rbp),%rdx
  404982:	48 8b 7d e0          	mov    -0x20(%rbp),%rdi
  404986:	48 8b 75 d0          	mov    -0x30(%rbp),%rsi
  40498a:	e8 71 01 00 00       	callq  404b00 <_ZSt14__copy_move_a2ILb0EN9__gnu_cxx17__normal_iteratorIPKcNSt7__cxx1112basic_stringIcSt11char_traitsIcESaIcEEEEEPcET1_T0_SD_SC_>
  40498f:	48 83 c4 40          	add    $0x40,%rsp
  404993:	5d                   	pop    %rbp
  404994:	c3                   	retq   
  404995:	66 2e 0f 1f 84 00 00 	nopw   %cs:0x0(%rax,%rax,1)
  40499c:	00 00 00 
  40499f:	90                   	nop

00000000004049a0 <_ZN5boost17range_adl_barrier5beginINS_14iterator_rangeIN9__gnu_cxx17__normal_iteratorIPKcNSt7__cxx1112basic_stringIcSt11char_traitsIcESaIcEEEEEEEEENS_14range_iteratorIKT_vE4typeERSH_>:
  4049a0:	55                   	push   %rbp
  4049a1:	48 89 e5             	mov    %rsp,%rbp
  4049a4:	48 83 ec 10          	sub    $0x10,%rsp
  4049a8:	48 89 7d f0          	mov    %rdi,-0x10(%rbp)
  4049ac:	48 8b 7d f0          	mov    -0x10(%rbp),%rdi
  4049b0:	e8 bb 02 00 00       	callq  404c70 <_ZN5boost12range_detail11range_beginIKNS_14iterator_rangeIN9__gnu_cxx17__normal_iteratorIPKcNSt7__cxx1112basic_stringIcSt11char_traitsIcESaIcEEEEEEEEENS_14range_iteratorIT_vE4typeERSH_>
  4049b5:	48 89 45 f8          	mov    %rax,-0x8(%rbp)
  4049b9:	48 8b 45 f8          	mov    -0x8(%rbp),%rax
  4049bd:	48 83 c4 10          	add    $0x10,%rsp
  4049c1:	5d                   	pop    %rbp
  4049c2:	c3                   	retq   
  4049c3:	66 2e 0f 1f 84 00 00 	nopw   %cs:0x0(%rax,%rax,1)
  4049ca:	00 00 00 
  4049cd:	0f 1f 00             	nopl   (%rax)

00000000004049d0 <_ZN5boost17range_adl_barrier3endINS_14iterator_rangeIN9__gnu_cxx17__normal_iteratorIPKcNSt7__cxx1112basic_stringIcSt11char_traitsIcESaIcEEEEEEEEENS_14range_iteratorIKT_vE4typeERSH_>:
  4049d0:	55                   	push   %rbp
  4049d1:	48 89 e5             	mov    %rsp,%rbp
  4049d4:	48 83 ec 10          	sub    $0x10,%rsp
  4049d8:	48 89 7d f0          	mov    %rdi,-0x10(%rbp)
  4049dc:	48 8b 7d f0          	mov    -0x10(%rbp),%rdi
  4049e0:	e8 db 02 00 00       	callq  404cc0 <_ZN5boost12range_detail9range_endIKNS_14iterator_rangeIN9__gnu_cxx17__normal_iteratorIPKcNSt7__cxx1112basic_stringIcSt11char_traitsIcESaIcEEEEEEEEENS_14range_iteratorIT_vE4typeERSH_>
  4049e5:	48 89 45 f8          	mov    %rax,-0x8(%rbp)
  4049e9:	48 8b 45 f8          	mov    -0x8(%rbp),%rax
  4049ed:	48 83 c4 10          	add    $0x10,%rsp
  4049f1:	5d                   	pop    %rbp
  4049f2:	c3                   	retq   
  4049f3:	66 2e 0f 1f 84 00 00 	nopw   %cs:0x0(%rax,%rax,1)
  4049fa:	00 00 00 
  4049fd:	0f 1f 00             	nopl   (%rax)

0000000000404a00 <_ZSt4sortIPcEvT_S1_>:
  404a00:	55                   	push   %rbp
  404a01:	48 89 e5             	mov    %rsp,%rbp
  404a04:	48 83 ec 30          	sub    $0x30,%rsp
  404a08:	48 89 7d f8          	mov    %rdi,-0x8(%rbp)
  404a0c:	48 89 75 f0          	mov    %rsi,-0x10(%rbp)
  404a10:	48 8b 7d f8          	mov    -0x8(%rbp),%rdi
  404a14:	48 8b 75 f0          	mov    -0x10(%rbp),%rsi
  404a18:	48 89 7d d8          	mov    %rdi,-0x28(%rbp)
  404a1c:	48 89 75 d0          	mov    %rsi,-0x30(%rbp)
  404a20:	e8 5b 03 00 00       	callq  404d80 <_ZN9__gnu_cxx5__ops16__iter_less_iterEv>
  404a25:	48 8b 7d d8          	mov    -0x28(%rbp),%rdi
  404a29:	48 8b 75 d0          	mov    -0x30(%rbp),%rsi
  404a2d:	e8 de 02 00 00       	callq  404d10 <_ZSt6__sortIPcN9__gnu_cxx5__ops15_Iter_less_iterEEvT_S4_T0_>
  404a32:	48 83 c4 30          	add    $0x30,%rsp
  404a36:	5d                   	pop    %rbp
  404a37:	c3                   	retq   
  404a38:	0f 1f 84 00 00 00 00 	nopl   0x0(%rax,%rax,1)
  404a3f:	00 

0000000000404a40 <_ZN5boost9iterators20distance_adl_barrier8distanceIN9__gnu_cxx17__normal_iteratorIPKcNSt7__cxx1112basic_stringIcSt11char_traitsIcESaIcEEEEEEENS0_19iterator_differenceIT_E4typeESF_SF_>:
  404a40:	55                   	push   %rbp
  404a41:	48 89 e5             	mov    %rsp,%rbp
  404a44:	48 83 ec 30          	sub    $0x30,%rsp
  404a48:	48 89 7d f8          	mov    %rdi,-0x8(%rbp)
  404a4c:	48 89 75 f0          	mov    %rsi,-0x10(%rbp)
  404a50:	48 8b 45 f8          	mov    -0x8(%rbp),%rax
  404a54:	48 89 45 e8          	mov    %rax,-0x18(%rbp)
  404a58:	48 8b 45 f0          	mov    -0x10(%rbp),%rax
  404a5c:	48 89 45 e0          	mov    %rax,-0x20(%rbp)
  404a60:	48 8b 7d e8          	mov    -0x18(%rbp),%rdi
  404a64:	48 8b 75 e0          	mov    -0x20(%rbp),%rsi
  404a68:	e8 13 00 00 00       	callq  404a80 <_ZN5boost9iterators6detail13distance_implIN9__gnu_cxx17__normal_iteratorIPKcNSt7__cxx1112basic_stringIcSt11char_traitsIcESaIcEEEEEEENS0_19iterator_differenceIT_E4typeESF_SF_NS0_27random_access_traversal_tagE>
  404a6d:	48 83 c4 30          	add    $0x30,%rsp
  404a71:	5d                   	pop    %rbp
  404a72:	c3                   	retq   
  404a73:	66 2e 0f 1f 84 00 00 	nopw   %cs:0x0(%rax,%rax,1)
  404a7a:	00 00 00 
  404a7d:	0f 1f 00             	nopl   (%rax)

0000000000404a80 <_ZN5boost9iterators6detail13distance_implIN9__gnu_cxx17__normal_iteratorIPKcNSt7__cxx1112basic_stringIcSt11char_traitsIcESaIcEEEEEEENS0_19iterator_differenceIT_E4typeESF_SF_NS0_27random_access_traversal_tagE>:
  404a80:	55                   	push   %rbp
  404a81:	48 89 e5             	mov    %rsp,%rbp
  404a84:	48 83 ec 20          	sub    $0x20,%rsp
  404a88:	48 89 7d f8          	mov    %rdi,-0x8(%rbp)
  404a8c:	48 89 75 f0          	mov    %rsi,-0x10(%rbp)
  404a90:	48 8d 7d f0          	lea    -0x10(%rbp),%rdi
  404a94:	48 8d 75 f8          	lea    -0x8(%rbp),%rsi
  404a98:	e8 13 00 00 00       	callq  404ab0 <_ZN9__gnu_cxxmiIPKcNSt7__cxx1112basic_stringIcSt11char_traitsIcESaIcEEEEENS_17__normal_iteratorIT_T0_E15difference_typeERKSC_SF_>
  404a9d:	48 83 c4 20          	add    $0x20,%rsp
  404aa1:	5d                   	pop    %rbp
  404aa2:	c3                   	retq   
  404aa3:	66 2e 0f 1f 84 00 00 	nopw   %cs:0x0(%rax,%rax,1)
  404aaa:	00 00 00 
  404aad:	0f 1f 00             	nopl   (%rax)

0000000000404ab0 <_ZN9__gnu_cxxmiIPKcNSt7__cxx1112basic_stringIcSt11char_traitsIcESaIcEEEEENS_17__normal_iteratorIT_T0_E15difference_typeERKSC_SF_>:
  404ab0:	55                   	push   %rbp
  404ab1:	48 89 e5             	mov    %rsp,%rbp
  404ab4:	48 83 ec 20          	sub    $0x20,%rsp
  404ab8:	48 89 7d f8          	mov    %rdi,-0x8(%rbp)
  404abc:	48 89 75 f0          	mov    %rsi,-0x10(%rbp)
  404ac0:	48 8b 7d f8          	mov    -0x8(%rbp),%rdi
  404ac4:	e8 27 00 00 00       	callq  404af0 <_ZNK9__gnu_cxx17__normal_iteratorIPKcNSt7__cxx1112basic_stringIcSt11char_traitsIcESaIcEEEE4baseEv>
  404ac9:	48 8b 00             	mov    (%rax),%rax
  404acc:	48 8b 7d f0          	mov    -0x10(%rbp),%rdi
  404ad0:	48 89 45 e8          	mov    %rax,-0x18(%rbp)
  404ad4:	e8 17 00 00 00       	callq  404af0 <_ZNK9__gnu_cxx17__normal_iteratorIPKcNSt7__cxx1112basic_stringIcSt11char_traitsIcESaIcEEEE4baseEv>
  404ad9:	48 8b 00             	mov    (%rax),%rax
  404adc:	48 8b 4d e8          	mov    -0x18(%rbp),%rcx
  404ae0:	48 29 c1             	sub    %rax,%rcx
  404ae3:	48 89 c8             	mov    %rcx,%rax
  404ae6:	48 83 c4 20          	add    $0x20,%rsp
  404aea:	5d                   	pop    %rbp
  404aeb:	c3                   	retq   
  404aec:	0f 1f 40 00          	nopl   0x0(%rax)

0000000000404af0 <_ZNK9__gnu_cxx17__normal_iteratorIPKcNSt7__cxx1112basic_stringIcSt11char_traitsIcESaIcEEEE4baseEv>:
  404af0:	55                   	push   %rbp
  404af1:	48 89 e5             	mov    %rsp,%rbp
  404af4:	48 89 7d f8          	mov    %rdi,-0x8(%rbp)
  404af8:	48 8b 45 f8          	mov    -0x8(%rbp),%rax
  404afc:	5d                   	pop    %rbp
  404afd:	c3                   	retq   
  404afe:	66 90                	xchg   %ax,%ax

0000000000404b00 <_ZSt14__copy_move_a2ILb0EN9__gnu_cxx17__normal_iteratorIPKcNSt7__cxx1112basic_stringIcSt11char_traitsIcESaIcEEEEEPcET1_T0_SD_SC_>:
  404b00:	55                   	push   %rbp
  404b01:	48 89 e5             	mov    %rsp,%rbp
  404b04:	48 83 ec 40          	sub    $0x40,%rsp
  404b08:	48 89 7d f8          	mov    %rdi,-0x8(%rbp)
  404b0c:	48 89 75 f0          	mov    %rsi,-0x10(%rbp)
  404b10:	48 89 55 e8          	mov    %rdx,-0x18(%rbp)
  404b14:	48 8b 45 f8          	mov    -0x8(%rbp),%rax
  404b18:	48 89 45 e0          	mov    %rax,-0x20(%rbp)
  404b1c:	48 8b 7d e0          	mov    -0x20(%rbp),%rdi
  404b20:	e8 bb 00 00 00       	callq  404be0 <_ZSt12__niter_baseIPKcNSt7__cxx1112basic_stringIcSt11char_traitsIcESaIcEEEET_N9__gnu_cxx17__normal_iteratorIS8_T0_EE>
  404b25:	48 8b 4d f0          	mov    -0x10(%rbp),%rcx
  404b29:	48 89 4d d8          	mov    %rcx,-0x28(%rbp)
  404b2d:	48 8b 7d d8          	mov    -0x28(%rbp),%rdi
  404b31:	48 89 45 d0          	mov    %rax,-0x30(%rbp)
  404b35:	e8 a6 00 00 00       	callq  404be0 <_ZSt12__niter_baseIPKcNSt7__cxx1112basic_stringIcSt11char_traitsIcESaIcEEEET_N9__gnu_cxx17__normal_iteratorIS8_T0_EE>
  404b3a:	48 8b 7d e8          	mov    -0x18(%rbp),%rdi
  404b3e:	48 89 45 c8          	mov    %rax,-0x38(%rbp)
  404b42:	e8 b9 00 00 00       	callq  404c00 <_ZSt12__niter_baseIPcET_S1_>
  404b47:	48 8b 7d d0          	mov    -0x30(%rbp),%rdi
  404b4b:	48 8b 75 c8          	mov    -0x38(%rbp),%rsi
  404b4f:	48 89 c2             	mov    %rax,%rdx
  404b52:	e8 59 00 00 00       	callq  404bb0 <_ZSt13__copy_move_aILb0EPKcPcET1_T0_S4_S3_>
  404b57:	48 8d 7d e8          	lea    -0x18(%rbp),%rdi
  404b5b:	48 89 c6             	mov    %rax,%rsi
  404b5e:	e8 2d 00 00 00       	callq  404b90 <_ZSt12__niter_wrapIPcET_RKS1_S1_>
  404b63:	48 83 c4 40          	add    $0x40,%rsp
  404b67:	5d                   	pop    %rbp
  404b68:	c3                   	retq   
  404b69:	0f 1f 80 00 00 00 00 	nopl   0x0(%rax)

0000000000404b70 <_ZSt12__miter_baseIN9__gnu_cxx17__normal_iteratorIPKcNSt7__cxx1112basic_stringIcSt11char_traitsIcESaIcEEEEEET_SB_>:
  404b70:	55                   	push   %rbp
  404b71:	48 89 e5             	mov    %rsp,%rbp
  404b74:	48 89 7d f0          	mov    %rdi,-0x10(%rbp)
  404b78:	48 8b 45 f0          	mov    -0x10(%rbp),%rax
  404b7c:	48 89 45 f8          	mov    %rax,-0x8(%rbp)
  404b80:	48 8b 45 f8          	mov    -0x8(%rbp),%rax
  404b84:	5d                   	pop    %rbp
  404b85:	c3                   	retq   
  404b86:	66 2e 0f 1f 84 00 00 	nopw   %cs:0x0(%rax,%rax,1)
  404b8d:	00 00 00 

0000000000404b90 <_ZSt12__niter_wrapIPcET_RKS1_S1_>:
  404b90:	55                   	push   %rbp
  404b91:	48 89 e5             	mov    %rsp,%rbp
  404b94:	48 89 7d f8          	mov    %rdi,-0x8(%rbp)
  404b98:	48 89 75 f0          	mov    %rsi,-0x10(%rbp)
  404b9c:	48 8b 45 f0          	mov    -0x10(%rbp),%rax
  404ba0:	5d                   	pop    %rbp
  404ba1:	c3                   	retq   
  404ba2:	66 2e 0f 1f 84 00 00 	nopw   %cs:0x0(%rax,%rax,1)
  404ba9:	00 00 00 
  404bac:	0f 1f 40 00          	nopl   0x0(%rax)

0000000000404bb0 <_ZSt13__copy_move_aILb0EPKcPcET1_T0_S4_S3_>:
  404bb0:	55                   	push   %rbp
  404bb1:	48 89 e5             	mov    %rsp,%rbp
  404bb4:	48 83 ec 20          	sub    $0x20,%rsp
  404bb8:	48 89 7d f8          	mov    %rdi,-0x8(%rbp)
  404bbc:	48 89 75 f0          	mov    %rsi,-0x10(%rbp)
  404bc0:	48 89 55 e8          	mov    %rdx,-0x18(%rbp)
  404bc4:	c6 45 e7 01          	movb   $0x1,-0x19(%rbp)
  404bc8:	48 8b 7d f8          	mov    -0x8(%rbp),%rdi
  404bcc:	48 8b 75 f0          	mov    -0x10(%rbp),%rsi
  404bd0:	48 8b 55 e8          	mov    -0x18(%rbp),%rdx
  404bd4:	e8 37 00 00 00       	callq  404c10 <_ZNSt11__copy_moveILb0ELb1ESt26random_access_iterator_tagE8__copy_mIcEEPT_PKS3_S6_S4_>
  404bd9:	48 83 c4 20          	add    $0x20,%rsp
  404bdd:	5d                   	pop    %rbp
  404bde:	c3                   	retq   
  404bdf:	90                   	nop

0000000000404be0 <_ZSt12__niter_baseIPKcNSt7__cxx1112basic_stringIcSt11char_traitsIcESaIcEEEET_N9__gnu_cxx17__normal_iteratorIS8_T0_EE>:
  404be0:	55                   	push   %rbp
  404be1:	48 89 e5             	mov    %rsp,%rbp
  404be4:	48 83 ec 10          	sub    $0x10,%rsp
  404be8:	48 89 7d f8          	mov    %rdi,-0x8(%rbp)
  404bec:	48 8d 7d f8          	lea    -0x8(%rbp),%rdi
  404bf0:	e8 fb fe ff ff       	callq  404af0 <_ZNK9__gnu_cxx17__normal_iteratorIPKcNSt7__cxx1112basic_stringIcSt11char_traitsIcESaIcEEEE4baseEv>
  404bf5:	48 8b 00             	mov    (%rax),%rax
  404bf8:	48 83 c4 10          	add    $0x10,%rsp
  404bfc:	5d                   	pop    %rbp
  404bfd:	c3                   	retq   
  404bfe:	66 90                	xchg   %ax,%ax

0000000000404c00 <_ZSt12__niter_baseIPcET_S1_>:
  404c00:	55                   	push   %rbp
  404c01:	48 89 e5             	mov    %rsp,%rbp
  404c04:	48 89 7d f8          	mov    %rdi,-0x8(%rbp)
  404c08:	48 8b 45 f8          	mov    -0x8(%rbp),%rax
  404c0c:	5d                   	pop    %rbp
  404c0d:	c3                   	retq   
  404c0e:	66 90                	xchg   %ax,%ax

0000000000404c10 <_ZNSt11__copy_moveILb0ELb1ESt26random_access_iterator_tagE8__copy_mIcEEPT_PKS3_S6_S4_>:
  404c10:	55                   	push   %rbp
  404c11:	48 89 e5             	mov    %rsp,%rbp
  404c14:	48 83 ec 20          	sub    $0x20,%rsp
  404c18:	48 89 7d f8          	mov    %rdi,-0x8(%rbp)
  404c1c:	48 89 75 f0          	mov    %rsi,-0x10(%rbp)
  404c20:	48 89 55 e8          	mov    %rdx,-0x18(%rbp)
  404c24:	48 8b 45 f0          	mov    -0x10(%rbp),%rax
  404c28:	48 8b 4d f8          	mov    -0x8(%rbp),%rcx
  404c2c:	48 29 c8             	sub    %rcx,%rax
  404c2f:	48 89 45 e0          	mov    %rax,-0x20(%rbp)
  404c33:	48 83 7d e0 00       	cmpq   $0x0,-0x20(%rbp)
  404c38:	0f 84 18 00 00 00    	je     404c56 <_ZNSt11__copy_moveILb0ELb1ESt26random_access_iterator_tagE8__copy_mIcEEPT_PKS3_S6_S4_+0x46>
  404c3e:	48 8b 7d e8          	mov    -0x18(%rbp),%rdi
  404c42:	48 8b 75 f8          	mov    -0x8(%rbp),%rsi
  404c46:	48 8b 45 e0          	mov    -0x20(%rbp),%rax
  404c4a:	48 c1 e0 00          	shl    $0x0,%rax
  404c4e:	48 89 c2             	mov    %rax,%rdx
  404c51:	e8 4a e7 ff ff       	callq  4033a0 <memmove@plt>
  404c56:	48 8b 45 e8          	mov    -0x18(%rbp),%rax
  404c5a:	48 03 45 e0          	add    -0x20(%rbp),%rax
  404c5e:	48 83 c4 20          	add    $0x20,%rsp
  404c62:	5d                   	pop    %rbp
  404c63:	c3                   	retq   
  404c64:	66 2e 0f 1f 84 00 00 	nopw   %cs:0x0(%rax,%rax,1)
  404c6b:	00 00 00 
  404c6e:	66 90                	xchg   %ax,%ax

0000000000404c70 <_ZN5boost12range_detail11range_beginIKNS_14iterator_rangeIN9__gnu_cxx17__normal_iteratorIPKcNSt7__cxx1112basic_stringIcSt11char_traitsIcESaIcEEEEEEEEENS_14range_iteratorIT_vE4typeERSH_>:
  404c70:	55                   	push   %rbp
  404c71:	48 89 e5             	mov    %rsp,%rbp
  404c74:	48 83 ec 10          	sub    $0x10,%rsp
  404c78:	48 89 7d f0          	mov    %rdi,-0x10(%rbp)
  404c7c:	48 8b 45 f0          	mov    -0x10(%rbp),%rax
  404c80:	48 89 c7             	mov    %rax,%rdi
  404c83:	e8 18 00 00 00       	callq  404ca0 <_ZNK5boost21iterator_range_detail19iterator_range_baseIN9__gnu_cxx17__normal_iteratorIPKcNSt7__cxx1112basic_stringIcSt11char_traitsIcESaIcEEEEENS_9iterators27incrementable_traversal_tagEE5beginEv>
  404c88:	48 89 45 f8          	mov    %rax,-0x8(%rbp)
  404c8c:	48 8b 45 f8          	mov    -0x8(%rbp),%rax
  404c90:	48 83 c4 10          	add    $0x10,%rsp
  404c94:	5d                   	pop    %rbp
  404c95:	c3                   	retq   
  404c96:	66 2e 0f 1f 84 00 00 	nopw   %cs:0x0(%rax,%rax,1)
  404c9d:	00 00 00 

0000000000404ca0 <_ZNK5boost21iterator_range_detail19iterator_range_baseIN9__gnu_cxx17__normal_iteratorIPKcNSt7__cxx1112basic_stringIcSt11char_traitsIcESaIcEEEEENS_9iterators27incrementable_traversal_tagEE5beginEv>:
  404ca0:	55                   	push   %rbp
  404ca1:	48 89 e5             	mov    %rsp,%rbp
  404ca4:	48 89 7d f0          	mov    %rdi,-0x10(%rbp)
  404ca8:	48 8b 45 f0          	mov    -0x10(%rbp),%rax
  404cac:	48 8b 00             	mov    (%rax),%rax
  404caf:	48 89 45 f8          	mov    %rax,-0x8(%rbp)
  404cb3:	48 8b 45 f8          	mov    -0x8(%rbp),%rax
  404cb7:	5d                   	pop    %rbp
  404cb8:	c3                   	retq   
  404cb9:	0f 1f 80 00 00 00 00 	nopl   0x0(%rax)

0000000000404cc0 <_ZN5boost12range_detail9range_endIKNS_14iterator_rangeIN9__gnu_cxx17__normal_iteratorIPKcNSt7__cxx1112basic_stringIcSt11char_traitsIcESaIcEEEEEEEEENS_14range_iteratorIT_vE4typeERSH_>:
  404cc0:	55                   	push   %rbp
  404cc1:	48 89 e5             	mov    %rsp,%rbp
  404cc4:	48 83 ec 10          	sub    $0x10,%rsp
  404cc8:	48 89 7d f0          	mov    %rdi,-0x10(%rbp)
  404ccc:	48 8b 45 f0          	mov    -0x10(%rbp),%rax
  404cd0:	48 89 c7             	mov    %rax,%rdi
  404cd3:	e8 18 00 00 00       	callq  404cf0 <_ZNK5boost21iterator_range_detail19iterator_range_baseIN9__gnu_cxx17__normal_iteratorIPKcNSt7__cxx1112basic_stringIcSt11char_traitsIcESaIcEEEEENS_9iterators27incrementable_traversal_tagEE3endEv>
  404cd8:	48 89 45 f8          	mov    %rax,-0x8(%rbp)
  404cdc:	48 8b 45 f8          	mov    -0x8(%rbp),%rax
  404ce0:	48 83 c4 10          	add    $0x10,%rsp
  404ce4:	5d                   	pop    %rbp
  404ce5:	c3                   	retq   
  404ce6:	66 2e 0f 1f 84 00 00 	nopw   %cs:0x0(%rax,%rax,1)
  404ced:	00 00 00 

0000000000404cf0 <_ZNK5boost21iterator_range_detail19iterator_range_baseIN9__gnu_cxx17__normal_iteratorIPKcNSt7__cxx1112basic_stringIcSt11char_traitsIcESaIcEEEEENS_9iterators27incrementable_traversal_tagEE3endEv>:
  404cf0:	55                   	push   %rbp
  404cf1:	48 89 e5             	mov    %rsp,%rbp
  404cf4:	48 89 7d f0          	mov    %rdi,-0x10(%rbp)
  404cf8:	48 8b 45 f0          	mov    -0x10(%rbp),%rax
  404cfc:	48 8b 40 08          	mov    0x8(%rax),%rax
  404d00:	48 89 45 f8          	mov    %rax,-0x8(%rbp)
  404d04:	48 8b 45 f8          	mov    -0x8(%rbp),%rax
  404d08:	5d                   	pop    %rbp
  404d09:	c3                   	retq   
  404d0a:	66 0f 1f 44 00 00    	nopw   0x0(%rax,%rax,1)

0000000000404d10 <_ZSt6__sortIPcN9__gnu_cxx5__ops15_Iter_less_iterEEvT_S4_T0_>:
  404d10:	55                   	push   %rbp
  404d11:	48 89 e5             	mov    %rsp,%rbp
  404d14:	48 83 ec 40          	sub    $0x40,%rsp
  404d18:	48 89 7d f0          	mov    %rdi,-0x10(%rbp)
  404d1c:	48 89 75 e8          	mov    %rsi,-0x18(%rbp)
  404d20:	48 8b 45 f0          	mov    -0x10(%rbp),%rax
  404d24:	48 3b 45 e8          	cmp    -0x18(%rbp),%rax
  404d28:	0f 84 44 00 00 00    	je     404d72 <_ZSt6__sortIPcN9__gnu_cxx5__ops15_Iter_less_iterEEvT_S4_T0_+0x62>
  404d2e:	48 8b 7d f0          	mov    -0x10(%rbp),%rdi
  404d32:	48 8b 75 e8          	mov    -0x18(%rbp),%rsi
  404d36:	48 8b 45 e8          	mov    -0x18(%rbp),%rax
  404d3a:	48 8b 4d f0          	mov    -0x10(%rbp),%rcx
  404d3e:	48 29 c8             	sub    %rcx,%rax
  404d41:	48 89 7d d0          	mov    %rdi,-0x30(%rbp)
  404d45:	48 89 c7             	mov    %rax,%rdi
  404d48:	48 89 75 c8          	mov    %rsi,-0x38(%rbp)
  404d4c:	e8 cf 00 00 00       	callq  404e20 <_ZSt4__lgl>
  404d51:	48 c1 e0 01          	shl    $0x1,%rax
  404d55:	48 8b 7d d0          	mov    -0x30(%rbp),%rdi
  404d59:	48 8b 75 c8          	mov    -0x38(%rbp),%rsi
  404d5d:	48 89 c2             	mov    %rax,%rdx
  404d60:	e8 2b 00 00 00       	callq  404d90 <_ZSt16__introsort_loopIPclN9__gnu_cxx5__ops15_Iter_less_iterEEvT_S4_T0_T1_>
  404d65:	48 8b 7d f0          	mov    -0x10(%rbp),%rdi
  404d69:	48 8b 75 e8          	mov    -0x18(%rbp),%rsi
  404d6d:	e8 ce 00 00 00       	callq  404e40 <_ZSt22__final_insertion_sortIPcN9__gnu_cxx5__ops15_Iter_less_iterEEvT_S4_T0_>
  404d72:	48 83 c4 40          	add    $0x40,%rsp
  404d76:	5d                   	pop    %rbp
  404d77:	c3                   	retq   
  404d78:	0f 1f 84 00 00 00 00 	nopl   0x0(%rax,%rax,1)
  404d7f:	00 

0000000000404d80 <_ZN9__gnu_cxx5__ops16__iter_less_iterEv>:
  404d80:	55                   	push   %rbp
  404d81:	48 89 e5             	mov    %rsp,%rbp
  404d84:	5d                   	pop    %rbp
  404d85:	c3                   	retq   
  404d86:	66 2e 0f 1f 84 00 00 	nopw   %cs:0x0(%rax,%rax,1)
  404d8d:	00 00 00 

0000000000404d90 <_ZSt16__introsort_loopIPclN9__gnu_cxx5__ops15_Iter_less_iterEEvT_S4_T0_T1_>:
  404d90:	55                   	push   %rbp
  404d91:	48 89 e5             	mov    %rsp,%rbp
  404d94:	48 83 ec 40          	sub    $0x40,%rsp
  404d98:	48 89 7d f0          	mov    %rdi,-0x10(%rbp)
  404d9c:	48 89 75 e8          	mov    %rsi,-0x18(%rbp)
  404da0:	48 89 55 e0          	mov    %rdx,-0x20(%rbp)
  404da4:	48 8b 45 e8          	mov    -0x18(%rbp),%rax
  404da8:	48 8b 4d f0          	mov    -0x10(%rbp),%rcx
  404dac:	48 29 c8             	sub    %rcx,%rax
  404daf:	48 83 f8 10          	cmp    $0x10,%rax
  404db3:	0f 8e 5e 00 00 00    	jle    404e17 <_ZSt16__introsort_loopIPclN9__gnu_cxx5__ops15_Iter_less_iterEEvT_S4_T0_T1_+0x87>
  404db9:	48 83 7d e0 00       	cmpq   $0x0,-0x20(%rbp)
  404dbe:	0f 85 16 00 00 00    	jne    404dda <_ZSt16__introsort_loopIPclN9__gnu_cxx5__ops15_Iter_less_iterEEvT_S4_T0_T1_+0x4a>
  404dc4:	48 8b 7d f0          	mov    -0x10(%rbp),%rdi
  404dc8:	48 8b 75 e8          	mov    -0x18(%rbp),%rsi
  404dcc:	48 8b 55 e8          	mov    -0x18(%rbp),%rdx
  404dd0:	e8 db 00 00 00       	callq  404eb0 <_ZSt14__partial_sortIPcN9__gnu_cxx5__ops15_Iter_less_iterEEvT_S4_S4_T0_>
  404dd5:	e9 3d 00 00 00       	jmpq   404e17 <_ZSt16__introsort_loopIPclN9__gnu_cxx5__ops15_Iter_less_iterEEvT_S4_T0_T1_+0x87>
  404dda:	48 8b 45 e0          	mov    -0x20(%rbp),%rax
  404dde:	48 05 ff ff ff ff    	add    $0xffffffffffffffff,%rax
  404de4:	48 89 45 e0          	mov    %rax,-0x20(%rbp)
  404de8:	48 8b 7d f0          	mov    -0x10(%rbp),%rdi
  404dec:	48 8b 75 e8          	mov    -0x18(%rbp),%rsi
  404df0:	e8 fb 00 00 00       	callq  404ef0 <_ZSt27__unguarded_partition_pivotIPcN9__gnu_cxx5__ops15_Iter_less_iterEET_S4_S4_T0_>
  404df5:	48 89 45 d0          	mov    %rax,-0x30(%rbp)
  404df9:	48 8b 7d d0          	mov    -0x30(%rbp),%rdi
  404dfd:	48 8b 75 e8          	mov    -0x18(%rbp),%rsi
  404e01:	48 8b 55 e0          	mov    -0x20(%rbp),%rdx
  404e05:	e8 86 ff ff ff       	callq  404d90 <_ZSt16__introsort_loopIPclN9__gnu_cxx5__ops15_Iter_less_iterEEvT_S4_T0_T1_>
  404e0a:	48 8b 45 d0          	mov    -0x30(%rbp),%rax
  404e0e:	48 89 45 e8          	mov    %rax,-0x18(%rbp)
  404e12:	e9 8d ff ff ff       	jmpq   404da4 <_ZSt16__introsort_loopIPclN9__gnu_cxx5__ops15_Iter_less_iterEEvT_S4_T0_T1_+0x14>
  404e17:	48 83 c4 40          	add    $0x40,%rsp
  404e1b:	5d                   	pop    %rbp
  404e1c:	c3                   	retq   
  404e1d:	0f 1f 00             	nopl   (%rax)

0000000000404e20 <_ZSt4__lgl>:
  404e20:	55                   	push   %rbp
  404e21:	48 89 e5             	mov    %rsp,%rbp
  404e24:	48 89 7d f8          	mov    %rdi,-0x8(%rbp)
  404e28:	48 8b 45 f8          	mov    -0x8(%rbp),%rax
  404e2c:	48 0f bd c0          	bsr    %rax,%rax
  404e30:	48 83 f0 3f          	xor    $0x3f,%rax
  404e34:	b9 3f 00 00 00       	mov    $0x3f,%ecx
  404e39:	29 c1                	sub    %eax,%ecx
  404e3b:	48 63 c1             	movslq %ecx,%rax
  404e3e:	5d                   	pop    %rbp
  404e3f:	c3                   	retq   

0000000000404e40 <_ZSt22__final_insertion_sortIPcN9__gnu_cxx5__ops15_Iter_less_iterEEvT_S4_T0_>:
  404e40:	55                   	push   %rbp
  404e41:	48 89 e5             	mov    %rsp,%rbp
  404e44:	48 83 ec 30          	sub    $0x30,%rsp
  404e48:	48 89 7d f0          	mov    %rdi,-0x10(%rbp)
  404e4c:	48 89 75 e8          	mov    %rsi,-0x18(%rbp)
  404e50:	48 8b 45 e8          	mov    -0x18(%rbp),%rax
  404e54:	48 8b 4d f0          	mov    -0x10(%rbp),%rcx
  404e58:	48 29 c8             	sub    %rcx,%rax
  404e5b:	48 83 f8 10          	cmp    $0x10,%rax
  404e5f:	0f 8e 31 00 00 00    	jle    404e96 <_ZSt22__final_insertion_sortIPcN9__gnu_cxx5__ops15_Iter_less_iterEEvT_S4_T0_+0x56>
  404e65:	48 8b 7d f0          	mov    -0x10(%rbp),%rdi
  404e69:	48 8b 45 f0          	mov    -0x10(%rbp),%rax
  404e6d:	48 05 10 00 00 00    	add    $0x10,%rax
  404e73:	48 89 c6             	mov    %rax,%rsi
  404e76:	e8 e5 08 00 00       	callq  405760 <_ZSt16__insertion_sortIPcN9__gnu_cxx5__ops15_Iter_less_iterEEvT_S4_T0_>
  404e7b:	48 8b 45 f0          	mov    -0x10(%rbp),%rax
  404e7f:	48 05 10 00 00 00    	add    $0x10,%rax
  404e85:	48 8b 75 e8          	mov    -0x18(%rbp),%rsi
  404e89:	48 89 c7             	mov    %rax,%rdi
  404e8c:	e8 af 09 00 00       	callq  405840 <_ZSt26__unguarded_insertion_sortIPcN9__gnu_cxx5__ops15_Iter_less_iterEEvT_S4_T0_>
  404e91:	e9 0d 00 00 00       	jmpq   404ea3 <_ZSt22__final_insertion_sortIPcN9__gnu_cxx5__ops15_Iter_less_iterEEvT_S4_T0_+0x63>
  404e96:	48 8b 7d f0          	mov    -0x10(%rbp),%rdi
  404e9a:	48 8b 75 e8          	mov    -0x18(%rbp),%rsi
  404e9e:	e8 bd 08 00 00       	callq  405760 <_ZSt16__insertion_sortIPcN9__gnu_cxx5__ops15_Iter_less_iterEEvT_S4_T0_>
  404ea3:	48 83 c4 30          	add    $0x30,%rsp
  404ea7:	5d                   	pop    %rbp
  404ea8:	c3                   	retq   
  404ea9:	0f 1f 80 00 00 00 00 	nopl   0x0(%rax)

0000000000404eb0 <_ZSt14__partial_sortIPcN9__gnu_cxx5__ops15_Iter_less_iterEEvT_S4_S4_T0_>:
  404eb0:	55                   	push   %rbp
  404eb1:	48 89 e5             	mov    %rsp,%rbp
  404eb4:	48 83 ec 30          	sub    $0x30,%rsp
  404eb8:	48 89 7d f0          	mov    %rdi,-0x10(%rbp)
  404ebc:	48 89 75 e8          	mov    %rsi,-0x18(%rbp)
  404ec0:	48 89 55 e0          	mov    %rdx,-0x20(%rbp)
  404ec4:	48 8b 7d f0          	mov    -0x10(%rbp),%rdi
  404ec8:	48 8b 75 e8          	mov    -0x18(%rbp),%rsi
  404ecc:	48 8b 55 e0          	mov    -0x20(%rbp),%rdx
  404ed0:	e8 ab 00 00 00       	callq  404f80 <_ZSt13__heap_selectIPcN9__gnu_cxx5__ops15_Iter_less_iterEEvT_S4_S4_T0_>
  404ed5:	48 8b 7d f0          	mov    -0x10(%rbp),%rdi
  404ed9:	48 8b 75 e8          	mov    -0x18(%rbp),%rsi
  404edd:	48 8d 55 f8          	lea    -0x8(%rbp),%rdx
  404ee1:	e8 2a 01 00 00       	callq  405010 <_ZSt11__sort_heapIPcN9__gnu_cxx5__ops15_Iter_less_iterEEvT_S4_RT0_>
  404ee6:	48 83 c4 30          	add    $0x30,%rsp
  404eea:	5d                   	pop    %rbp
  404eeb:	c3                   	retq   
  404eec:	0f 1f 40 00          	nopl   0x0(%rax)

0000000000404ef0 <_ZSt27__unguarded_partition_pivotIPcN9__gnu_cxx5__ops15_Iter_less_iterEET_S4_S4_T0_>:
  404ef0:	55                   	push   %rbp
  404ef1:	48 89 e5             	mov    %rsp,%rbp
  404ef4:	48 83 ec 40          	sub    $0x40,%rsp
  404ef8:	48 89 7d f0          	mov    %rdi,-0x10(%rbp)
  404efc:	48 89 75 e8          	mov    %rsi,-0x18(%rbp)
  404f00:	48 8b 45 f0          	mov    -0x10(%rbp),%rax
  404f04:	48 8b 4d e8          	mov    -0x18(%rbp),%rcx
  404f08:	48 8b 55 f0          	mov    -0x10(%rbp),%rdx
  404f0c:	48 29 d1             	sub    %rdx,%rcx
  404f0f:	48 89 45 c8          	mov    %rax,-0x38(%rbp)
  404f13:	48 89 c8             	mov    %rcx,%rax
  404f16:	48 99                	cqto   
  404f18:	b9 02 00 00 00       	mov    $0x2,%ecx
  404f1d:	48 f7 f9             	idiv   %rcx
  404f20:	48 8b 4d c8          	mov    -0x38(%rbp),%rcx
  404f24:	48 01 c1             	add    %rax,%rcx
  404f27:	48 89 4d e0          	mov    %rcx,-0x20(%rbp)
  404f2b:	48 8b 7d f0          	mov    -0x10(%rbp),%rdi
  404f2f:	48 8b 45 f0          	mov    -0x10(%rbp),%rax
  404f33:	48 05 01 00 00 00    	add    $0x1,%rax
  404f39:	48 8b 4d e0          	mov    -0x20(%rbp),%rcx
  404f3d:	48 8b 75 e8          	mov    -0x18(%rbp),%rsi
  404f41:	48 81 c6 ff ff ff ff 	add    $0xffffffffffffffff,%rsi
  404f48:	48 89 75 c0          	mov    %rsi,-0x40(%rbp)
  404f4c:	48 89 c6             	mov    %rax,%rsi
  404f4f:	48 89 ca             	mov    %rcx,%rdx
  404f52:	48 8b 4d c0          	mov    -0x40(%rbp),%rcx
  404f56:	e8 85 05 00 00       	callq  4054e0 <_ZSt22__move_median_to_firstIPcN9__gnu_cxx5__ops15_Iter_less_iterEEvT_S4_S4_S4_T0_>
  404f5b:	48 8b 45 f0          	mov    -0x10(%rbp),%rax
  404f5f:	48 05 01 00 00 00    	add    $0x1,%rax
  404f65:	48 8b 75 e8          	mov    -0x18(%rbp),%rsi
  404f69:	48 8b 55 f0          	mov    -0x10(%rbp),%rdx
  404f6d:	48 89 c7             	mov    %rax,%rdi
  404f70:	e8 9b 06 00 00       	callq  405610 <_ZSt21__unguarded_partitionIPcN9__gnu_cxx5__ops15_Iter_less_iterEET_S4_S4_S4_T0_>
  404f75:	48 83 c4 40          	add    $0x40,%rsp
  404f79:	5d                   	pop    %rbp
  404f7a:	c3                   	retq   
  404f7b:	0f 1f 44 00 00       	nopl   0x0(%rax,%rax,1)

0000000000404f80 <_ZSt13__heap_selectIPcN9__gnu_cxx5__ops15_Iter_less_iterEEvT_S4_S4_T0_>:
  404f80:	55                   	push   %rbp
  404f81:	48 89 e5             	mov    %rsp,%rbp
  404f84:	48 83 ec 30          	sub    $0x30,%rsp
  404f88:	48 89 7d f0          	mov    %rdi,-0x10(%rbp)
  404f8c:	48 89 75 e8          	mov    %rsi,-0x18(%rbp)
  404f90:	48 89 55 e0          	mov    %rdx,-0x20(%rbp)
  404f94:	48 8b 7d f0          	mov    -0x10(%rbp),%rdi
  404f98:	48 8b 75 e8          	mov    -0x18(%rbp),%rsi
  404f9c:	48 8d 55 f8          	lea    -0x8(%rbp),%rdx
  404fa0:	e8 cb 00 00 00       	callq  405070 <_ZSt11__make_heapIPcN9__gnu_cxx5__ops15_Iter_less_iterEEvT_S4_RT0_>
  404fa5:	48 8b 45 e8          	mov    -0x18(%rbp),%rax
  404fa9:	48 89 45 d8          	mov    %rax,-0x28(%rbp)
  404fad:	48 8b 45 d8          	mov    -0x28(%rbp),%rax
  404fb1:	48 3b 45 e0          	cmp    -0x20(%rbp),%rax
  404fb5:	0f 83 4b 00 00 00    	jae    405006 <_ZSt13__heap_selectIPcN9__gnu_cxx5__ops15_Iter_less_iterEEvT_S4_S4_T0_+0x86>
  404fbb:	48 8b 75 d8          	mov    -0x28(%rbp),%rsi
  404fbf:	48 8b 55 f0          	mov    -0x10(%rbp),%rdx
  404fc3:	48 8d 7d f8          	lea    -0x8(%rbp),%rdi
  404fc7:	e8 74 01 00 00       	callq  405140 <_ZNK9__gnu_cxx5__ops15_Iter_less_iterclIPcS3_EEbT_T0_>
  404fcc:	a8 01                	test   $0x1,%al
  404fce:	0f 85 05 00 00 00    	jne    404fd9 <_ZSt13__heap_selectIPcN9__gnu_cxx5__ops15_Iter_less_iterEEvT_S4_S4_T0_+0x59>
  404fd4:	e9 15 00 00 00       	jmpq   404fee <_ZSt13__heap_selectIPcN9__gnu_cxx5__ops15_Iter_less_iterEEvT_S4_S4_T0_+0x6e>
  404fd9:	48 8b 7d f0          	mov    -0x10(%rbp),%rdi
  404fdd:	48 8b 75 e8          	mov    -0x18(%rbp),%rsi
  404fe1:	48 8b 55 d8          	mov    -0x28(%rbp),%rdx
  404fe5:	48 8d 4d f8          	lea    -0x8(%rbp),%rcx
  404fe9:	e8 82 01 00 00       	callq  405170 <_ZSt10__pop_heapIPcN9__gnu_cxx5__ops15_Iter_less_iterEEvT_S4_S4_RT0_>
  404fee:	e9 00 00 00 00       	jmpq   404ff3 <_ZSt13__heap_selectIPcN9__gnu_cxx5__ops15_Iter_less_iterEEvT_S4_S4_T0_+0x73>
  404ff3:	48 8b 45 d8          	mov    -0x28(%rbp),%rax
  404ff7:	48 05 01 00 00 00    	add    $0x1,%rax
  404ffd:	48 89 45 d8          	mov    %rax,-0x28(%rbp)
  405001:	e9 a7 ff ff ff       	jmpq   404fad <_ZSt13__heap_selectIPcN9__gnu_cxx5__ops15_Iter_less_iterEEvT_S4_S4_T0_+0x2d>
  405006:	48 83 c4 30          	add    $0x30,%rsp
  40500a:	5d                   	pop    %rbp
  40500b:	c3                   	retq   
  40500c:	0f 1f 40 00          	nopl   0x0(%rax)

0000000000405010 <_ZSt11__sort_heapIPcN9__gnu_cxx5__ops15_Iter_less_iterEEvT_S4_RT0_>:
  405010:	55                   	push   %rbp
  405011:	48 89 e5             	mov    %rsp,%rbp
  405014:	48 83 ec 20          	sub    $0x20,%rsp
  405018:	48 89 7d f8          	mov    %rdi,-0x8(%rbp)
  40501c:	48 89 75 f0          	mov    %rsi,-0x10(%rbp)
  405020:	48 89 55 e8          	mov    %rdx,-0x18(%rbp)
  405024:	48 8b 45 f0          	mov    -0x10(%rbp),%rax
  405028:	48 8b 4d f8          	mov    -0x8(%rbp),%rcx
  40502c:	48 29 c8             	sub    %rcx,%rax
  40502f:	48 83 f8 01          	cmp    $0x1,%rax
  405033:	0f 8e 28 00 00 00    	jle    405061 <_ZSt11__sort_heapIPcN9__gnu_cxx5__ops15_Iter_less_iterEEvT_S4_RT0_+0x51>
  405039:	48 8b 45 f0          	mov    -0x10(%rbp),%rax
  40503d:	48 05 ff ff ff ff    	add    $0xffffffffffffffff,%rax
  405043:	48 89 45 f0          	mov    %rax,-0x10(%rbp)
  405047:	48 8b 7d f8          	mov    -0x8(%rbp),%rdi
  40504b:	48 8b 75 f0          	mov    -0x10(%rbp),%rsi
  40504f:	48 8b 55 f0          	mov    -0x10(%rbp),%rdx
  405053:	48 8b 4d e8          	mov    -0x18(%rbp),%rcx
  405057:	e8 14 01 00 00       	callq  405170 <_ZSt10__pop_heapIPcN9__gnu_cxx5__ops15_Iter_less_iterEEvT_S4_S4_RT0_>
  40505c:	e9 c3 ff ff ff       	jmpq   405024 <_ZSt11__sort_heapIPcN9__gnu_cxx5__ops15_Iter_less_iterEEvT_S4_RT0_+0x14>
  405061:	48 83 c4 20          	add    $0x20,%rsp
  405065:	5d                   	pop    %rbp
  405066:	c3                   	retq   
  405067:	66 0f 1f 84 00 00 00 	nopw   0x0(%rax,%rax,1)
  40506e:	00 00 

0000000000405070 <_ZSt11__make_heapIPcN9__gnu_cxx5__ops15_Iter_less_iterEEvT_S4_RT0_>:
  405070:	55                   	push   %rbp
  405071:	48 89 e5             	mov    %rsp,%rbp
  405074:	48 83 ec 50          	sub    $0x50,%rsp
  405078:	48 89 7d f8          	mov    %rdi,-0x8(%rbp)
  40507c:	48 89 75 f0          	mov    %rsi,-0x10(%rbp)
  405080:	48 89 55 e8          	mov    %rdx,-0x18(%rbp)
  405084:	48 8b 45 f0          	mov    -0x10(%rbp),%rax
  405088:	48 8b 4d f8          	mov    -0x8(%rbp),%rcx
  40508c:	48 29 c8             	sub    %rcx,%rax
  40508f:	48 83 f8 02          	cmp    $0x2,%rax
  405093:	0f 8d 05 00 00 00    	jge    40509e <_ZSt11__make_heapIPcN9__gnu_cxx5__ops15_Iter_less_iterEEvT_S4_RT0_+0x2e>
  405099:	e9 97 00 00 00       	jmpq   405135 <_ZSt11__make_heapIPcN9__gnu_cxx5__ops15_Iter_less_iterEEvT_S4_RT0_+0xc5>
  40509e:	48 8b 45 f0          	mov    -0x10(%rbp),%rax
  4050a2:	48 8b 4d f8          	mov    -0x8(%rbp),%rcx
  4050a6:	48 29 c8             	sub    %rcx,%rax
  4050a9:	48 89 45 e0          	mov    %rax,-0x20(%rbp)
  4050ad:	48 8b 45 e0          	mov    -0x20(%rbp),%rax
  4050b1:	48 2d 02 00 00 00    	sub    $0x2,%rax
  4050b7:	48 99                	cqto   
  4050b9:	b9 02 00 00 00       	mov    $0x2,%ecx
  4050be:	48 f7 f9             	idiv   %rcx
  4050c1:	48 89 45 d8          	mov    %rax,-0x28(%rbp)
  4050c5:	48 8b 45 f8          	mov    -0x8(%rbp),%rax
  4050c9:	48 03 45 d8          	add    -0x28(%rbp),%rax
  4050cd:	48 89 c7             	mov    %rax,%rdi
  4050d0:	e8 1b 01 00 00       	callq  4051f0 <_ZSt4moveIRcEONSt16remove_referenceIT_E4typeEOS2_>
  4050d5:	8a 08                	mov    (%rax),%cl
  4050d7:	88 4d d7             	mov    %cl,-0x29(%rbp)
  4050da:	48 8b 7d f8          	mov    -0x8(%rbp),%rdi
  4050de:	48 8b 75 d8          	mov    -0x28(%rbp),%rsi
  4050e2:	48 8b 55 e0          	mov    -0x20(%rbp),%rdx
  4050e6:	48 8d 45 d7          	lea    -0x29(%rbp),%rax
  4050ea:	48 89 7d c8          	mov    %rdi,-0x38(%rbp)
  4050ee:	48 89 c7             	mov    %rax,%rdi
  4050f1:	48 89 75 c0          	mov    %rsi,-0x40(%rbp)
  4050f5:	48 89 55 b8          	mov    %rdx,-0x48(%rbp)
  4050f9:	e8 f2 00 00 00       	callq  4051f0 <_ZSt4moveIRcEONSt16remove_referenceIT_E4typeEOS2_>
  4050fe:	48 8b 7d c8          	mov    -0x38(%rbp),%rdi
  405102:	48 8b 75 c0          	mov    -0x40(%rbp),%rsi
  405106:	48 8b 55 b8          	mov    -0x48(%rbp),%rdx
  40510a:	0f be 08             	movsbl (%rax),%ecx
  40510d:	e8 ee 00 00 00       	callq  405200 <_ZSt13__adjust_heapIPclcN9__gnu_cxx5__ops15_Iter_less_iterEEvT_T0_S5_T1_T2_>
  405112:	48 83 7d d8 00       	cmpq   $0x0,-0x28(%rbp)
  405117:	0f 85 05 00 00 00    	jne    405122 <_ZSt11__make_heapIPcN9__gnu_cxx5__ops15_Iter_less_iterEEvT_S4_RT0_+0xb2>
  40511d:	e9 13 00 00 00       	jmpq   405135 <_ZSt11__make_heapIPcN9__gnu_cxx5__ops15_Iter_less_iterEEvT_S4_RT0_+0xc5>
  405122:	48 8b 45 d8          	mov    -0x28(%rbp),%rax
  405126:	48 05 ff ff ff ff    	add    $0xffffffffffffffff,%rax
  40512c:	48 89 45 d8          	mov    %rax,-0x28(%rbp)
  405130:	e9 90 ff ff ff       	jmpq   4050c5 <_ZSt11__make_heapIPcN9__gnu_cxx5__ops15_Iter_less_iterEEvT_S4_RT0_+0x55>
  405135:	48 83 c4 50          	add    $0x50,%rsp
  405139:	5d                   	pop    %rbp
  40513a:	c3                   	retq   
  40513b:	0f 1f 44 00 00       	nopl   0x0(%rax,%rax,1)

0000000000405140 <_ZNK9__gnu_cxx5__ops15_Iter_less_iterclIPcS3_EEbT_T0_>:
  405140:	55                   	push   %rbp
  405141:	48 89 e5             	mov    %rsp,%rbp
  405144:	48 89 7d f8          	mov    %rdi,-0x8(%rbp)
  405148:	48 89 75 f0          	mov    %rsi,-0x10(%rbp)
  40514c:	48 89 55 e8          	mov    %rdx,-0x18(%rbp)
  405150:	48 8b 45 f0          	mov    -0x10(%rbp),%rax
  405154:	0f be 08             	movsbl (%rax),%ecx
  405157:	48 8b 45 e8          	mov    -0x18(%rbp),%rax
  40515b:	44 0f be 00          	movsbl (%rax),%r8d
  40515f:	44 39 c1             	cmp    %r8d,%ecx
  405162:	41 0f 9c c1          	setl   %r9b
  405166:	41 80 e1 01          	and    $0x1,%r9b
  40516a:	41 0f b6 c1          	movzbl %r9b,%eax
  40516e:	5d                   	pop    %rbp
  40516f:	c3                   	retq   

0000000000405170 <_ZSt10__pop_heapIPcN9__gnu_cxx5__ops15_Iter_less_iterEEvT_S4_S4_RT0_>:
  405170:	55                   	push   %rbp
  405171:	48 89 e5             	mov    %rsp,%rbp
  405174:	48 83 ec 40          	sub    $0x40,%rsp
  405178:	48 89 7d f8          	mov    %rdi,-0x8(%rbp)
  40517c:	48 89 75 f0          	mov    %rsi,-0x10(%rbp)
  405180:	48 89 55 e8          	mov    %rdx,-0x18(%rbp)
  405184:	48 89 4d e0          	mov    %rcx,-0x20(%rbp)
  405188:	48 8b 7d e8          	mov    -0x18(%rbp),%rdi
  40518c:	e8 5f 00 00 00       	callq  4051f0 <_ZSt4moveIRcEONSt16remove_referenceIT_E4typeEOS2_>
  405191:	44 8a 00             	mov    (%rax),%r8b
  405194:	44 88 45 df          	mov    %r8b,-0x21(%rbp)
  405198:	48 8b 7d f8          	mov    -0x8(%rbp),%rdi
  40519c:	e8 4f 00 00 00       	callq  4051f0 <_ZSt4moveIRcEONSt16remove_referenceIT_E4typeEOS2_>
  4051a1:	44 8a 00             	mov    (%rax),%r8b
  4051a4:	48 8b 45 e8          	mov    -0x18(%rbp),%rax
  4051a8:	44 88 00             	mov    %r8b,(%rax)
  4051ab:	48 8b 7d f8          	mov    -0x8(%rbp),%rdi
  4051af:	48 8b 45 f0          	mov    -0x10(%rbp),%rax
  4051b3:	48 8b 4d f8          	mov    -0x8(%rbp),%rcx
  4051b7:	48 29 c8             	sub    %rcx,%rax
  4051ba:	48 8d 4d df          	lea    -0x21(%rbp),%rcx
  4051be:	48 89 7d d0          	mov    %rdi,-0x30(%rbp)
  4051c2:	48 89 cf             	mov    %rcx,%rdi
  4051c5:	48 89 45 c8          	mov    %rax,-0x38(%rbp)
  4051c9:	e8 22 00 00 00       	callq  4051f0 <_ZSt4moveIRcEONSt16remove_referenceIT_E4typeEOS2_>
  4051ce:	45 31 c9             	xor    %r9d,%r9d
  4051d1:	44 89 ce             	mov    %r9d,%esi
  4051d4:	48 8b 7d d0          	mov    -0x30(%rbp),%rdi
  4051d8:	48 8b 55 c8          	mov    -0x38(%rbp),%rdx
  4051dc:	0f be 08             	movsbl (%rax),%ecx
  4051df:	e8 1c 00 00 00       	callq  405200 <_ZSt13__adjust_heapIPclcN9__gnu_cxx5__ops15_Iter_less_iterEEvT_T0_S5_T1_T2_>
  4051e4:	48 83 c4 40          	add    $0x40,%rsp
  4051e8:	5d                   	pop    %rbp
  4051e9:	c3                   	retq   
  4051ea:	66 0f 1f 44 00 00    	nopw   0x0(%rax,%rax,1)

00000000004051f0 <_ZSt4moveIRcEONSt16remove_referenceIT_E4typeEOS2_>:
  4051f0:	55                   	push   %rbp
  4051f1:	48 89 e5             	mov    %rsp,%rbp
  4051f4:	48 89 7d f8          	mov    %rdi,-0x8(%rbp)
  4051f8:	48 8b 45 f8          	mov    -0x8(%rbp),%rax
  4051fc:	5d                   	pop    %rbp
  4051fd:	c3                   	retq   
  4051fe:	66 90                	xchg   %ax,%ax

0000000000405200 <_ZSt13__adjust_heapIPclcN9__gnu_cxx5__ops15_Iter_less_iterEEvT_T0_S5_T1_T2_>:
  405200:	55                   	push   %rbp
  405201:	48 89 e5             	mov    %rsp,%rbp
  405204:	48 81 ec 80 00 00 00 	sub    $0x80,%rsp
  40520b:	48 89 7d f0          	mov    %rdi,-0x10(%rbp)
  40520f:	48 89 75 e8          	mov    %rsi,-0x18(%rbp)
  405213:	48 89 55 e0          	mov    %rdx,-0x20(%rbp)
  405217:	88 4d df             	mov    %cl,-0x21(%rbp)
  40521a:	48 8b 45 e8          	mov    -0x18(%rbp),%rax
  40521e:	48 89 45 d0          	mov    %rax,-0x30(%rbp)
  405222:	48 8b 45 e8          	mov    -0x18(%rbp),%rax
  405226:	48 89 45 c8          	mov    %rax,-0x38(%rbp)
  40522a:	48 8b 45 c8          	mov    -0x38(%rbp),%rax
  40522e:	48 8b 4d e0          	mov    -0x20(%rbp),%rcx
  405232:	48 81 e9 01 00 00 00 	sub    $0x1,%rcx
  405239:	48 89 45 b0          	mov    %rax,-0x50(%rbp)
  40523d:	48 89 c8             	mov    %rcx,%rax
  405240:	48 99                	cqto   
  405242:	b9 02 00 00 00       	mov    $0x2,%ecx
  405247:	48 f7 f9             	idiv   %rcx
  40524a:	48 8b 4d b0          	mov    -0x50(%rbp),%rcx
  40524e:	48 39 c1             	cmp    %rax,%rcx
  405251:	0f 8d 80 00 00 00    	jge    4052d7 <_ZSt13__adjust_heapIPclcN9__gnu_cxx5__ops15_Iter_less_iterEEvT_T0_S5_T1_T2_+0xd7>
  405257:	48 8b 45 c8          	mov    -0x38(%rbp),%rax
  40525b:	48 05 01 00 00 00    	add    $0x1,%rax
  405261:	48 c1 e0 01          	shl    $0x1,%rax
  405265:	48 89 45 c8          	mov    %rax,-0x38(%rbp)
  405269:	48 8b 45 f0          	mov    -0x10(%rbp),%rax
  40526d:	48 03 45 c8          	add    -0x38(%rbp),%rax
  405271:	48 8b 4d f0          	mov    -0x10(%rbp),%rcx
  405275:	48 8b 55 c8          	mov    -0x38(%rbp),%rdx
  405279:	48 81 ea 01 00 00 00 	sub    $0x1,%rdx
  405280:	48 01 d1             	add    %rdx,%rcx
  405283:	48 8d 7d f8          	lea    -0x8(%rbp),%rdi
  405287:	48 89 c6             	mov    %rax,%rsi
  40528a:	48 89 ca             	mov    %rcx,%rdx
  40528d:	e8 ae fe ff ff       	callq  405140 <_ZNK9__gnu_cxx5__ops15_Iter_less_iterclIPcS3_EEbT_T0_>
  405292:	a8 01                	test   $0x1,%al
  405294:	0f 85 05 00 00 00    	jne    40529f <_ZSt13__adjust_heapIPclcN9__gnu_cxx5__ops15_Iter_less_iterEEvT_T0_S5_T1_T2_+0x9f>
  40529a:	e9 0e 00 00 00       	jmpq   4052ad <_ZSt13__adjust_heapIPclcN9__gnu_cxx5__ops15_Iter_less_iterEEvT_T0_S5_T1_T2_+0xad>
  40529f:	48 8b 45 c8          	mov    -0x38(%rbp),%rax
  4052a3:	48 05 ff ff ff ff    	add    $0xffffffffffffffff,%rax
  4052a9:	48 89 45 c8          	mov    %rax,-0x38(%rbp)
  4052ad:	48 8b 45 f0          	mov    -0x10(%rbp),%rax
  4052b1:	48 03 45 c8          	add    -0x38(%rbp),%rax
  4052b5:	48 89 c7             	mov    %rax,%rdi
  4052b8:	e8 33 ff ff ff       	callq  4051f0 <_ZSt4moveIRcEONSt16remove_referenceIT_E4typeEOS2_>
  4052bd:	8a 08                	mov    (%rax),%cl
  4052bf:	48 8b 45 f0          	mov    -0x10(%rbp),%rax
  4052c3:	48 8b 55 e8          	mov    -0x18(%rbp),%rdx
  4052c7:	88 0c 10             	mov    %cl,(%rax,%rdx,1)
  4052ca:	48 8b 45 c8          	mov    -0x38(%rbp),%rax
  4052ce:	48 89 45 e8          	mov    %rax,-0x18(%rbp)
  4052d2:	e9 53 ff ff ff       	jmpq   40522a <_ZSt13__adjust_heapIPclcN9__gnu_cxx5__ops15_Iter_less_iterEEvT_T0_S5_T1_T2_+0x2a>
  4052d7:	48 8b 45 e0          	mov    -0x20(%rbp),%rax
  4052db:	48 25 01 00 00 00    	and    $0x1,%rax
  4052e1:	48 83 f8 00          	cmp    $0x0,%rax
  4052e5:	0f 85 74 00 00 00    	jne    40535f <_ZSt13__adjust_heapIPclcN9__gnu_cxx5__ops15_Iter_less_iterEEvT_T0_S5_T1_T2_+0x15f>
  4052eb:	48 8b 45 c8          	mov    -0x38(%rbp),%rax
  4052ef:	48 8b 4d e0          	mov    -0x20(%rbp),%rcx
  4052f3:	48 81 e9 02 00 00 00 	sub    $0x2,%rcx
  4052fa:	48 89 45 a8          	mov    %rax,-0x58(%rbp)
  4052fe:	48 89 c8             	mov    %rcx,%rax
  405301:	48 99                	cqto   
  405303:	b9 02 00 00 00       	mov    $0x2,%ecx
  405308:	48 f7 f9             	idiv   %rcx
  40530b:	48 8b 4d a8          	mov    -0x58(%rbp),%rcx
  40530f:	48 39 c1             	cmp    %rax,%rcx
  405312:	0f 85 47 00 00 00    	jne    40535f <_ZSt13__adjust_heapIPclcN9__gnu_cxx5__ops15_Iter_less_iterEEvT_T0_S5_T1_T2_+0x15f>
  405318:	48 8b 45 c8          	mov    -0x38(%rbp),%rax
  40531c:	48 05 01 00 00 00    	add    $0x1,%rax
  405322:	48 c1 e0 01          	shl    $0x1,%rax
  405326:	48 89 45 c8          	mov    %rax,-0x38(%rbp)
  40532a:	48 8b 45 f0          	mov    -0x10(%rbp),%rax
  40532e:	48 8b 4d c8          	mov    -0x38(%rbp),%rcx
  405332:	48 81 e9 01 00 00 00 	sub    $0x1,%rcx
  405339:	48 01 c8             	add    %rcx,%rax
  40533c:	48 89 c7             	mov    %rax,%rdi
  40533f:	e8 ac fe ff ff       	callq  4051f0 <_ZSt4moveIRcEONSt16remove_referenceIT_E4typeEOS2_>
  405344:	8a 10                	mov    (%rax),%dl
  405346:	48 8b 45 f0          	mov    -0x10(%rbp),%rax
  40534a:	48 8b 4d e8          	mov    -0x18(%rbp),%rcx
  40534e:	88 14 08             	mov    %dl,(%rax,%rcx,1)
  405351:	48 8b 45 c8          	mov    -0x38(%rbp),%rax
  405355:	48 2d 01 00 00 00    	sub    $0x1,%rax
  40535b:	48 89 45 e8          	mov    %rax,-0x18(%rbp)
  40535f:	48 8d 7d f8          	lea    -0x8(%rbp),%rdi
  405363:	e8 58 00 00 00       	callq  4053c0 <_ZSt4moveIRN9__gnu_cxx5__ops15_Iter_less_iterEEONSt16remove_referenceIT_E4typeEOS5_>
  405368:	48 8d 7d c0          	lea    -0x40(%rbp),%rdi
  40536c:	48 89 45 a0          	mov    %rax,-0x60(%rbp)
  405370:	e8 5b 00 00 00       	callq  4053d0 <_ZN9__gnu_cxx5__ops14_Iter_less_valC2ENS0_15_Iter_less_iterE>
  405375:	48 8b 7d f0          	mov    -0x10(%rbp),%rdi
  405379:	48 8b 75 e8          	mov    -0x18(%rbp),%rsi
  40537d:	48 8b 55 d0          	mov    -0x30(%rbp),%rdx
  405381:	48 8d 45 df          	lea    -0x21(%rbp),%rax
  405385:	48 89 7d 98          	mov    %rdi,-0x68(%rbp)
  405389:	48 89 c7             	mov    %rax,%rdi
  40538c:	48 89 75 90          	mov    %rsi,-0x70(%rbp)
  405390:	48 89 55 88          	mov    %rdx,-0x78(%rbp)
  405394:	e8 57 fe ff ff       	callq  4051f0 <_ZSt4moveIRcEONSt16remove_referenceIT_E4typeEOS2_>
  405399:	48 8b 7d 98          	mov    -0x68(%rbp),%rdi
  40539d:	48 8b 75 90          	mov    -0x70(%rbp),%rsi
  4053a1:	48 8b 55 88          	mov    -0x78(%rbp),%rdx
  4053a5:	0f be 08             	movsbl (%rax),%ecx
  4053a8:	4c 8d 45 c0          	lea    -0x40(%rbp),%r8
  4053ac:	e8 2f 00 00 00       	callq  4053e0 <_ZSt11__push_heapIPclcN9__gnu_cxx5__ops14_Iter_less_valEEvT_T0_S5_T1_RT2_>
  4053b1:	48 81 c4 80 00 00 00 	add    $0x80,%rsp
  4053b8:	5d                   	pop    %rbp
  4053b9:	c3                   	retq   
  4053ba:	66 0f 1f 44 00 00    	nopw   0x0(%rax,%rax,1)

00000000004053c0 <_ZSt4moveIRN9__gnu_cxx5__ops15_Iter_less_iterEEONSt16remove_referenceIT_E4typeEOS5_>:
  4053c0:	55                   	push   %rbp
  4053c1:	48 89 e5             	mov    %rsp,%rbp
  4053c4:	48 89 7d f8          	mov    %rdi,-0x8(%rbp)
  4053c8:	48 8b 45 f8          	mov    -0x8(%rbp),%rax
  4053cc:	5d                   	pop    %rbp
  4053cd:	c3                   	retq   
  4053ce:	66 90                	xchg   %ax,%ax

00000000004053d0 <_ZN9__gnu_cxx5__ops14_Iter_less_valC2ENS0_15_Iter_less_iterE>:
  4053d0:	55                   	push   %rbp
  4053d1:	48 89 e5             	mov    %rsp,%rbp
  4053d4:	48 89 7d f0          	mov    %rdi,-0x10(%rbp)
  4053d8:	5d                   	pop    %rbp
  4053d9:	c3                   	retq   
  4053da:	66 0f 1f 44 00 00    	nopw   0x0(%rax,%rax,1)

00000000004053e0 <_ZSt11__push_heapIPclcN9__gnu_cxx5__ops14_Iter_less_valEEvT_T0_S5_T1_RT2_>:
  4053e0:	55                   	push   %rbp
  4053e1:	48 89 e5             	mov    %rsp,%rbp
  4053e4:	48 83 ec 40          	sub    $0x40,%rsp
  4053e8:	48 89 7d f8          	mov    %rdi,-0x8(%rbp)
  4053ec:	48 89 75 f0          	mov    %rsi,-0x10(%rbp)
  4053f0:	48 89 55 e8          	mov    %rdx,-0x18(%rbp)
  4053f4:	88 4d e7             	mov    %cl,-0x19(%rbp)
  4053f7:	4c 89 45 d8          	mov    %r8,-0x28(%rbp)
  4053fb:	48 8b 45 f0          	mov    -0x10(%rbp),%rax
  4053ff:	48 2d 01 00 00 00    	sub    $0x1,%rax
  405405:	48 99                	cqto   
  405407:	be 02 00 00 00       	mov    $0x2,%esi
  40540c:	48 f7 fe             	idiv   %rsi
  40540f:	48 89 45 d0          	mov    %rax,-0x30(%rbp)
  405413:	31 c0                	xor    %eax,%eax
  405415:	48 8b 4d f0          	mov    -0x10(%rbp),%rcx
  405419:	48 3b 4d e8          	cmp    -0x18(%rbp),%rcx
  40541d:	88 45 cf             	mov    %al,-0x31(%rbp)
  405420:	0f 8e 1b 00 00 00    	jle    405441 <_ZSt11__push_heapIPclcN9__gnu_cxx5__ops14_Iter_less_valEEvT_T0_S5_T1_RT2_+0x61>
  405426:	48 8b 7d d8          	mov    -0x28(%rbp),%rdi
  40542a:	48 8b 45 f8          	mov    -0x8(%rbp),%rax
  40542e:	48 03 45 d0          	add    -0x30(%rbp),%rax
  405432:	48 89 c6             	mov    %rax,%rsi
  405435:	48 8d 55 e7          	lea    -0x19(%rbp),%rdx
  405439:	e8 72 00 00 00       	callq  4054b0 <_ZNK9__gnu_cxx5__ops14_Iter_less_valclIPccEEbT_RT0_>
  40543e:	88 45 cf             	mov    %al,-0x31(%rbp)
  405441:	8a 45 cf             	mov    -0x31(%rbp),%al
  405444:	a8 01                	test   $0x1,%al
  405446:	0f 85 05 00 00 00    	jne    405451 <_ZSt11__push_heapIPclcN9__gnu_cxx5__ops14_Iter_less_valEEvT_T0_S5_T1_RT2_+0x71>
  40544c:	e9 42 00 00 00       	jmpq   405493 <_ZSt11__push_heapIPclcN9__gnu_cxx5__ops14_Iter_less_valEEvT_T0_S5_T1_RT2_+0xb3>
  405451:	48 8b 45 f8          	mov    -0x8(%rbp),%rax
  405455:	48 03 45 d0          	add    -0x30(%rbp),%rax
  405459:	48 89 c7             	mov    %rax,%rdi
  40545c:	e8 8f fd ff ff       	callq  4051f0 <_ZSt4moveIRcEONSt16remove_referenceIT_E4typeEOS2_>
  405461:	8a 08                	mov    (%rax),%cl
  405463:	48 8b 45 f8          	mov    -0x8(%rbp),%rax
  405467:	48 8b 55 f0          	mov    -0x10(%rbp),%rdx
  40546b:	88 0c 10             	mov    %cl,(%rax,%rdx,1)
  40546e:	48 8b 45 d0          	mov    -0x30(%rbp),%rax
  405472:	48 89 45 f0          	mov    %rax,-0x10(%rbp)
  405476:	48 8b 45 f0          	mov    -0x10(%rbp),%rax
  40547a:	48 2d 01 00 00 00    	sub    $0x1,%rax
  405480:	48 99                	cqto   
  405482:	be 02 00 00 00       	mov    $0x2,%esi
  405487:	48 f7 fe             	idiv   %rsi
  40548a:	48 89 45 d0          	mov    %rax,-0x30(%rbp)
  40548e:	e9 80 ff ff ff       	jmpq   405413 <_ZSt11__push_heapIPclcN9__gnu_cxx5__ops14_Iter_less_valEEvT_T0_S5_T1_RT2_+0x33>
  405493:	48 8d 7d e7          	lea    -0x19(%rbp),%rdi
  405497:	e8 54 fd ff ff       	callq  4051f0 <_ZSt4moveIRcEONSt16remove_referenceIT_E4typeEOS2_>
  40549c:	8a 08                	mov    (%rax),%cl
  40549e:	48 8b 45 f8          	mov    -0x8(%rbp),%rax
  4054a2:	48 8b 55 f0          	mov    -0x10(%rbp),%rdx
  4054a6:	88 0c 10             	mov    %cl,(%rax,%rdx,1)
  4054a9:	48 83 c4 40          	add    $0x40,%rsp
  4054ad:	5d                   	pop    %rbp
  4054ae:	c3                   	retq   
  4054af:	90                   	nop

00000000004054b0 <_ZNK9__gnu_cxx5__ops14_Iter_less_valclIPccEEbT_RT0_>:
  4054b0:	55                   	push   %rbp
  4054b1:	48 89 e5             	mov    %rsp,%rbp
  4054b4:	48 89 7d f8          	mov    %rdi,-0x8(%rbp)
  4054b8:	48 89 75 f0          	mov    %rsi,-0x10(%rbp)
  4054bc:	48 89 55 e8          	mov    %rdx,-0x18(%rbp)
  4054c0:	48 8b 45 f0          	mov    -0x10(%rbp),%rax
  4054c4:	0f be 08             	movsbl (%rax),%ecx
  4054c7:	48 8b 45 e8          	mov    -0x18(%rbp),%rax
  4054cb:	44 0f be 00          	movsbl (%rax),%r8d
  4054cf:	44 39 c1             	cmp    %r8d,%ecx
  4054d2:	41 0f 9c c1          	setl   %r9b
  4054d6:	41 80 e1 01          	and    $0x1,%r9b
  4054da:	41 0f b6 c1          	movzbl %r9b,%eax
  4054de:	5d                   	pop    %rbp
  4054df:	c3                   	retq   

00000000004054e0 <_ZSt22__move_median_to_firstIPcN9__gnu_cxx5__ops15_Iter_less_iterEEvT_S4_S4_S4_T0_>:
  4054e0:	55                   	push   %rbp
  4054e1:	48 89 e5             	mov    %rsp,%rbp
  4054e4:	48 83 ec 30          	sub    $0x30,%rsp
  4054e8:	48 89 7d f0          	mov    %rdi,-0x10(%rbp)
  4054ec:	48 89 75 e8          	mov    %rsi,-0x18(%rbp)
  4054f0:	48 89 55 e0          	mov    %rdx,-0x20(%rbp)
  4054f4:	48 89 4d d8          	mov    %rcx,-0x28(%rbp)
  4054f8:	48 8b 75 e8          	mov    -0x18(%rbp),%rsi
  4054fc:	48 8b 55 e0          	mov    -0x20(%rbp),%rdx
  405500:	48 8d 7d f8          	lea    -0x8(%rbp),%rdi
  405504:	e8 37 fc ff ff       	callq  405140 <_ZNK9__gnu_cxx5__ops15_Iter_less_iterclIPcS3_EEbT_T0_>
  405509:	a8 01                	test   $0x1,%al
  40550b:	0f 85 05 00 00 00    	jne    405516 <_ZSt22__move_median_to_firstIPcN9__gnu_cxx5__ops15_Iter_less_iterEEvT_S4_S4_S4_T0_+0x36>
  405511:	e9 77 00 00 00       	jmpq   40558d <_ZSt22__move_median_to_firstIPcN9__gnu_cxx5__ops15_Iter_less_iterEEvT_S4_S4_S4_T0_+0xad>
  405516:	48 8b 75 e0          	mov    -0x20(%rbp),%rsi
  40551a:	48 8b 55 d8          	mov    -0x28(%rbp),%rdx
  40551e:	48 8d 7d f8          	lea    -0x8(%rbp),%rdi
  405522:	e8 19 fc ff ff       	callq  405140 <_ZNK9__gnu_cxx5__ops15_Iter_less_iterclIPcS3_EEbT_T0_>
  405527:	a8 01                	test   $0x1,%al
  405529:	0f 85 05 00 00 00    	jne    405534 <_ZSt22__move_median_to_firstIPcN9__gnu_cxx5__ops15_Iter_less_iterEEvT_S4_S4_S4_T0_+0x54>
  40552f:	e9 12 00 00 00       	jmpq   405546 <_ZSt22__move_median_to_firstIPcN9__gnu_cxx5__ops15_Iter_less_iterEEvT_S4_S4_S4_T0_+0x66>
  405534:	48 8b 7d f0          	mov    -0x10(%rbp),%rdi
  405538:	48 8b 75 e0          	mov    -0x20(%rbp),%rsi
  40553c:	e8 9f 01 00 00       	callq  4056e0 <_ZSt9iter_swapIPcS0_EvT_T0_>
  405541:	e9 42 00 00 00       	jmpq   405588 <_ZSt22__move_median_to_firstIPcN9__gnu_cxx5__ops15_Iter_less_iterEEvT_S4_S4_S4_T0_+0xa8>
  405546:	48 8b 75 e8          	mov    -0x18(%rbp),%rsi
  40554a:	48 8b 55 d8          	mov    -0x28(%rbp),%rdx
  40554e:	48 8d 7d f8          	lea    -0x8(%rbp),%rdi
  405552:	e8 e9 fb ff ff       	callq  405140 <_ZNK9__gnu_cxx5__ops15_Iter_less_iterclIPcS3_EEbT_T0_>
  405557:	a8 01                	test   $0x1,%al
  405559:	0f 85 05 00 00 00    	jne    405564 <_ZSt22__move_median_to_firstIPcN9__gnu_cxx5__ops15_Iter_less_iterEEvT_S4_S4_S4_T0_+0x84>
  40555f:	e9 12 00 00 00       	jmpq   405576 <_ZSt22__move_median_to_firstIPcN9__gnu_cxx5__ops15_Iter_less_iterEEvT_S4_S4_S4_T0_+0x96>
  405564:	48 8b 7d f0          	mov    -0x10(%rbp),%rdi
  405568:	48 8b 75 d8          	mov    -0x28(%rbp),%rsi
  40556c:	e8 6f 01 00 00       	callq  4056e0 <_ZSt9iter_swapIPcS0_EvT_T0_>
  405571:	e9 0d 00 00 00       	jmpq   405583 <_ZSt22__move_median_to_firstIPcN9__gnu_cxx5__ops15_Iter_less_iterEEvT_S4_S4_S4_T0_+0xa3>
  405576:	48 8b 7d f0          	mov    -0x10(%rbp),%rdi
  40557a:	48 8b 75 e8          	mov    -0x18(%rbp),%rsi
  40557e:	e8 5d 01 00 00       	callq  4056e0 <_ZSt9iter_swapIPcS0_EvT_T0_>
  405583:	e9 00 00 00 00       	jmpq   405588 <_ZSt22__move_median_to_firstIPcN9__gnu_cxx5__ops15_Iter_less_iterEEvT_S4_S4_S4_T0_+0xa8>
  405588:	e9 77 00 00 00       	jmpq   405604 <_ZSt22__move_median_to_firstIPcN9__gnu_cxx5__ops15_Iter_less_iterEEvT_S4_S4_S4_T0_+0x124>
  40558d:	48 8b 75 e8          	mov    -0x18(%rbp),%rsi
  405591:	48 8b 55 d8          	mov    -0x28(%rbp),%rdx
  405595:	48 8d 7d f8          	lea    -0x8(%rbp),%rdi
  405599:	e8 a2 fb ff ff       	callq  405140 <_ZNK9__gnu_cxx5__ops15_Iter_less_iterclIPcS3_EEbT_T0_>
  40559e:	a8 01                	test   $0x1,%al
  4055a0:	0f 85 05 00 00 00    	jne    4055ab <_ZSt22__move_median_to_firstIPcN9__gnu_cxx5__ops15_Iter_less_iterEEvT_S4_S4_S4_T0_+0xcb>
  4055a6:	e9 12 00 00 00       	jmpq   4055bd <_ZSt22__move_median_to_firstIPcN9__gnu_cxx5__ops15_Iter_less_iterEEvT_S4_S4_S4_T0_+0xdd>
  4055ab:	48 8b 7d f0          	mov    -0x10(%rbp),%rdi
  4055af:	48 8b 75 e8          	mov    -0x18(%rbp),%rsi
  4055b3:	e8 28 01 00 00       	callq  4056e0 <_ZSt9iter_swapIPcS0_EvT_T0_>
  4055b8:	e9 42 00 00 00       	jmpq   4055ff <_ZSt22__move_median_to_firstIPcN9__gnu_cxx5__ops15_Iter_less_iterEEvT_S4_S4_S4_T0_+0x11f>
  4055bd:	48 8b 75 e0          	mov    -0x20(%rbp),%rsi
  4055c1:	48 8b 55 d8          	mov    -0x28(%rbp),%rdx
  4055c5:	48 8d 7d f8          	lea    -0x8(%rbp),%rdi
  4055c9:	e8 72 fb ff ff       	callq  405140 <_ZNK9__gnu_cxx5__ops15_Iter_less_iterclIPcS3_EEbT_T0_>
  4055ce:	a8 01                	test   $0x1,%al
  4055d0:	0f 85 05 00 00 00    	jne    4055db <_ZSt22__move_median_to_firstIPcN9__gnu_cxx5__ops15_Iter_less_iterEEvT_S4_S4_S4_T0_+0xfb>
  4055d6:	e9 12 00 00 00       	jmpq   4055ed <_ZSt22__move_median_to_firstIPcN9__gnu_cxx5__ops15_Iter_less_iterEEvT_S4_S4_S4_T0_+0x10d>
  4055db:	48 8b 7d f0          	mov    -0x10(%rbp),%rdi
  4055df:	48 8b 75 d8          	mov    -0x28(%rbp),%rsi
  4055e3:	e8 f8 00 00 00       	callq  4056e0 <_ZSt9iter_swapIPcS0_EvT_T0_>
  4055e8:	e9 0d 00 00 00       	jmpq   4055fa <_ZSt22__move_median_to_firstIPcN9__gnu_cxx5__ops15_Iter_less_iterEEvT_S4_S4_S4_T0_+0x11a>
  4055ed:	48 8b 7d f0          	mov    -0x10(%rbp),%rdi
  4055f1:	48 8b 75 e0          	mov    -0x20(%rbp),%rsi
  4055f5:	e8 e6 00 00 00       	callq  4056e0 <_ZSt9iter_swapIPcS0_EvT_T0_>
  4055fa:	e9 00 00 00 00       	jmpq   4055ff <_ZSt22__move_median_to_firstIPcN9__gnu_cxx5__ops15_Iter_less_iterEEvT_S4_S4_S4_T0_+0x11f>
  4055ff:	e9 00 00 00 00       	jmpq   405604 <_ZSt22__move_median_to_firstIPcN9__gnu_cxx5__ops15_Iter_less_iterEEvT_S4_S4_S4_T0_+0x124>
  405604:	48 83 c4 30          	add    $0x30,%rsp
  405608:	5d                   	pop    %rbp
  405609:	c3                   	retq   
  40560a:	66 0f 1f 44 00 00    	nopw   0x0(%rax,%rax,1)

0000000000405610 <_ZSt21__unguarded_partitionIPcN9__gnu_cxx5__ops15_Iter_less_iterEET_S4_S4_S4_T0_>:
  405610:	55                   	push   %rbp
  405611:	48 89 e5             	mov    %rsp,%rbp
  405614:	48 83 ec 20          	sub    $0x20,%rsp
  405618:	48 89 7d f0          	mov    %rdi,-0x10(%rbp)
  40561c:	48 89 75 e8          	mov    %rsi,-0x18(%rbp)
  405620:	48 89 55 e0          	mov    %rdx,-0x20(%rbp)
  405624:	e9 00 00 00 00       	jmpq   405629 <_ZSt21__unguarded_partitionIPcN9__gnu_cxx5__ops15_Iter_less_iterEET_S4_S4_S4_T0_+0x19>
  405629:	48 8b 75 f0          	mov    -0x10(%rbp),%rsi
  40562d:	48 8b 55 e0          	mov    -0x20(%rbp),%rdx
  405631:	48 8d 7d f8          	lea    -0x8(%rbp),%rdi
  405635:	e8 06 fb ff ff       	callq  405140 <_ZNK9__gnu_cxx5__ops15_Iter_less_iterclIPcS3_EEbT_T0_>
  40563a:	a8 01                	test   $0x1,%al
  40563c:	0f 85 05 00 00 00    	jne    405647 <_ZSt21__unguarded_partitionIPcN9__gnu_cxx5__ops15_Iter_less_iterEET_S4_S4_S4_T0_+0x37>
  405642:	e9 13 00 00 00       	jmpq   40565a <_ZSt21__unguarded_partitionIPcN9__gnu_cxx5__ops15_Iter_less_iterEET_S4_S4_S4_T0_+0x4a>
  405647:	48 8b 45 f0          	mov    -0x10(%rbp),%rax
  40564b:	48 05 01 00 00 00    	add    $0x1,%rax
  405651:	48 89 45 f0          	mov    %rax,-0x10(%rbp)
  405655:	e9 cf ff ff ff       	jmpq   405629 <_ZSt21__unguarded_partitionIPcN9__gnu_cxx5__ops15_Iter_less_iterEET_S4_S4_S4_T0_+0x19>
  40565a:	48 8b 45 e8          	mov    -0x18(%rbp),%rax
  40565e:	48 05 ff ff ff ff    	add    $0xffffffffffffffff,%rax
  405664:	48 89 45 e8          	mov    %rax,-0x18(%rbp)
  405668:	48 8b 75 e0          	mov    -0x20(%rbp),%rsi
  40566c:	48 8b 55 e8          	mov    -0x18(%rbp),%rdx
  405670:	48 8d 7d f8          	lea    -0x8(%rbp),%rdi
  405674:	e8 c7 fa ff ff       	callq  405140 <_ZNK9__gnu_cxx5__ops15_Iter_less_iterclIPcS3_EEbT_T0_>
  405679:	a8 01                	test   $0x1,%al
  40567b:	0f 85 05 00 00 00    	jne    405686 <_ZSt21__unguarded_partitionIPcN9__gnu_cxx5__ops15_Iter_less_iterEET_S4_S4_S4_T0_+0x76>
  405681:	e9 13 00 00 00       	jmpq   405699 <_ZSt21__unguarded_partitionIPcN9__gnu_cxx5__ops15_Iter_less_iterEET_S4_S4_S4_T0_+0x89>
  405686:	48 8b 45 e8          	mov    -0x18(%rbp),%rax
  40568a:	48 05 ff ff ff ff    	add    $0xffffffffffffffff,%rax
  405690:	48 89 45 e8          	mov    %rax,-0x18(%rbp)
  405694:	e9 cf ff ff ff       	jmpq   405668 <_ZSt21__unguarded_partitionIPcN9__gnu_cxx5__ops15_Iter_less_iterEET_S4_S4_S4_T0_+0x58>
  405699:	48 8b 45 f0          	mov    -0x10(%rbp),%rax
  40569d:	48 3b 45 e8          	cmp    -0x18(%rbp),%rax
  4056a1:	0f 82 0a 00 00 00    	jb     4056b1 <_ZSt21__unguarded_partitionIPcN9__gnu_cxx5__ops15_Iter_less_iterEET_S4_S4_S4_T0_+0xa1>
  4056a7:	48 8b 45 f0          	mov    -0x10(%rbp),%rax
  4056ab:	48 83 c4 20          	add    $0x20,%rsp
  4056af:	5d                   	pop    %rbp
  4056b0:	c3                   	retq   
  4056b1:	48 8b 7d f0          	mov    -0x10(%rbp),%rdi
  4056b5:	48 8b 75 e8          	mov    -0x18(%rbp),%rsi
  4056b9:	e8 22 00 00 00       	callq  4056e0 <_ZSt9iter_swapIPcS0_EvT_T0_>
  4056be:	48 8b 45 f0          	mov    -0x10(%rbp),%rax
  4056c2:	48 05 01 00 00 00    	add    $0x1,%rax
  4056c8:	48 89 45 f0          	mov    %rax,-0x10(%rbp)
  4056cc:	e9 53 ff ff ff       	jmpq   405624 <_ZSt21__unguarded_partitionIPcN9__gnu_cxx5__ops15_Iter_less_iterEET_S4_S4_S4_T0_+0x14>
  4056d1:	66 2e 0f 1f 84 00 00 	nopw   %cs:0x0(%rax,%rax,1)
  4056d8:	00 00 00 
  4056db:	0f 1f 44 00 00       	nopl   0x0(%rax,%rax,1)

00000000004056e0 <_ZSt9iter_swapIPcS0_EvT_T0_>:
  4056e0:	55                   	push   %rbp
  4056e1:	48 89 e5             	mov    %rsp,%rbp
  4056e4:	48 83 ec 10          	sub    $0x10,%rsp
  4056e8:	48 89 7d f8          	mov    %rdi,-0x8(%rbp)
  4056ec:	48 89 75 f0          	mov    %rsi,-0x10(%rbp)
  4056f0:	48 8b 7d f8          	mov    -0x8(%rbp),%rdi
  4056f4:	48 8b 75 f0          	mov    -0x10(%rbp),%rsi
  4056f8:	e8 13 00 00 00       	callq  405710 <_ZSt4swapIcENSt9enable_ifIXsr6__and_ISt6__not_ISt15__is_tuple_likeIT_EESt21is_move_constructibleIS3_ESt18is_move_assignableIS3_EEE5valueEvE4typeERS3_SC_>
  4056fd:	48 83 c4 10          	add    $0x10,%rsp
  405701:	5d                   	pop    %rbp
  405702:	c3                   	retq   
  405703:	66 2e 0f 1f 84 00 00 	nopw   %cs:0x0(%rax,%rax,1)
  40570a:	00 00 00 
  40570d:	0f 1f 00             	nopl   (%rax)

0000000000405710 <_ZSt4swapIcENSt9enable_ifIXsr6__and_ISt6__not_ISt15__is_tuple_likeIT_EESt21is_move_constructibleIS3_ESt18is_move_assignableIS3_EEE5valueEvE4typeERS3_SC_>:
  405710:	55                   	push   %rbp
  405711:	48 89 e5             	mov    %rsp,%rbp
  405714:	48 83 ec 20          	sub    $0x20,%rsp
  405718:	48 89 7d f8          	mov    %rdi,-0x8(%rbp)
  40571c:	48 89 75 f0          	mov    %rsi,-0x10(%rbp)
  405720:	48 8b 7d f8          	mov    -0x8(%rbp),%rdi
  405724:	e8 c7 fa ff ff       	callq  4051f0 <_ZSt4moveIRcEONSt16remove_referenceIT_E4typeEOS2_>
  405729:	8a 08                	mov    (%rax),%cl
  40572b:	88 4d ef             	mov    %cl,-0x11(%rbp)
  40572e:	48 8b 7d f0          	mov    -0x10(%rbp),%rdi
  405732:	e8 b9 fa ff ff       	callq  4051f0 <_ZSt4moveIRcEONSt16remove_referenceIT_E4typeEOS2_>
  405737:	8a 08                	mov    (%rax),%cl
  405739:	48 8b 45 f8          	mov    -0x8(%rbp),%rax
  40573d:	88 08                	mov    %cl,(%rax)
  40573f:	48 8d 7d ef          	lea    -0x11(%rbp),%rdi
  405743:	e8 a8 fa ff ff       	callq  4051f0 <_ZSt4moveIRcEONSt16remove_referenceIT_E4typeEOS2_>
  405748:	8a 08                	mov    (%rax),%cl
  40574a:	48 8b 45 f0          	mov    -0x10(%rbp),%rax
  40574e:	88 08                	mov    %cl,(%rax)
  405750:	48 83 c4 20          	add    $0x20,%rsp
  405754:	5d                   	pop    %rbp
  405755:	c3                   	retq   
  405756:	66 2e 0f 1f 84 00 00 	nopw   %cs:0x0(%rax,%rax,1)
  40575d:	00 00 00 

0000000000405760 <_ZSt16__insertion_sortIPcN9__gnu_cxx5__ops15_Iter_less_iterEEvT_S4_T0_>:
  405760:	55                   	push   %rbp
  405761:	48 89 e5             	mov    %rsp,%rbp
  405764:	48 83 ec 50          	sub    $0x50,%rsp
  405768:	48 89 7d f0          	mov    %rdi,-0x10(%rbp)
  40576c:	48 89 75 e8          	mov    %rsi,-0x18(%rbp)
  405770:	48 8b 45 f0          	mov    -0x10(%rbp),%rax
  405774:	48 3b 45 e8          	cmp    -0x18(%rbp),%rax
  405778:	0f 85 05 00 00 00    	jne    405783 <_ZSt16__insertion_sortIPcN9__gnu_cxx5__ops15_Iter_less_iterEEvT_S4_T0_+0x23>
  40577e:	e9 aa 00 00 00       	jmpq   40582d <_ZSt16__insertion_sortIPcN9__gnu_cxx5__ops15_Iter_less_iterEEvT_S4_T0_+0xcd>
  405783:	48 8b 45 f0          	mov    -0x10(%rbp),%rax
  405787:	48 05 01 00 00 00    	add    $0x1,%rax
  40578d:	48 89 45 e0          	mov    %rax,-0x20(%rbp)
  405791:	48 8b 45 e0          	mov    -0x20(%rbp),%rax
  405795:	48 3b 45 e8          	cmp    -0x18(%rbp),%rax
  405799:	0f 84 8e 00 00 00    	je     40582d <_ZSt16__insertion_sortIPcN9__gnu_cxx5__ops15_Iter_less_iterEEvT_S4_T0_+0xcd>
  40579f:	48 8b 75 e0          	mov    -0x20(%rbp),%rsi
  4057a3:	48 8b 55 f0          	mov    -0x10(%rbp),%rdx
  4057a7:	48 8d 7d f8          	lea    -0x8(%rbp),%rdi
  4057ab:	e8 90 f9 ff ff       	callq  405140 <_ZNK9__gnu_cxx5__ops15_Iter_less_iterclIPcS3_EEbT_T0_>
  4057b0:	a8 01                	test   $0x1,%al
  4057b2:	0f 85 05 00 00 00    	jne    4057bd <_ZSt16__insertion_sortIPcN9__gnu_cxx5__ops15_Iter_less_iterEEvT_S4_T0_+0x5d>
  4057b8:	e9 42 00 00 00       	jmpq   4057ff <_ZSt16__insertion_sortIPcN9__gnu_cxx5__ops15_Iter_less_iterEEvT_S4_T0_+0x9f>
  4057bd:	48 8b 7d e0          	mov    -0x20(%rbp),%rdi
  4057c1:	e8 2a fa ff ff       	callq  4051f0 <_ZSt4moveIRcEONSt16remove_referenceIT_E4typeEOS2_>
  4057c6:	8a 08                	mov    (%rax),%cl
  4057c8:	88 4d df             	mov    %cl,-0x21(%rbp)
  4057cb:	48 8b 7d f0          	mov    -0x10(%rbp),%rdi
  4057cf:	48 8b 75 e0          	mov    -0x20(%rbp),%rsi
  4057d3:	48 8b 45 e0          	mov    -0x20(%rbp),%rax
  4057d7:	48 05 01 00 00 00    	add    $0x1,%rax
  4057dd:	48 89 c2             	mov    %rax,%rdx
  4057e0:	e8 bb 00 00 00       	callq  4058a0 <_ZSt13move_backwardIPcS0_ET0_T_S2_S1_>
  4057e5:	48 8d 7d df          	lea    -0x21(%rbp),%rdi
  4057e9:	48 89 45 c0          	mov    %rax,-0x40(%rbp)
  4057ed:	e8 fe f9 ff ff       	callq  4051f0 <_ZSt4moveIRcEONSt16remove_referenceIT_E4typeEOS2_>
  4057f2:	8a 08                	mov    (%rax),%cl
  4057f4:	48 8b 45 f0          	mov    -0x10(%rbp),%rax
  4057f8:	88 08                	mov    %cl,(%rax)
  4057fa:	e9 16 00 00 00       	jmpq   405815 <_ZSt16__insertion_sortIPcN9__gnu_cxx5__ops15_Iter_less_iterEEvT_S4_T0_+0xb5>
  4057ff:	48 8b 7d e0          	mov    -0x20(%rbp),%rdi
  405803:	48 89 7d b8          	mov    %rdi,-0x48(%rbp)
  405807:	e8 74 01 00 00       	callq  405980 <_ZN9__gnu_cxx5__ops15__val_comp_iterENS0_15_Iter_less_iterE>
  40580c:	48 8b 7d b8          	mov    -0x48(%rbp),%rdi
  405810:	e8 cb 00 00 00       	callq  4058e0 <_ZSt25__unguarded_linear_insertIPcN9__gnu_cxx5__ops14_Val_less_iterEEvT_T0_>
  405815:	e9 00 00 00 00       	jmpq   40581a <_ZSt16__insertion_sortIPcN9__gnu_cxx5__ops15_Iter_less_iterEEvT_S4_T0_+0xba>
  40581a:	48 8b 45 e0          	mov    -0x20(%rbp),%rax
  40581e:	48 05 01 00 00 00    	add    $0x1,%rax
  405824:	48 89 45 e0          	mov    %rax,-0x20(%rbp)
  405828:	e9 64 ff ff ff       	jmpq   405791 <_ZSt16__insertion_sortIPcN9__gnu_cxx5__ops15_Iter_less_iterEEvT_S4_T0_+0x31>
  40582d:	48 83 c4 50          	add    $0x50,%rsp
  405831:	5d                   	pop    %rbp
  405832:	c3                   	retq   
  405833:	66 2e 0f 1f 84 00 00 	nopw   %cs:0x0(%rax,%rax,1)
  40583a:	00 00 00 
  40583d:	0f 1f 00             	nopl   (%rax)

0000000000405840 <_ZSt26__unguarded_insertion_sortIPcN9__gnu_cxx5__ops15_Iter_less_iterEEvT_S4_T0_>:
  405840:	55                   	push   %rbp
  405841:	48 89 e5             	mov    %rsp,%rbp
  405844:	48 83 ec 40          	sub    $0x40,%rsp
  405848:	48 89 7d f0          	mov    %rdi,-0x10(%rbp)
  40584c:	48 89 75 e8          	mov    %rsi,-0x18(%rbp)
  405850:	48 8b 45 f0          	mov    -0x10(%rbp),%rax
  405854:	48 89 45 e0          	mov    %rax,-0x20(%rbp)
  405858:	48 8b 45 e0          	mov    -0x20(%rbp),%rax
  40585c:	48 3b 45 e8          	cmp    -0x18(%rbp),%rax
  405860:	0f 84 29 00 00 00    	je     40588f <_ZSt26__unguarded_insertion_sortIPcN9__gnu_cxx5__ops15_Iter_less_iterEEvT_S4_T0_+0x4f>
  405866:	48 8b 7d e0          	mov    -0x20(%rbp),%rdi
  40586a:	48 89 7d c0          	mov    %rdi,-0x40(%rbp)
  40586e:	e8 0d 01 00 00       	callq  405980 <_ZN9__gnu_cxx5__ops15__val_comp_iterENS0_15_Iter_less_iterE>
  405873:	48 8b 7d c0          	mov    -0x40(%rbp),%rdi
  405877:	e8 64 00 00 00       	callq  4058e0 <_ZSt25__unguarded_linear_insertIPcN9__gnu_cxx5__ops14_Val_less_iterEEvT_T0_>
  40587c:	48 8b 45 e0          	mov    -0x20(%rbp),%rax
  405880:	48 05 01 00 00 00    	add    $0x1,%rax
  405886:	48 89 45 e0          	mov    %rax,-0x20(%rbp)
  40588a:	e9 c9 ff ff ff       	jmpq   405858 <_ZSt26__unguarded_insertion_sortIPcN9__gnu_cxx5__ops15_Iter_less_iterEEvT_S4_T0_+0x18>
  40588f:	48 83 c4 40          	add    $0x40,%rsp
  405893:	5d                   	pop    %rbp
  405894:	c3                   	retq   
  405895:	66 2e 0f 1f 84 00 00 	nopw   %cs:0x0(%rax,%rax,1)
  40589c:	00 00 00 
  40589f:	90                   	nop

00000000004058a0 <_ZSt13move_backwardIPcS0_ET0_T_S2_S1_>:
  4058a0:	55                   	push   %rbp
  4058a1:	48 89 e5             	mov    %rsp,%rbp
  4058a4:	48 83 ec 20          	sub    $0x20,%rsp
  4058a8:	48 89 7d f8          	mov    %rdi,-0x8(%rbp)
  4058ac:	48 89 75 f0          	mov    %rsi,-0x10(%rbp)
  4058b0:	48 89 55 e8          	mov    %rdx,-0x18(%rbp)
  4058b4:	48 8b 7d f8          	mov    -0x8(%rbp),%rdi
  4058b8:	e8 33 01 00 00       	callq  4059f0 <_ZSt12__miter_baseIPcET_S1_>
  4058bd:	48 8b 7d f0          	mov    -0x10(%rbp),%rdi
  4058c1:	48 89 45 e0          	mov    %rax,-0x20(%rbp)
  4058c5:	e8 26 01 00 00       	callq  4059f0 <_ZSt12__miter_baseIPcET_S1_>
  4058ca:	48 8b 55 e8          	mov    -0x18(%rbp),%rdx
  4058ce:	48 8b 7d e0          	mov    -0x20(%rbp),%rdi
  4058d2:	48 89 c6             	mov    %rax,%rsi
  4058d5:	e8 b6 00 00 00       	callq  405990 <_ZSt23__copy_move_backward_a2ILb1EPcS0_ET1_T0_S2_S1_>
  4058da:	48 83 c4 20          	add    $0x20,%rsp
  4058de:	5d                   	pop    %rbp
  4058df:	c3                   	retq   

00000000004058e0 <_ZSt25__unguarded_linear_insertIPcN9__gnu_cxx5__ops14_Val_less_iterEEvT_T0_>:
  4058e0:	55                   	push   %rbp
  4058e1:	48 89 e5             	mov    %rsp,%rbp
  4058e4:	48 83 ec 20          	sub    $0x20,%rsp
  4058e8:	48 89 7d f0          	mov    %rdi,-0x10(%rbp)
  4058ec:	48 8b 7d f0          	mov    -0x10(%rbp),%rdi
  4058f0:	e8 fb f8 ff ff       	callq  4051f0 <_ZSt4moveIRcEONSt16remove_referenceIT_E4typeEOS2_>
  4058f5:	8a 08                	mov    (%rax),%cl
  4058f7:	88 4d ef             	mov    %cl,-0x11(%rbp)
  4058fa:	48 8b 45 f0          	mov    -0x10(%rbp),%rax
  4058fe:	48 89 45 e0          	mov    %rax,-0x20(%rbp)
  405902:	48 8b 45 e0          	mov    -0x20(%rbp),%rax
  405906:	48 05 ff ff ff ff    	add    $0xffffffffffffffff,%rax
  40590c:	48 89 45 e0          	mov    %rax,-0x20(%rbp)
  405910:	48 8b 55 e0          	mov    -0x20(%rbp),%rdx
  405914:	48 8d 7d f8          	lea    -0x8(%rbp),%rdi
  405918:	48 8d 75 ef          	lea    -0x11(%rbp),%rsi
  40591c:	e8 7f 01 00 00       	callq  405aa0 <_ZNK9__gnu_cxx5__ops14_Val_less_iterclIcPcEEbRT_T0_>
  405921:	a8 01                	test   $0x1,%al
  405923:	0f 85 05 00 00 00    	jne    40592e <_ZSt25__unguarded_linear_insertIPcN9__gnu_cxx5__ops14_Val_less_iterEEvT_T0_+0x4e>
  405929:	e9 2c 00 00 00       	jmpq   40595a <_ZSt25__unguarded_linear_insertIPcN9__gnu_cxx5__ops14_Val_less_iterEEvT_T0_+0x7a>
  40592e:	48 8b 7d e0          	mov    -0x20(%rbp),%rdi
  405932:	e8 b9 f8 ff ff       	callq  4051f0 <_ZSt4moveIRcEONSt16remove_referenceIT_E4typeEOS2_>
  405937:	8a 08                	mov    (%rax),%cl
  405939:	48 8b 45 f0          	mov    -0x10(%rbp),%rax
  40593d:	88 08                	mov    %cl,(%rax)
  40593f:	48 8b 45 e0          	mov    -0x20(%rbp),%rax
  405943:	48 89 45 f0          	mov    %rax,-0x10(%rbp)
  405947:	48 8b 45 e0          	mov    -0x20(%rbp),%rax
  40594b:	48 05 ff ff ff ff    	add    $0xffffffffffffffff,%rax
  405951:	48 89 45 e0          	mov    %rax,-0x20(%rbp)
  405955:	e9 b6 ff ff ff       	jmpq   405910 <_ZSt25__unguarded_linear_insertIPcN9__gnu_cxx5__ops14_Val_less_iterEEvT_T0_+0x30>
  40595a:	48 8d 7d ef          	lea    -0x11(%rbp),%rdi
  40595e:	e8 8d f8 ff ff       	callq  4051f0 <_ZSt4moveIRcEONSt16remove_referenceIT_E4typeEOS2_>
  405963:	8a 08                	mov    (%rax),%cl
  405965:	48 8b 45 f0          	mov    -0x10(%rbp),%rax
  405969:	88 08                	mov    %cl,(%rax)
  40596b:	48 83 c4 20          	add    $0x20,%rsp
  40596f:	5d                   	pop    %rbp
  405970:	c3                   	retq   
  405971:	66 2e 0f 1f 84 00 00 	nopw   %cs:0x0(%rax,%rax,1)
  405978:	00 00 00 
  40597b:	0f 1f 44 00 00       	nopl   0x0(%rax,%rax,1)

0000000000405980 <_ZN9__gnu_cxx5__ops15__val_comp_iterENS0_15_Iter_less_iterE>:
  405980:	55                   	push   %rbp
  405981:	48 89 e5             	mov    %rsp,%rbp
  405984:	5d                   	pop    %rbp
  405985:	c3                   	retq   
  405986:	66 2e 0f 1f 84 00 00 	nopw   %cs:0x0(%rax,%rax,1)
  40598d:	00 00 00 

0000000000405990 <_ZSt23__copy_move_backward_a2ILb1EPcS0_ET1_T0_S2_S1_>:
  405990:	55                   	push   %rbp
  405991:	48 89 e5             	mov    %rsp,%rbp
  405994:	48 83 ec 30          	sub    $0x30,%rsp
  405998:	48 89 7d f8          	mov    %rdi,-0x8(%rbp)
  40599c:	48 89 75 f0          	mov    %rsi,-0x10(%rbp)
  4059a0:	48 89 55 e8          	mov    %rdx,-0x18(%rbp)
  4059a4:	48 8b 7d f8          	mov    -0x8(%rbp),%rdi
  4059a8:	e8 53 f2 ff ff       	callq  404c00 <_ZSt12__niter_baseIPcET_S1_>
  4059ad:	48 8b 7d f0          	mov    -0x10(%rbp),%rdi
  4059b1:	48 89 45 e0          	mov    %rax,-0x20(%rbp)
  4059b5:	e8 46 f2 ff ff       	callq  404c00 <_ZSt12__niter_baseIPcET_S1_>
  4059ba:	48 8b 7d e8          	mov    -0x18(%rbp),%rdi
  4059be:	48 89 45 d8          	mov    %rax,-0x28(%rbp)
  4059c2:	e8 39 f2 ff ff       	callq  404c00 <_ZSt12__niter_baseIPcET_S1_>
  4059c7:	48 8b 7d e0          	mov    -0x20(%rbp),%rdi
  4059cb:	48 8b 75 d8          	mov    -0x28(%rbp),%rsi
  4059cf:	48 89 c2             	mov    %rax,%rdx
  4059d2:	e8 29 00 00 00       	callq  405a00 <_ZSt22__copy_move_backward_aILb1EPcS0_ET1_T0_S2_S1_>
  4059d7:	48 8d 7d e8          	lea    -0x18(%rbp),%rdi
  4059db:	48 89 c6             	mov    %rax,%rsi
  4059de:	e8 ad f1 ff ff       	callq  404b90 <_ZSt12__niter_wrapIPcET_RKS1_S1_>
  4059e3:	48 83 c4 30          	add    $0x30,%rsp
  4059e7:	5d                   	pop    %rbp
  4059e8:	c3                   	retq   
  4059e9:	0f 1f 80 00 00 00 00 	nopl   0x0(%rax)

00000000004059f0 <_ZSt12__miter_baseIPcET_S1_>:
  4059f0:	55                   	push   %rbp
  4059f1:	48 89 e5             	mov    %rsp,%rbp
  4059f4:	48 89 7d f8          	mov    %rdi,-0x8(%rbp)
  4059f8:	48 8b 45 f8          	mov    -0x8(%rbp),%rax
  4059fc:	5d                   	pop    %rbp
  4059fd:	c3                   	retq   
  4059fe:	66 90                	xchg   %ax,%ax

0000000000405a00 <_ZSt22__copy_move_backward_aILb1EPcS0_ET1_T0_S2_S1_>:
  405a00:	55                   	push   %rbp
  405a01:	48 89 e5             	mov    %rsp,%rbp
  405a04:	48 83 ec 20          	sub    $0x20,%rsp
  405a08:	48 89 7d f8          	mov    %rdi,-0x8(%rbp)
  405a0c:	48 89 75 f0          	mov    %rsi,-0x10(%rbp)
  405a10:	48 89 55 e8          	mov    %rdx,-0x18(%rbp)
  405a14:	c6 45 e7 01          	movb   $0x1,-0x19(%rbp)
  405a18:	48 8b 7d f8          	mov    -0x8(%rbp),%rdi
  405a1c:	48 8b 75 f0          	mov    -0x10(%rbp),%rsi
  405a20:	48 8b 55 e8          	mov    -0x18(%rbp),%rdx
  405a24:	e8 07 00 00 00       	callq  405a30 <_ZNSt20__copy_move_backwardILb1ELb1ESt26random_access_iterator_tagE13__copy_move_bIcEEPT_PKS3_S6_S4_>
  405a29:	48 83 c4 20          	add    $0x20,%rsp
  405a2d:	5d                   	pop    %rbp
  405a2e:	c3                   	retq   
  405a2f:	90                   	nop

0000000000405a30 <_ZNSt20__copy_move_backwardILb1ELb1ESt26random_access_iterator_tagE13__copy_move_bIcEEPT_PKS3_S6_S4_>:
  405a30:	55                   	push   %rbp
  405a31:	48 89 e5             	mov    %rsp,%rbp
  405a34:	48 83 ec 20          	sub    $0x20,%rsp
  405a38:	48 89 7d f8          	mov    %rdi,-0x8(%rbp)
  405a3c:	48 89 75 f0          	mov    %rsi,-0x10(%rbp)
  405a40:	48 89 55 e8          	mov    %rdx,-0x18(%rbp)
  405a44:	48 8b 45 f0          	mov    -0x10(%rbp),%rax
  405a48:	48 8b 4d f8          	mov    -0x8(%rbp),%rcx
  405a4c:	48 29 c8             	sub    %rcx,%rax
  405a4f:	48 89 45 e0          	mov    %rax,-0x20(%rbp)
  405a53:	48 83 7d e0 00       	cmpq   $0x0,-0x20(%rbp)
  405a58:	0f 84 26 00 00 00    	je     405a84 <_ZNSt20__copy_move_backwardILb1ELb1ESt26random_access_iterator_tagE13__copy_move_bIcEEPT_PKS3_S6_S4_+0x54>
  405a5e:	31 c0                	xor    %eax,%eax
  405a60:	89 c1                	mov    %eax,%ecx
  405a62:	48 8b 55 e8          	mov    -0x18(%rbp),%rdx
  405a66:	48 2b 4d e0          	sub    -0x20(%rbp),%rcx
  405a6a:	48 01 ca             	add    %rcx,%rdx
  405a6d:	48 8b 75 f8          	mov    -0x8(%rbp),%rsi
  405a71:	48 8b 4d e0          	mov    -0x20(%rbp),%rcx
  405a75:	48 c1 e1 00          	shl    $0x0,%rcx
  405a79:	48 89 d7             	mov    %rdx,%rdi
  405a7c:	48 89 ca             	mov    %rcx,%rdx
  405a7f:	e8 1c d9 ff ff       	callq  4033a0 <memmove@plt>
  405a84:	31 c0                	xor    %eax,%eax
  405a86:	89 c1                	mov    %eax,%ecx
  405a88:	48 8b 55 e8          	mov    -0x18(%rbp),%rdx
  405a8c:	48 2b 4d e0          	sub    -0x20(%rbp),%rcx
  405a90:	48 01 ca             	add    %rcx,%rdx
  405a93:	48 89 d0             	mov    %rdx,%rax
  405a96:	48 83 c4 20          	add    $0x20,%rsp
  405a9a:	5d                   	pop    %rbp
  405a9b:	c3                   	retq   
  405a9c:	0f 1f 40 00          	nopl   0x0(%rax)

0000000000405aa0 <_ZNK9__gnu_cxx5__ops14_Val_less_iterclIcPcEEbRT_T0_>:
  405aa0:	55                   	push   %rbp
  405aa1:	48 89 e5             	mov    %rsp,%rbp
  405aa4:	48 89 7d f8          	mov    %rdi,-0x8(%rbp)
  405aa8:	48 89 75 f0          	mov    %rsi,-0x10(%rbp)
  405aac:	48 89 55 e8          	mov    %rdx,-0x18(%rbp)
  405ab0:	48 8b 45 f0          	mov    -0x10(%rbp),%rax
  405ab4:	0f be 08             	movsbl (%rax),%ecx
  405ab7:	48 8b 45 e8          	mov    -0x18(%rbp),%rax
  405abb:	44 0f be 00          	movsbl (%rax),%r8d
  405abf:	44 39 c1             	cmp    %r8d,%ecx
  405ac2:	41 0f 9c c1          	setl   %r9b
  405ac6:	41 80 e1 01          	and    $0x1,%r9b
  405aca:	41 0f b6 c1          	movzbl %r9b,%eax
  405ace:	5d                   	pop    %rbp
  405acf:	c3                   	retq   

0000000000405ad0 <_ZN5boost9algorithm10iter_splitISt6vectorINSt7__cxx1112basic_stringIcSt11char_traitsIcESaIcEEESaIS8_EERS8_NS0_6detail13token_finderFINSC_10is_any_ofFIcEEEEEERT_SI_OT0_T1_>:
  405ad0:	55                   	push   %rbp
  405ad1:	48 89 e5             	mov    %rsp,%rbp
  405ad4:	48 81 ec 90 02 00 00 	sub    $0x290,%rsp
  405adb:	48 89 7d f8          	mov    %rdi,-0x8(%rbp)
  405adf:	48 89 75 f0          	mov    %rsi,-0x10(%rbp)
  405ae3:	48 8b 7d f0          	mov    -0x10(%rbp),%rdi
  405ae7:	48 89 95 98 fd ff ff 	mov    %rdx,-0x268(%rbp)
  405aee:	e8 dd 03 00 00       	callq  405ed0 <_ZN5boost10as_literalINSt7__cxx1112basic_stringIcSt11char_traitsIcESaIcEEEEENS_14iterator_rangeINS_14range_iteratorIT_vE4typeEEERS9_>
  405af3:	48 89 45 e0          	mov    %rax,-0x20(%rbp)
  405af7:	48 89 55 e8          	mov    %rdx,-0x18(%rbp)
  405afb:	48 8d 45 e0          	lea    -0x20(%rbp),%rax
  405aff:	48 89 c7             	mov    %rax,%rdi
  405b02:	48 89 85 90 fd ff ff 	mov    %rax,-0x270(%rbp)
  405b09:	e8 02 04 00 00       	callq  405f10 <_ZN5boost17range_adl_barrier3endINS_14iterator_rangeIN9__gnu_cxx17__normal_iteratorIPcNSt7__cxx1112basic_stringIcSt11char_traitsIcESaIcEEEEEEEEENS_14range_iteratorIT_vE4typeERSF_>
  405b0e:	48 89 45 d8          	mov    %rax,-0x28(%rbp)
  405b12:	48 8b bd 90 fd ff ff 	mov    -0x270(%rbp),%rdi
  405b19:	e8 52 04 00 00       	callq  405f70 <_ZN5boost17range_adl_barrier5beginINS_14iterator_rangeIN9__gnu_cxx17__normal_iteratorIPcNSt7__cxx1112basic_stringIcSt11char_traitsIcESaIcEEEEEEEEENS_14range_iteratorIT_vE4typeERSF_>
  405b1e:	48 89 85 38 ff ff ff 	mov    %rax,-0xc8(%rbp)
  405b25:	48 8b 45 d8          	mov    -0x28(%rbp),%rax
  405b29:	48 89 85 30 ff ff ff 	mov    %rax,-0xd0(%rbp)
  405b30:	48 8d 85 10 ff ff ff 	lea    -0xf0(%rbp),%rax
  405b37:	48 89 c7             	mov    %rax,%rdi
  405b3a:	48 8b b5 98 fd ff ff 	mov    -0x268(%rbp),%rsi
  405b41:	48 89 85 88 fd ff ff 	mov    %rax,-0x278(%rbp)
  405b48:	e8 53 04 00 00       	callq  405fa0 <_ZN5boost9algorithm6detail13token_finderFINS1_10is_any_ofFIcEEEC2ERKS5_>
  405b4d:	48 8b b5 38 ff ff ff 	mov    -0xc8(%rbp),%rsi
  405b54:	48 8b 95 30 ff ff ff 	mov    -0xd0(%rbp),%rdx
  405b5b:	48 8d bd 40 ff ff ff 	lea    -0xc0(%rbp),%rdi
  405b62:	48 8b 8d 88 fd ff ff 	mov    -0x278(%rbp),%rcx
  405b69:	e8 72 04 00 00       	callq  405fe0 <_ZN5boost9algorithm14split_iteratorIN9__gnu_cxx17__normal_iteratorIPcNSt7__cxx1112basic_stringIcSt11char_traitsIcESaIcEEEEEEC2INS0_6detail13token_finderFINSE_10is_any_ofFIcEEEEEESB_SB_T_>
  405b6e:	e9 00 00 00 00       	jmpq   405b73 <_ZN5boost9algorithm10iter_splitISt6vectorINSt7__cxx1112basic_stringIcSt11char_traitsIcESaIcEEESaIS8_EERS8_NS0_6detail13token_finderFINSC_10is_any_ofFIcEEEEEERT_SI_OT0_T1_+0xa3>
  405b73:	48 8d 7d 88          	lea    -0x78(%rbp),%rdi
  405b77:	48 8d b5 40 ff ff ff 	lea    -0xc0(%rbp),%rsi
  405b7e:	e8 bd 03 00 00       	callq  405f40 <_ZN5boost9iterators23make_transform_iteratorINS_9algorithm6detail20copy_iterator_rangeFINSt7__cxx1112basic_stringIcSt11char_traitsIcESaIcEEEN9__gnu_cxx17__normal_iteratorIPcSA_EEEENS2_14split_iteratorISE_EEEENS0_18transform_iteratorIT_T0_NS_11use_defaultESL_EESK_SJ_>
  405b83:	e9 00 00 00 00       	jmpq   405b88 <_ZN5boost9algorithm10iter_splitISt6vectorINSt7__cxx1112basic_stringIcSt11char_traitsIcESaIcEEESaIS8_EERS8_NS0_6detail13token_finderFINSC_10is_any_ofFIcEEEEEERT_SI_OT0_T1_+0xb8>
  405b88:	48 8d bd 40 ff ff ff 	lea    -0xc0(%rbp),%rdi
  405b8f:	e8 4c 05 00 00       	callq  4060e0 <_ZN5boost9algorithm14split_iteratorIN9__gnu_cxx17__normal_iteratorIPcNSt7__cxx1112basic_stringIcSt11char_traitsIcESaIcEEEEEED2Ev>
  405b94:	48 8d bd 10 ff ff ff 	lea    -0xf0(%rbp),%rdi
  405b9b:	e8 10 03 00 00       	callq  405eb0 <_ZN5boost9algorithm6detail13token_finderFINS1_10is_any_ofFIcEEED2Ev>
  405ba0:	48 8d bd 68 fe ff ff 	lea    -0x198(%rbp),%rdi
  405ba7:	e8 54 05 00 00       	callq  406100 <_ZN5boost9algorithm14split_iteratorIN9__gnu_cxx17__normal_iteratorIPcNSt7__cxx1112basic_stringIcSt11char_traitsIcESaIcEEEEEEC2Ev>
  405bac:	e9 00 00 00 00       	jmpq   405bb1 <_ZN5boost9algorithm10iter_splitISt6vectorINSt7__cxx1112basic_stringIcSt11char_traitsIcESaIcEEESaIS8_EERS8_NS0_6detail13token_finderFINSC_10is_any_ofFIcEEEEEERT_SI_OT0_T1_+0xe1>
  405bb1:	48 8d bd b0 fe ff ff 	lea    -0x150(%rbp),%rdi
  405bb8:	48 8d b5 68 fe ff ff 	lea    -0x198(%rbp),%rsi
  405bbf:	e8 7c 03 00 00       	callq  405f40 <_ZN5boost9iterators23make_transform_iteratorINS_9algorithm6detail20copy_iterator_rangeFINSt7__cxx1112basic_stringIcSt11char_traitsIcESaIcEEEN9__gnu_cxx17__normal_iteratorIPcSA_EEEENS2_14split_iteratorISE_EEEENS0_18transform_iteratorIT_T0_NS_11use_defaultESL_EESK_SJ_>
  405bc4:	e9 00 00 00 00       	jmpq   405bc9 <_ZN5boost9algorithm10iter_splitISt6vectorINSt7__cxx1112basic_stringIcSt11char_traitsIcESaIcEEESaIS8_EERS8_NS0_6detail13token_finderFINSC_10is_any_ofFIcEEEEEERT_SI_OT0_T1_+0xf9>
  405bc9:	48 8d bd 68 fe ff ff 	lea    -0x198(%rbp),%rdi
  405bd0:	e8 0b 05 00 00       	callq  4060e0 <_ZN5boost9algorithm14split_iteratorIN9__gnu_cxx17__normal_iteratorIPcNSt7__cxx1112basic_stringIcSt11char_traitsIcESaIcEEEEEED2Ev>
  405bd5:	48 8d bd f8 fd ff ff 	lea    -0x208(%rbp),%rdi
  405bdc:	48 8d 75 88          	lea    -0x78(%rbp),%rsi
  405be0:	e8 9b 05 00 00       	callq  406180 <_ZN5boost9iterators18transform_iteratorINS_9algorithm6detail20copy_iterator_rangeFINSt7__cxx1112basic_stringIcSt11char_traitsIcESaIcEEEN9__gnu_cxx17__normal_iteratorIPcSA_EEEENS2_14split_iteratorISE_EENS_11use_defaultESI_EC2ERKSJ_>
  405be5:	e9 00 00 00 00       	jmpq   405bea <_ZN5boost9algorithm10iter_splitISt6vectorINSt7__cxx1112basic_stringIcSt11char_traitsIcESaIcEEESaIS8_EERS8_NS0_6detail13token_finderFINSC_10is_any_ofFIcEEEEEERT_SI_OT0_T1_+0x11a>
  405bea:	48 8d bd a8 fd ff ff 	lea    -0x258(%rbp),%rdi
  405bf1:	48 8d b5 b0 fe ff ff 	lea    -0x150(%rbp),%rsi
  405bf8:	e8 83 05 00 00       	callq  406180 <_ZN5boost9iterators18transform_iteratorINS_9algorithm6detail20copy_iterator_rangeFINSt7__cxx1112basic_stringIcSt11char_traitsIcESaIcEEEN9__gnu_cxx17__normal_iteratorIPcSA_EEEENS2_14split_iteratorISE_EENS_11use_defaultESI_EC2ERKSJ_>
  405bfd:	e9 00 00 00 00       	jmpq   405c02 <_ZN5boost9algorithm10iter_splitISt6vectorINSt7__cxx1112basic_stringIcSt11char_traitsIcESaIcEEESaIS8_EERS8_NS0_6detail13token_finderFINSC_10is_any_ofFIcEEEEEERT_SI_OT0_T1_+0x132>
  405c02:	48 8d 85 a0 fd ff ff 	lea    -0x260(%rbp),%rax
  405c09:	48 89 c7             	mov    %rax,%rdi
  405c0c:	48 89 85 80 fd ff ff 	mov    %rax,-0x280(%rbp)
  405c13:	e8 98 05 00 00       	callq  4061b0 <_ZNSaINSt7__cxx1112basic_stringIcSt11char_traitsIcESaIcEEEEC2Ev>
  405c18:	48 8d bd 48 fe ff ff 	lea    -0x1b8(%rbp),%rdi
  405c1f:	48 8d b5 f8 fd ff ff 	lea    -0x208(%rbp),%rsi
  405c26:	48 8d 95 a8 fd ff ff 	lea    -0x258(%rbp),%rdx
  405c2d:	48 8b 8d 80 fd ff ff 	mov    -0x280(%rbp),%rcx
  405c34:	e8 97 05 00 00       	callq  4061d0 <_ZNSt6vectorINSt7__cxx1112basic_stringIcSt11char_traitsIcESaIcEEESaIS5_EEC2IN5boost9iterators18transform_iteratorINS9_9algorithm6detail20copy_iterator_rangeFIS5_N9__gnu_cxx17__normal_iteratorIPcS5_EEEENSC_14split_iteratorISI_EENS9_11use_defaultESM_EEvEET_SO_RKS6_>
  405c39:	e9 00 00 00 00       	jmpq   405c3e <_ZN5boost9algorithm10iter_splitISt6vectorINSt7__cxx1112basic_stringIcSt11char_traitsIcESaIcEEESaIS8_EERS8_NS0_6detail13token_finderFINSC_10is_any_ofFIcEEEEEERT_SI_OT0_T1_+0x16e>
  405c3e:	48 8d bd a0 fd ff ff 	lea    -0x260(%rbp),%rdi
  405c45:	e8 86 06 00 00       	callq  4062d0 <_ZNSaINSt7__cxx1112basic_stringIcSt11char_traitsIcESaIcEEEED2Ev>
  405c4a:	48 8d bd a8 fd ff ff 	lea    -0x258(%rbp),%rdi
  405c51:	e8 9a 06 00 00       	callq  4062f0 <_ZN5boost9iterators18transform_iteratorINS_9algorithm6detail20copy_iterator_rangeFINSt7__cxx1112basic_stringIcSt11char_traitsIcESaIcEEEN9__gnu_cxx17__normal_iteratorIPcSA_EEEENS2_14split_iteratorISE_EENS_11use_defaultESI_ED2Ev>
  405c56:	48 8d bd f8 fd ff ff 	lea    -0x208(%rbp),%rdi
  405c5d:	e8 8e 06 00 00       	callq  4062f0 <_ZN5boost9iterators18transform_iteratorINS_9algorithm6detail20copy_iterator_rangeFINSt7__cxx1112basic_stringIcSt11char_traitsIcESaIcEEEN9__gnu_cxx17__normal_iteratorIPcSA_EEEENS2_14split_iteratorISE_EENS_11use_defaultESI_ED2Ev>
  405c62:	48 8b 7d f8          	mov    -0x8(%rbp),%rdi
  405c66:	48 8d b5 48 fe ff ff 	lea    -0x1b8(%rbp),%rsi
  405c6d:	e8 9e 06 00 00       	callq  406310 <_ZNSt6vectorINSt7__cxx1112basic_stringIcSt11char_traitsIcESaIcEEESaIS5_EE4swapERS7_>
  405c72:	48 8b 45 f8          	mov    -0x8(%rbp),%rax
  405c76:	48 8d bd 48 fe ff ff 	lea    -0x1b8(%rbp),%rdi
  405c7d:	48 89 85 78 fd ff ff 	mov    %rax,-0x288(%rbp)
  405c84:	e8 b7 df ff ff       	callq  403c40 <_ZNSt6vectorINSt7__cxx1112basic_stringIcSt11char_traitsIcESaIcEEESaIS5_EED2Ev>
  405c89:	48 8d bd b0 fe ff ff 	lea    -0x150(%rbp),%rdi
  405c90:	e8 5b 06 00 00       	callq  4062f0 <_ZN5boost9iterators18transform_iteratorINS_9algorithm6detail20copy_iterator_rangeFINSt7__cxx1112basic_stringIcSt11char_traitsIcESaIcEEEN9__gnu_cxx17__normal_iteratorIPcSA_EEEENS2_14split_iteratorISE_EENS_11use_defaultESI_ED2Ev>
  405c95:	48 8d 7d 88          	lea    -0x78(%rbp),%rdi
  405c99:	e8 52 06 00 00       	callq  4062f0 <_ZN5boost9iterators18transform_iteratorINS_9algorithm6detail20copy_iterator_rangeFINSt7__cxx1112basic_stringIcSt11char_traitsIcESaIcEEEN9__gnu_cxx17__normal_iteratorIPcSA_EEEENS2_14split_iteratorISE_EENS_11use_defaultESI_ED2Ev>
  405c9e:	48 8b 85 78 fd ff ff 	mov    -0x288(%rbp),%rax
  405ca5:	48 81 c4 90 02 00 00 	add    $0x290,%rsp
  405cac:	5d                   	pop    %rbp
  405cad:	c3                   	retq   
  405cae:	48 89 85 08 ff ff ff 	mov    %rax,-0xf8(%rbp)
  405cb5:	89 95 04 ff ff ff    	mov    %edx,-0xfc(%rbp)
  405cbb:	e9 19 00 00 00       	jmpq   405cd9 <_ZN5boost9algorithm10iter_splitISt6vectorINSt7__cxx1112basic_stringIcSt11char_traitsIcESaIcEEESaIS8_EERS8_NS0_6detail13token_finderFINSC_10is_any_ofFIcEEEEEERT_SI_OT0_T1_+0x209>
  405cc0:	48 89 85 08 ff ff ff 	mov    %rax,-0xf8(%rbp)
  405cc7:	89 95 04 ff ff ff    	mov    %edx,-0xfc(%rbp)
  405ccd:	48 8d bd 40 ff ff ff 	lea    -0xc0(%rbp),%rdi
  405cd4:	e8 07 04 00 00       	callq  4060e0 <_ZN5boost9algorithm14split_iteratorIN9__gnu_cxx17__normal_iteratorIPcNSt7__cxx1112basic_stringIcSt11char_traitsIcESaIcEEEEEED2Ev>
  405cd9:	48 8d bd 10 ff ff ff 	lea    -0xf0(%rbp),%rdi
  405ce0:	e8 cb 01 00 00       	callq  405eb0 <_ZN5boost9algorithm6detail13token_finderFINS1_10is_any_ofFIcEEED2Ev>
  405ce5:	e9 9a 00 00 00       	jmpq   405d84 <_ZN5boost9algorithm10iter_splitISt6vectorINSt7__cxx1112basic_stringIcSt11char_traitsIcESaIcEEESaIS8_EERS8_NS0_6detail13token_finderFINSC_10is_any_ofFIcEEEEEERT_SI_OT0_T1_+0x2b4>
  405cea:	48 89 85 08 ff ff ff 	mov    %rax,-0xf8(%rbp)
  405cf1:	89 95 04 ff ff ff    	mov    %edx,-0xfc(%rbp)
  405cf7:	e9 7f 00 00 00       	jmpq   405d7b <_ZN5boost9algorithm10iter_splitISt6vectorINSt7__cxx1112basic_stringIcSt11char_traitsIcESaIcEEESaIS8_EERS8_NS0_6detail13token_finderFINSC_10is_any_ofFIcEEEEEERT_SI_OT0_T1_+0x2ab>
  405cfc:	48 89 85 08 ff ff ff 	mov    %rax,-0xf8(%rbp)
  405d03:	89 95 04 ff ff ff    	mov    %edx,-0xfc(%rbp)
  405d09:	48 8d bd 68 fe ff ff 	lea    -0x198(%rbp),%rdi
  405d10:	e8 cb 03 00 00       	callq  4060e0 <_ZN5boost9algorithm14split_iteratorIN9__gnu_cxx17__normal_iteratorIPcNSt7__cxx1112basic_stringIcSt11char_traitsIcESaIcEEEEEED2Ev>
  405d15:	e9 61 00 00 00       	jmpq   405d7b <_ZN5boost9algorithm10iter_splitISt6vectorINSt7__cxx1112basic_stringIcSt11char_traitsIcESaIcEEESaIS8_EERS8_NS0_6detail13token_finderFINSC_10is_any_ofFIcEEEEEERT_SI_OT0_T1_+0x2ab>
  405d1a:	48 89 85 08 ff ff ff 	mov    %rax,-0xf8(%rbp)
  405d21:	89 95 04 ff ff ff    	mov    %edx,-0xfc(%rbp)
  405d27:	e9 43 00 00 00       	jmpq   405d6f <_ZN5boost9algorithm10iter_splitISt6vectorINSt7__cxx1112basic_stringIcSt11char_traitsIcESaIcEEESaIS8_EERS8_NS0_6detail13token_finderFINSC_10is_any_ofFIcEEEEEERT_SI_OT0_T1_+0x29f>
  405d2c:	48 89 85 08 ff ff ff 	mov    %rax,-0xf8(%rbp)
  405d33:	89 95 04 ff ff ff    	mov    %edx,-0xfc(%rbp)
  405d39:	e9 25 00 00 00       	jmpq   405d63 <_ZN5boost9algorithm10iter_splitISt6vectorINSt7__cxx1112basic_stringIcSt11char_traitsIcESaIcEEESaIS8_EERS8_NS0_6detail13token_finderFINSC_10is_any_ofFIcEEEEEERT_SI_OT0_T1_+0x293>
  405d3e:	48 89 85 08 ff ff ff 	mov    %rax,-0xf8(%rbp)
  405d45:	89 95 04 ff ff ff    	mov    %edx,-0xfc(%rbp)
  405d4b:	48 8d bd a0 fd ff ff 	lea    -0x260(%rbp),%rdi
  405d52:	e8 79 05 00 00       	callq  4062d0 <_ZNSaINSt7__cxx1112basic_stringIcSt11char_traitsIcESaIcEEEED2Ev>
  405d57:	48 8d bd a8 fd ff ff 	lea    -0x258(%rbp),%rdi
  405d5e:	e8 8d 05 00 00       	callq  4062f0 <_ZN5boost9iterators18transform_iteratorINS_9algorithm6detail20copy_iterator_rangeFINSt7__cxx1112basic_stringIcSt11char_traitsIcESaIcEEEN9__gnu_cxx17__normal_iteratorIPcSA_EEEENS2_14split_iteratorISE_EENS_11use_defaultESI_ED2Ev>
  405d63:	48 8d bd f8 fd ff ff 	lea    -0x208(%rbp),%rdi
  405d6a:	e8 81 05 00 00       	callq  4062f0 <_ZN5boost9iterators18transform_iteratorINS_9algorithm6detail20copy_iterator_rangeFINSt7__cxx1112basic_stringIcSt11char_traitsIcESaIcEEEN9__gnu_cxx17__normal_iteratorIPcSA_EEEENS2_14split_iteratorISE_EENS_11use_defaultESI_ED2Ev>
  405d6f:	48 8d bd b0 fe ff ff 	lea    -0x150(%rbp),%rdi
  405d76:	e8 75 05 00 00       	callq  4062f0 <_ZN5boost9iterators18transform_iteratorINS_9algorithm6detail20copy_iterator_rangeFINSt7__cxx1112basic_stringIcSt11char_traitsIcESaIcEEEN9__gnu_cxx17__normal_iteratorIPcSA_EEEENS2_14split_iteratorISE_EENS_11use_defaultESI_ED2Ev>
  405d7b:	48 8d 7d 88          	lea    -0x78(%rbp),%rdi
  405d7f:	e8 6c 05 00 00       	callq  4062f0 <_ZN5boost9iterators18transform_iteratorINS_9algorithm6detail20copy_iterator_rangeFINSt7__cxx1112basic_stringIcSt11char_traitsIcESaIcEEEN9__gnu_cxx17__normal_iteratorIPcSA_EEEENS2_14split_iteratorISE_EENS_11use_defaultESI_ED2Ev>
  405d84:	48 8b bd 08 ff ff ff 	mov    -0xf8(%rbp),%rdi
  405d8b:	e8 50 d6 ff ff       	callq  4033e0 <_Unwind_Resume@plt>

0000000000405d90 <_ZN5boost9algorithm12token_finderINS0_6detail10is_any_ofFIcEEEENS2_13token_finderFIT_EES6_NS0_24token_compress_mode_typeE>:
  405d90:	55                   	push   %rbp
  405d91:	48 89 e5             	mov    %rsp,%rbp
  405d94:	48 83 ec 50          	sub    $0x50,%rsp
  405d98:	48 89 f8             	mov    %rdi,%rax
  405d9b:	48 89 7d f8          	mov    %rdi,-0x8(%rbp)
  405d9f:	89 55 f4             	mov    %edx,-0xc(%rbp)
  405da2:	48 8d 4d d8          	lea    -0x28(%rbp),%rcx
  405da6:	48 89 7d c0          	mov    %rdi,-0x40(%rbp)
  405daa:	48 89 cf             	mov    %rcx,%rdi
  405dad:	48 89 45 b8          	mov    %rax,-0x48(%rbp)
  405db1:	48 89 4d b0          	mov    %rcx,-0x50(%rbp)
  405db5:	e8 46 00 00 00       	callq  405e00 <_ZN5boost9algorithm6detail10is_any_ofFIcEC2ERKS3_>
  405dba:	8b 55 f4             	mov    -0xc(%rbp),%edx
  405dbd:	48 8b 7d c0          	mov    -0x40(%rbp),%rdi
  405dc1:	48 8b 75 b0          	mov    -0x50(%rbp),%rsi
  405dc5:	e8 d6 46 00 00       	callq  40a4a0 <_ZN5boost9algorithm6detail13token_finderFINS1_10is_any_ofFIcEEEC2ES4_NS0_24token_compress_mode_typeE>
  405dca:	e9 00 00 00 00       	jmpq   405dcf <_ZN5boost9algorithm12token_finderINS0_6detail10is_any_ofFIcEEEENS2_13token_finderFIT_EES6_NS0_24token_compress_mode_typeE+0x3f>
  405dcf:	48 8d 7d d8          	lea    -0x28(%rbp),%rdi
  405dd3:	e8 68 dd ff ff       	callq  403b40 <_ZN5boost9algorithm6detail10is_any_ofFIcED2Ev>
  405dd8:	48 8b 45 b8          	mov    -0x48(%rbp),%rax
  405ddc:	48 83 c4 50          	add    $0x50,%rsp
  405de0:	5d                   	pop    %rbp
  405de1:	c3                   	retq   
  405de2:	48 89 45 d0          	mov    %rax,-0x30(%rbp)
  405de6:	89 55 cc             	mov    %edx,-0x34(%rbp)
  405de9:	48 8d 7d d8          	lea    -0x28(%rbp),%rdi
  405ded:	e8 4e dd ff ff       	callq  403b40 <_ZN5boost9algorithm6detail10is_any_ofFIcED2Ev>
  405df2:	48 8b 7d d0          	mov    -0x30(%rbp),%rdi
  405df6:	e8 e5 d5 ff ff       	callq  4033e0 <_Unwind_Resume@plt>
  405dfb:	0f 1f 44 00 00       	nopl   0x0(%rax,%rax,1)

0000000000405e00 <_ZN5boost9algorithm6detail10is_any_ofFIcEC2ERKS3_>:
  405e00:	55                   	push   %rbp
  405e01:	48 89 e5             	mov    %rsp,%rbp
  405e04:	48 83 ec 30          	sub    $0x30,%rsp
  405e08:	48 89 7d f8          	mov    %rdi,-0x8(%rbp)
  405e0c:	48 89 75 f0          	mov    %rsi,-0x10(%rbp)
  405e10:	48 8b 45 f8          	mov    -0x8(%rbp),%rax
  405e14:	48 8b 4d f0          	mov    -0x10(%rbp),%rcx
  405e18:	48 8b 49 10          	mov    0x10(%rcx),%rcx
  405e1c:	48 89 48 10          	mov    %rcx,0x10(%rax)
  405e20:	48 c7 00 00 00 00 00 	movq   $0x0,(%rax)
  405e27:	48 c7 45 e8 00 00 00 	movq   $0x0,-0x18(%rbp)
  405e2e:	00 
  405e2f:	48 c7 45 e0 00 00 00 	movq   $0x0,-0x20(%rbp)
  405e36:	00 
  405e37:	48 8b 78 10          	mov    0x10(%rax),%rdi
  405e3b:	48 89 45 d8          	mov    %rax,-0x28(%rbp)
  405e3f:	e8 dc ea ff ff       	callq  404920 <_ZN5boost9algorithm6detail10is_any_ofFIcE17use_fixed_storageEm>
  405e44:	a8 01                	test   $0x1,%al
  405e46:	0f 85 05 00 00 00    	jne    405e51 <_ZN5boost9algorithm6detail10is_any_ofFIcEC2ERKS3_+0x51>
  405e4c:	e9 15 00 00 00       	jmpq   405e66 <_ZN5boost9algorithm6detail10is_any_ofFIcEC2ERKS3_+0x66>
  405e51:	48 8b 45 d8          	mov    -0x28(%rbp),%rax
  405e55:	48 89 45 e0          	mov    %rax,-0x20(%rbp)
  405e59:	48 8b 45 f0          	mov    -0x10(%rbp),%rax
  405e5d:	48 89 45 e8          	mov    %rax,-0x18(%rbp)
  405e61:	e9 26 00 00 00       	jmpq   405e8c <_ZN5boost9algorithm6detail10is_any_ofFIcEC2ERKS3_+0x8c>
  405e66:	48 8b 45 d8          	mov    -0x28(%rbp),%rax
  405e6a:	48 8b 78 10          	mov    0x10(%rax),%rdi
  405e6e:	e8 bd d1 ff ff       	callq  403030 <_Znam@plt>
  405e73:	48 8b 4d d8          	mov    -0x28(%rbp),%rcx
  405e77:	48 89 01             	mov    %rax,(%rcx)
  405e7a:	48 8b 01             	mov    (%rcx),%rax
  405e7d:	48 89 45 e0          	mov    %rax,-0x20(%rbp)
  405e81:	48 8b 45 f0          	mov    -0x10(%rbp),%rax
  405e85:	48 8b 00             	mov    (%rax),%rax
  405e88:	48 89 45 e8          	mov    %rax,-0x18(%rbp)
  405e8c:	48 8b 7d e0          	mov    -0x20(%rbp),%rdi
  405e90:	48 8b 75 e8          	mov    -0x18(%rbp),%rsi
  405e94:	48 8b 45 d8          	mov    -0x28(%rbp),%rax
  405e98:	48 8b 48 10          	mov    0x10(%rax),%rcx
  405e9c:	48 c1 e1 00          	shl    $0x0,%rcx
  405ea0:	48 89 ca             	mov    %rcx,%rdx
  405ea3:	e8 28 d3 ff ff       	callq  4031d0 <memcpy@plt>
  405ea8:	48 83 c4 30          	add    $0x30,%rsp
  405eac:	5d                   	pop    %rbp
  405ead:	c3                   	retq   
  405eae:	66 90                	xchg   %ax,%ax

0000000000405eb0 <_ZN5boost9algorithm6detail13token_finderFINS1_10is_any_ofFIcEEED2Ev>:
  405eb0:	55                   	push   %rbp
  405eb1:	48 89 e5             	mov    %rsp,%rbp
  405eb4:	48 83 ec 10          	sub    $0x10,%rsp
  405eb8:	48 89 7d f8          	mov    %rdi,-0x8(%rbp)
  405ebc:	48 8b 7d f8          	mov    -0x8(%rbp),%rdi
  405ec0:	e8 7b dc ff ff       	callq  403b40 <_ZN5boost9algorithm6detail10is_any_ofFIcED2Ev>
  405ec5:	48 83 c4 10          	add    $0x10,%rsp
  405ec9:	5d                   	pop    %rbp
  405eca:	c3                   	retq   
  405ecb:	0f 1f 44 00 00       	nopl   0x0(%rax,%rax,1)

0000000000405ed0 <_ZN5boost10as_literalINSt7__cxx1112basic_stringIcSt11char_traitsIcESaIcEEEEENS_14iterator_rangeINS_14range_iteratorIT_vE4typeEEERS9_>:
  405ed0:	55                   	push   %rbp
  405ed1:	48 89 e5             	mov    %rsp,%rbp
  405ed4:	48 83 ec 20          	sub    $0x20,%rsp
  405ed8:	48 89 7d e8          	mov    %rdi,-0x18(%rbp)
  405edc:	48 8b 45 e8          	mov    -0x18(%rbp),%rax
  405ee0:	48 89 c7             	mov    %rax,%rdi
  405ee3:	48 89 45 e0          	mov    %rax,-0x20(%rbp)
  405ee7:	e8 94 e7 ff ff       	callq  404680 <_ZN5boost12range_detail11is_char_ptrINSt7__cxx1112basic_stringIcSt11char_traitsIcESaIcEEEEElRKT_>
  405eec:	48 8b 7d e0          	mov    -0x20(%rbp),%rdi
  405ef0:	48 89 c6             	mov    %rax,%rsi
  405ef3:	e8 78 04 00 00       	callq  406370 <_ZN5boost12range_detail10make_rangeINSt7__cxx1112basic_stringIcSt11char_traitsIcESaIcEEEEENS_14iterator_rangeINS_14range_iteratorIT_vE4typeEEERSA_l>
  405ef8:	48 89 45 f0          	mov    %rax,-0x10(%rbp)
  405efc:	48 89 55 f8          	mov    %rdx,-0x8(%rbp)
  405f00:	48 8b 45 f0          	mov    -0x10(%rbp),%rax
  405f04:	48 8b 55 f8          	mov    -0x8(%rbp),%rdx
  405f08:	48 83 c4 20          	add    $0x20,%rsp
  405f0c:	5d                   	pop    %rbp
  405f0d:	c3                   	retq   
  405f0e:	66 90                	xchg   %ax,%ax

0000000000405f10 <_ZN5boost17range_adl_barrier3endINS_14iterator_rangeIN9__gnu_cxx17__normal_iteratorIPcNSt7__cxx1112basic_stringIcSt11char_traitsIcESaIcEEEEEEEEENS_14range_iteratorIT_vE4typeERSF_>:
  405f10:	55                   	push   %rbp
  405f11:	48 89 e5             	mov    %rsp,%rbp
  405f14:	48 83 ec 10          	sub    $0x10,%rsp
  405f18:	48 89 7d f0          	mov    %rdi,-0x10(%rbp)
  405f1c:	48 8b 7d f0          	mov    -0x10(%rbp),%rdi
  405f20:	e8 cb 06 00 00       	callq  4065f0 <_ZN5boost12range_detail9range_endINS_14iterator_rangeIN9__gnu_cxx17__normal_iteratorIPcNSt7__cxx1112basic_stringIcSt11char_traitsIcESaIcEEEEEEEEENS_14range_iteratorIT_vE4typeERSF_>
  405f25:	48 89 45 f8          	mov    %rax,-0x8(%rbp)
  405f29:	48 8b 45 f8          	mov    -0x8(%rbp),%rax
  405f2d:	48 83 c4 10          	add    $0x10,%rsp
  405f31:	5d                   	pop    %rbp
  405f32:	c3                   	retq   
  405f33:	66 2e 0f 1f 84 00 00 	nopw   %cs:0x0(%rax,%rax,1)
  405f3a:	00 00 00 
  405f3d:	0f 1f 00             	nopl   (%rax)

0000000000405f40 <_ZN5boost9iterators23make_transform_iteratorINS_9algorithm6detail20copy_iterator_rangeFINSt7__cxx1112basic_stringIcSt11char_traitsIcESaIcEEEN9__gnu_cxx17__normal_iteratorIPcSA_EEEENS2_14split_iteratorISE_EEEENS0_18transform_iteratorIT_T0_NS_11use_defaultESL_EESK_SJ_>:
  405f40:	55                   	push   %rbp
  405f41:	48 89 e5             	mov    %rsp,%rbp
  405f44:	48 83 ec 20          	sub    $0x20,%rsp
  405f48:	48 89 f8             	mov    %rdi,%rax
  405f4b:	48 89 f9             	mov    %rdi,%rcx
  405f4e:	48 89 4d f8          	mov    %rcx,-0x8(%rbp)
  405f52:	48 89 45 e0          	mov    %rax,-0x20(%rbp)
  405f56:	e8 e5 06 00 00       	callq  406640 <_ZN5boost9iterators18transform_iteratorINS_9algorithm6detail20copy_iterator_rangeFINSt7__cxx1112basic_stringIcSt11char_traitsIcESaIcEEEN9__gnu_cxx17__normal_iteratorIPcSA_EEEENS2_14split_iteratorISE_EENS_11use_defaultESI_EC2ERKSH_SF_>
  405f5b:	48 8b 45 e0          	mov    -0x20(%rbp),%rax
  405f5f:	48 83 c4 20          	add    $0x20,%rsp
  405f63:	5d                   	pop    %rbp
  405f64:	c3                   	retq   
  405f65:	66 2e 0f 1f 84 00 00 	nopw   %cs:0x0(%rax,%rax,1)
  405f6c:	00 00 00 
  405f6f:	90                   	nop

0000000000405f70 <_ZN5boost17range_adl_barrier5beginINS_14iterator_rangeIN9__gnu_cxx17__normal_iteratorIPcNSt7__cxx1112basic_stringIcSt11char_traitsIcESaIcEEEEEEEEENS_14range_iteratorIT_vE4typeERSF_>:
  405f70:	55                   	push   %rbp
  405f71:	48 89 e5             	mov    %rsp,%rbp
  405f74:	48 83 ec 10          	sub    $0x10,%rsp
  405f78:	48 89 7d f0          	mov    %rdi,-0x10(%rbp)
  405f7c:	48 8b 7d f0          	mov    -0x10(%rbp),%rdi
  405f80:	e8 3b 09 00 00       	callq  4068c0 <_ZN5boost12range_detail11range_beginINS_14iterator_rangeIN9__gnu_cxx17__normal_iteratorIPcNSt7__cxx1112basic_stringIcSt11char_traitsIcESaIcEEEEEEEEENS_14range_iteratorIT_vE4typeERSF_>
  405f85:	48 89 45 f8          	mov    %rax,-0x8(%rbp)
  405f89:	48 8b 45 f8          	mov    -0x8(%rbp),%rax
  405f8d:	48 83 c4 10          	add    $0x10,%rsp
  405f91:	5d                   	pop    %rbp
  405f92:	c3                   	retq   
  405f93:	66 2e 0f 1f 84 00 00 	nopw   %cs:0x0(%rax,%rax,1)
  405f9a:	00 00 00 
  405f9d:	0f 1f 00             	nopl   (%rax)

0000000000405fa0 <_ZN5boost9algorithm6detail13token_finderFINS1_10is_any_ofFIcEEEC2ERKS5_>:
  405fa0:	55                   	push   %rbp
  405fa1:	48 89 e5             	mov    %rsp,%rbp
  405fa4:	48 83 ec 20          	sub    $0x20,%rsp
  405fa8:	48 89 7d f8          	mov    %rdi,-0x8(%rbp)
  405fac:	48 89 75 f0          	mov    %rsi,-0x10(%rbp)
  405fb0:	48 8b 45 f8          	mov    -0x8(%rbp),%rax
  405fb4:	48 8b 75 f0          	mov    -0x10(%rbp),%rsi
  405fb8:	48 89 c7             	mov    %rax,%rdi
  405fbb:	48 89 45 e8          	mov    %rax,-0x18(%rbp)
  405fbf:	e8 3c fe ff ff       	callq  405e00 <_ZN5boost9algorithm6detail10is_any_ofFIcEC2ERKS3_>
  405fc4:	48 8b 45 f0          	mov    -0x10(%rbp),%rax
  405fc8:	8b 48 18             	mov    0x18(%rax),%ecx
  405fcb:	48 8b 45 e8          	mov    -0x18(%rbp),%rax
  405fcf:	89 48 18             	mov    %ecx,0x18(%rax)
  405fd2:	48 83 c4 20          	add    $0x20,%rsp
  405fd6:	5d                   	pop    %rbp
  405fd7:	c3                   	retq   
  405fd8:	0f 1f 84 00 00 00 00 	nopl   0x0(%rax,%rax,1)
  405fdf:	00 

0000000000405fe0 <_ZN5boost9algorithm14split_iteratorIN9__gnu_cxx17__normal_iteratorIPcNSt7__cxx1112basic_stringIcSt11char_traitsIcESaIcEEEEEEC2INS0_6detail13token_finderFINSE_10is_any_ofFIcEEEEEESB_SB_T_>:
  405fe0:	55                   	push   %rbp
  405fe1:	48 89 e5             	mov    %rsp,%rbp
  405fe4:	48 83 ec 70          	sub    $0x70,%rsp
  405fe8:	48 89 75 f8          	mov    %rsi,-0x8(%rbp)
  405fec:	48 89 55 f0          	mov    %rdx,-0x10(%rbp)
  405ff0:	48 89 7d e8          	mov    %rdi,-0x18(%rbp)
  405ff4:	48 8b 45 e8          	mov    -0x18(%rbp),%rax
  405ff8:	48 8d 55 c8          	lea    -0x38(%rbp),%rdx
  405ffc:	48 89 d7             	mov    %rdx,%rdi
  405fff:	48 89 ce             	mov    %rcx,%rsi
  406002:	48 89 45 a0          	mov    %rax,-0x60(%rbp)
  406006:	48 89 55 98          	mov    %rdx,-0x68(%rbp)
  40600a:	e8 91 ff ff ff       	callq  405fa0 <_ZN5boost9algorithm6detail13token_finderFINS1_10is_any_ofFIcEEEC2ERKS5_>
  40600f:	31 d2                	xor    %edx,%edx
  406011:	48 8b 7d a0          	mov    -0x60(%rbp),%rdi
  406015:	48 8b 75 98          	mov    -0x68(%rbp),%rsi
  406019:	e8 f2 08 00 00       	callq  406910 <_ZN5boost9algorithm6detail18find_iterator_baseIN9__gnu_cxx17__normal_iteratorIPcNSt7__cxx1112basic_stringIcSt11char_traitsIcESaIcEEEEEEC2INS1_13token_finderFINS1_10is_any_ofFIcEEEEEET_i>
  40601e:	e9 00 00 00 00       	jmpq   406023 <_ZN5boost9algorithm14split_iteratorIN9__gnu_cxx17__normal_iteratorIPcNSt7__cxx1112basic_stringIcSt11char_traitsIcESaIcEEEEEEC2INS0_6detail13token_finderFINSE_10is_any_ofFIcEEEEEESB_SB_T_+0x43>
  406023:	48 8d 7d c8          	lea    -0x38(%rbp),%rdi
  406027:	e8 84 fe ff ff       	callq  405eb0 <_ZN5boost9algorithm6detail13token_finderFINS1_10is_any_ofFIcEEED2Ev>
  40602c:	48 8b 45 a0          	mov    -0x60(%rbp),%rax
  406030:	48 83 c0 20          	add    $0x20,%rax
  406034:	48 8b 4d f8          	mov    -0x8(%rbp),%rcx
  406038:	48 89 4d b0          	mov    %rcx,-0x50(%rbp)
  40603c:	48 8b 4d f8          	mov    -0x8(%rbp),%rcx
  406040:	48 89 4d a8          	mov    %rcx,-0x58(%rbp)
  406044:	48 8b 75 b0          	mov    -0x50(%rbp),%rsi
  406048:	48 8b 55 a8          	mov    -0x58(%rbp),%rdx
  40604c:	48 89 c7             	mov    %rax,%rdi
  40604f:	e8 2c 09 00 00       	callq  406980 <_ZN5boost14iterator_rangeIN9__gnu_cxx17__normal_iteratorIPcNSt7__cxx1112basic_stringIcSt11char_traitsIcESaIcEEEEEEC2ISA_EET_SD_>
  406054:	e9 00 00 00 00       	jmpq   406059 <_ZN5boost9algorithm14split_iteratorIN9__gnu_cxx17__normal_iteratorIPcNSt7__cxx1112basic_stringIcSt11char_traitsIcESaIcEEEEEEC2INS0_6detail13token_finderFINSE_10is_any_ofFIcEEEEEESB_SB_T_+0x79>
  406059:	48 8b 45 f8          	mov    -0x8(%rbp),%rax
  40605d:	48 8b 4d a0          	mov    -0x60(%rbp),%rcx
  406061:	48 89 41 30          	mov    %rax,0x30(%rcx)
  406065:	48 8b 45 f0          	mov    -0x10(%rbp),%rax
  406069:	48 89 41 38          	mov    %rax,0x38(%rcx)
  40606d:	c6 41 40 00          	movb   $0x0,0x40(%rcx)
  406071:	48 8d 7d f8          	lea    -0x8(%rbp),%rdi
  406075:	48 8d 75 f0          	lea    -0x10(%rbp),%rsi
  406079:	e8 42 09 00 00       	callq  4069c0 <_ZN9__gnu_cxxneIPcNSt7__cxx1112basic_stringIcSt11char_traitsIcESaIcEEEEEbRKNS_17__normal_iteratorIT_T0_EESD_>
  40607e:	a8 01                	test   $0x1,%al
  406080:	0f 85 05 00 00 00    	jne    40608b <_ZN5boost9algorithm14split_iteratorIN9__gnu_cxx17__normal_iteratorIPcNSt7__cxx1112basic_stringIcSt11char_traitsIcESaIcEEEEEEC2INS0_6detail13token_finderFINSE_10is_any_ofFIcEEEEEESB_SB_T_+0xab>
  406086:	e9 40 00 00 00       	jmpq   4060cb <_ZN5boost9algorithm14split_iteratorIN9__gnu_cxx17__normal_iteratorIPcNSt7__cxx1112basic_stringIcSt11char_traitsIcESaIcEEEEEEC2INS0_6detail13token_finderFINSE_10is_any_ofFIcEEEEEESB_SB_T_+0xeb>
  40608b:	48 8b 7d a0          	mov    -0x60(%rbp),%rdi
  40608f:	e8 6c 09 00 00       	callq  406a00 <_ZN5boost9algorithm14split_iteratorIN9__gnu_cxx17__normal_iteratorIPcNSt7__cxx1112basic_stringIcSt11char_traitsIcESaIcEEEEEE9incrementEv>
  406094:	e9 00 00 00 00       	jmpq   406099 <_ZN5boost9algorithm14split_iteratorIN9__gnu_cxx17__normal_iteratorIPcNSt7__cxx1112basic_stringIcSt11char_traitsIcESaIcEEEEEEC2INS0_6detail13token_finderFINSE_10is_any_ofFIcEEEEEESB_SB_T_+0xb9>
  406099:	e9 2d 00 00 00       	jmpq   4060cb <_ZN5boost9algorithm14split_iteratorIN9__gnu_cxx17__normal_iteratorIPcNSt7__cxx1112basic_stringIcSt11char_traitsIcESaIcEEEEEEC2INS0_6detail13token_finderFINSE_10is_any_ofFIcEEEEEESB_SB_T_+0xeb>
  40609e:	48 89 45 c0          	mov    %rax,-0x40(%rbp)
  4060a2:	89 55 bc             	mov    %edx,-0x44(%rbp)
  4060a5:	48 8d 7d c8          	lea    -0x38(%rbp),%rdi
  4060a9:	e8 02 fe ff ff       	callq  405eb0 <_ZN5boost9algorithm6detail13token_finderFINS1_10is_any_ofFIcEEED2Ev>
  4060ae:	e9 1e 00 00 00       	jmpq   4060d1 <_ZN5boost9algorithm14split_iteratorIN9__gnu_cxx17__normal_iteratorIPcNSt7__cxx1112basic_stringIcSt11char_traitsIcESaIcEEEEEEC2INS0_6detail13token_finderFINSE_10is_any_ofFIcEEEEEESB_SB_T_+0xf1>
  4060b3:	48 89 45 c0          	mov    %rax,-0x40(%rbp)
  4060b7:	89 55 bc             	mov    %edx,-0x44(%rbp)
  4060ba:	48 8b 45 a0          	mov    -0x60(%rbp),%rax
  4060be:	48 89 c7             	mov    %rax,%rdi
  4060c1:	e8 aa 0a 00 00       	callq  406b70 <_ZN5boost9algorithm6detail18find_iterator_baseIN9__gnu_cxx17__normal_iteratorIPcNSt7__cxx1112basic_stringIcSt11char_traitsIcESaIcEEEEEED2Ev>
  4060c6:	e9 06 00 00 00       	jmpq   4060d1 <_ZN5boost9algorithm14split_iteratorIN9__gnu_cxx17__normal_iteratorIPcNSt7__cxx1112basic_stringIcSt11char_traitsIcESaIcEEEEEEC2INS0_6detail13token_finderFINSE_10is_any_ofFIcEEEEEESB_SB_T_+0xf1>
  4060cb:	48 83 c4 70          	add    $0x70,%rsp
  4060cf:	5d                   	pop    %rbp
  4060d0:	c3                   	retq   
  4060d1:	48 8b 7d c0          	mov    -0x40(%rbp),%rdi
  4060d5:	e8 06 d3 ff ff       	callq  4033e0 <_Unwind_Resume@plt>
  4060da:	66 0f 1f 44 00 00    	nopw   0x0(%rax,%rax,1)

00000000004060e0 <_ZN5boost9algorithm14split_iteratorIN9__gnu_cxx17__normal_iteratorIPcNSt7__cxx1112basic_stringIcSt11char_traitsIcESaIcEEEEEED2Ev>:
  4060e0:	55                   	push   %rbp
  4060e1:	48 89 e5             	mov    %rsp,%rbp
  4060e4:	48 83 ec 10          	sub    $0x10,%rsp
  4060e8:	48 89 7d f8          	mov    %rdi,-0x8(%rbp)
  4060ec:	48 8b 45 f8          	mov    -0x8(%rbp),%rax
  4060f0:	48 89 c7             	mov    %rax,%rdi
  4060f3:	e8 78 0a 00 00       	callq  406b70 <_ZN5boost9algorithm6detail18find_iterator_baseIN9__gnu_cxx17__normal_iteratorIPcNSt7__cxx1112basic_stringIcSt11char_traitsIcESaIcEEEEEED2Ev>
  4060f8:	48 83 c4 10          	add    $0x10,%rsp
  4060fc:	5d                   	pop    %rbp
  4060fd:	c3                   	retq   
  4060fe:	66 90                	xchg   %ax,%ax

0000000000406100 <_ZN5boost9algorithm14split_iteratorIN9__gnu_cxx17__normal_iteratorIPcNSt7__cxx1112basic_stringIcSt11char_traitsIcESaIcEEEEEEC2Ev>:
  406100:	55                   	push   %rbp
  406101:	48 89 e5             	mov    %rsp,%rbp
  406104:	48 83 ec 20          	sub    $0x20,%rsp
  406108:	48 89 7d f8          	mov    %rdi,-0x8(%rbp)
  40610c:	48 8b 45 f8          	mov    -0x8(%rbp),%rax
  406110:	48 89 c7             	mov    %rax,%rdi
  406113:	48 89 45 e0          	mov    %rax,-0x20(%rbp)
  406117:	e8 a4 28 00 00       	callq  4089c0 <_ZN5boost9algorithm6detail18find_iterator_baseIN9__gnu_cxx17__normal_iteratorIPcNSt7__cxx1112basic_stringIcSt11char_traitsIcESaIcEEEEEEC2Ev>
  40611c:	48 8b 45 e0          	mov    -0x20(%rbp),%rax
  406120:	48 83 c0 20          	add    $0x20,%rax
  406124:	48 89 c7             	mov    %rax,%rdi
  406127:	e8 b4 28 00 00       	callq  4089e0 <_ZN5boost14iterator_rangeIN9__gnu_cxx17__normal_iteratorIPcNSt7__cxx1112basic_stringIcSt11char_traitsIcESaIcEEEEEEC2Ev>
  40612c:	e9 00 00 00 00       	jmpq   406131 <_ZN5boost9algorithm14split_iteratorIN9__gnu_cxx17__normal_iteratorIPcNSt7__cxx1112basic_stringIcSt11char_traitsIcESaIcEEEEEEC2Ev+0x31>
  406131:	48 8b 45 e0          	mov    -0x20(%rbp),%rax
  406135:	48 05 30 00 00 00    	add    $0x30,%rax
  40613b:	48 89 c7             	mov    %rax,%rdi
  40613e:	e8 bd 28 00 00       	callq  408a00 <_ZN9__gnu_cxx17__normal_iteratorIPcNSt7__cxx1112basic_stringIcSt11char_traitsIcESaIcEEEEC2Ev>
  406143:	48 8b 45 e0          	mov    -0x20(%rbp),%rax
  406147:	48 05 38 00 00 00    	add    $0x38,%rax
  40614d:	48 89 c7             	mov    %rax,%rdi
  406150:	e8 ab 28 00 00       	callq  408a00 <_ZN9__gnu_cxx17__normal_iteratorIPcNSt7__cxx1112basic_stringIcSt11char_traitsIcESaIcEEEEC2Ev>
  406155:	48 8b 45 e0          	mov    -0x20(%rbp),%rax
  406159:	c6 40 40 01          	movb   $0x1,0x40(%rax)
  40615d:	48 83 c4 20          	add    $0x20,%rsp
  406161:	5d                   	pop    %rbp
  406162:	c3                   	retq   
  406163:	48 89 45 f0          	mov    %rax,-0x10(%rbp)
  406167:	89 55 ec             	mov    %edx,-0x14(%rbp)
  40616a:	48 8b 45 e0          	mov    -0x20(%rbp),%rax
  40616e:	48 89 c7             	mov    %rax,%rdi
  406171:	e8 fa 09 00 00       	callq  406b70 <_ZN5boost9algorithm6detail18find_iterator_baseIN9__gnu_cxx17__normal_iteratorIPcNSt7__cxx1112basic_stringIcSt11char_traitsIcESaIcEEEEEED2Ev>
  406176:	48 8b 7d f0          	mov    -0x10(%rbp),%rdi
  40617a:	e8 61 d2 ff ff       	callq  4033e0 <_Unwind_Resume@plt>
  40617f:	90                   	nop

0000000000406180 <_ZN5boost9iterators18transform_iteratorINS_9algorithm6detail20copy_iterator_rangeFINSt7__cxx1112basic_stringIcSt11char_traitsIcESaIcEEEN9__gnu_cxx17__normal_iteratorIPcSA_EEEENS2_14split_iteratorISE_EENS_11use_defaultESI_EC2ERKSJ_>:
  406180:	55                   	push   %rbp
  406181:	48 89 e5             	mov    %rsp,%rbp
  406184:	48 83 ec 10          	sub    $0x10,%rsp
  406188:	48 89 7d f8          	mov    %rdi,-0x8(%rbp)
  40618c:	48 89 75 f0          	mov    %rsi,-0x10(%rbp)
  406190:	48 8b 45 f8          	mov    -0x8(%rbp),%rax
  406194:	48 8b 4d f0          	mov    -0x10(%rbp),%rcx
  406198:	48 89 c7             	mov    %rax,%rdi
  40619b:	48 89 ce             	mov    %rcx,%rsi
  40619e:	e8 1d 29 00 00       	callq  408ac0 <_ZN5boost9iterators16iterator_adaptorINS0_18transform_iteratorINS_9algorithm6detail20copy_iterator_rangeFINSt7__cxx1112basic_stringIcSt11char_traitsIcESaIcEEEN9__gnu_cxx17__normal_iteratorIPcSB_EEEENS3_14split_iteratorISF_EENS_11use_defaultESJ_EESI_SB_SJ_SB_SJ_EC2ERKSL_>
  4061a3:	48 83 c4 10          	add    $0x10,%rsp
  4061a7:	5d                   	pop    %rbp
  4061a8:	c3                   	retq   
  4061a9:	0f 1f 80 00 00 00 00 	nopl   0x0(%rax)

00000000004061b0 <_ZNSaINSt7__cxx1112basic_stringIcSt11char_traitsIcESaIcEEEEC2Ev>:
  4061b0:	55                   	push   %rbp
  4061b1:	48 89 e5             	mov    %rsp,%rbp
  4061b4:	48 83 ec 10          	sub    $0x10,%rsp
  4061b8:	48 89 7d f8          	mov    %rdi,-0x8(%rbp)
  4061bc:	48 8b 45 f8          	mov    -0x8(%rbp),%rax
  4061c0:	48 89 c7             	mov    %rax,%rdi
  4061c3:	e8 e8 dd ff ff       	callq  403fb0 <_ZN9__gnu_cxx13new_allocatorINSt7__cxx1112basic_stringIcSt11char_traitsIcESaIcEEEEC2Ev>
  4061c8:	48 83 c4 10          	add    $0x10,%rsp
  4061cc:	5d                   	pop    %rbp
  4061cd:	c3                   	retq   
  4061ce:	66 90                	xchg   %ax,%ax

00000000004061d0 <_ZNSt6vectorINSt7__cxx1112basic_stringIcSt11char_traitsIcESaIcEEESaIS5_EEC2IN5boost9iterators18transform_iteratorINS9_9algorithm6detail20copy_iterator_rangeFIS5_N9__gnu_cxx17__normal_iteratorIPcS5_EEEENSC_14split_iteratorISI_EENS9_11use_defaultESM_EEvEET_SO_RKS6_>:
  4061d0:	55                   	push   %rbp
  4061d1:	48 89 e5             	mov    %rsp,%rbp
  4061d4:	48 81 ec f0 00 00 00 	sub    $0xf0,%rsp
  4061db:	48 89 7d f8          	mov    %rdi,-0x8(%rbp)
  4061df:	48 89 4d f0          	mov    %rcx,-0x10(%rbp)
  4061e3:	48 8b 45 f8          	mov    -0x8(%rbp),%rax
  4061e7:	48 8b 4d f0          	mov    -0x10(%rbp),%rcx
  4061eb:	48 89 c7             	mov    %rax,%rdi
  4061ee:	48 89 b5 20 ff ff ff 	mov    %rsi,-0xe0(%rbp)
  4061f5:	48 89 ce             	mov    %rcx,%rsi
  4061f8:	48 89 95 18 ff ff ff 	mov    %rdx,-0xe8(%rbp)
  4061ff:	48 89 85 10 ff ff ff 	mov    %rax,-0xf0(%rbp)
  406206:	e8 e5 28 00 00       	callq  408af0 <_ZNSt12_Vector_baseINSt7__cxx1112basic_stringIcSt11char_traitsIcESaIcEEESaIS5_EEC2ERKS6_>
  40620b:	48 8d 7d a0          	lea    -0x60(%rbp),%rdi
  40620f:	48 8b b5 20 ff ff ff 	mov    -0xe0(%rbp),%rsi
  406216:	e8 65 ff ff ff       	callq  406180 <_ZN5boost9iterators18transform_iteratorINS_9algorithm6detail20copy_iterator_rangeFINSt7__cxx1112basic_stringIcSt11char_traitsIcESaIcEEEN9__gnu_cxx17__normal_iteratorIPcSA_EEEENS2_14split_iteratorISE_EENS_11use_defaultESI_EC2ERKSJ_>
  40621b:	e9 00 00 00 00       	jmpq   406220 <_ZNSt6vectorINSt7__cxx1112basic_stringIcSt11char_traitsIcESaIcEEESaIS5_EEC2IN5boost9iterators18transform_iteratorINS9_9algorithm6detail20copy_iterator_rangeFIS5_N9__gnu_cxx17__normal_iteratorIPcS5_EEEENSC_14split_iteratorISI_EENS9_11use_defaultESM_EEvEET_SO_RKS6_+0x50>
  406220:	48 8d bd 40 ff ff ff 	lea    -0xc0(%rbp),%rdi
  406227:	48 8b b5 18 ff ff ff 	mov    -0xe8(%rbp),%rsi
  40622e:	e8 4d ff ff ff       	callq  406180 <_ZN5boost9iterators18transform_iteratorINS_9algorithm6detail20copy_iterator_rangeFINSt7__cxx1112basic_stringIcSt11char_traitsIcESaIcEEEN9__gnu_cxx17__normal_iteratorIPcSA_EEEENS2_14split_iteratorISE_EENS_11use_defaultESI_EC2ERKSJ_>
  406233:	e9 00 00 00 00       	jmpq   406238 <_ZNSt6vectorINSt7__cxx1112basic_stringIcSt11char_traitsIcESaIcEEESaIS5_EEC2IN5boost9iterators18transform_iteratorINS9_9algorithm6detail20copy_iterator_rangeFIS5_N9__gnu_cxx17__normal_iteratorIPcS5_EEEENSC_14split_iteratorISI_EENS9_11use_defaultESM_EEvEET_SO_RKS6_+0x68>
  406238:	48 8b bd 20 ff ff ff 	mov    -0xe0(%rbp),%rdi
  40623f:	e8 dc 29 00 00       	callq  408c20 <_ZSt19__iterator_categoryIN5boost9iterators18transform_iteratorINS0_9algorithm6detail20copy_iterator_rangeFINSt7__cxx1112basic_stringIcSt11char_traitsIcESaIcEEEN9__gnu_cxx17__normal_iteratorIPcSB_EEEENS3_14split_iteratorISF_EENS0_11use_defaultESJ_EEENSt15iterator_traitsIT_E17iterator_categoryERKSM_>
  406244:	e9 00 00 00 00       	jmpq   406249 <_ZNSt6vectorINSt7__cxx1112basic_stringIcSt11char_traitsIcESaIcEEESaIS5_EEC2IN5boost9iterators18transform_iteratorINS9_9algorithm6detail20copy_iterator_rangeFIS5_N9__gnu_cxx17__normal_iteratorIPcS5_EEEENSC_14split_iteratorISI_EENS9_11use_defaultESM_EEvEET_SO_RKS6_+0x79>
  406249:	48 8d 75 a0          	lea    -0x60(%rbp),%rsi
  40624d:	48 8d 95 40 ff ff ff 	lea    -0xc0(%rbp),%rdx
  406254:	48 8b bd 10 ff ff ff 	mov    -0xf0(%rbp),%rdi
  40625b:	e8 c0 28 00 00       	callq  408b20 <_ZNSt6vectorINSt7__cxx1112basic_stringIcSt11char_traitsIcESaIcEEESaIS5_EE19_M_range_initializeIN5boost9iterators18transform_iteratorINS9_9algorithm6detail20copy_iterator_rangeFIS5_N9__gnu_cxx17__normal_iteratorIPcS5_EEEENSC_14split_iteratorISI_EENS9_11use_defaultESM_EEEEvT_SO_St18input_iterator_tag>
  406260:	e9 00 00 00 00       	jmpq   406265 <_ZNSt6vectorINSt7__cxx1112basic_stringIcSt11char_traitsIcESaIcEEESaIS5_EEC2IN5boost9iterators18transform_iteratorINS9_9algorithm6detail20copy_iterator_rangeFIS5_N9__gnu_cxx17__normal_iteratorIPcS5_EEEENSC_14split_iteratorISI_EENS9_11use_defaultESM_EEvEET_SO_RKS6_+0x95>
  406265:	48 8d bd 40 ff ff ff 	lea    -0xc0(%rbp),%rdi
  40626c:	e8 7f 00 00 00       	callq  4062f0 <_ZN5boost9iterators18transform_iteratorINS_9algorithm6detail20copy_iterator_rangeFINSt7__cxx1112basic_stringIcSt11char_traitsIcESaIcEEEN9__gnu_cxx17__normal_iteratorIPcSA_EEEENS2_14split_iteratorISE_EENS_11use_defaultESI_ED2Ev>
  406271:	48 8d 7d a0          	lea    -0x60(%rbp),%rdi
  406275:	e8 76 00 00 00       	callq  4062f0 <_ZN5boost9iterators18transform_iteratorINS_9algorithm6detail20copy_iterator_rangeFINSt7__cxx1112basic_stringIcSt11char_traitsIcESaIcEEEN9__gnu_cxx17__normal_iteratorIPcSA_EEEENS2_14split_iteratorISE_EENS_11use_defaultESI_ED2Ev>
  40627a:	48 81 c4 f0 00 00 00 	add    $0xf0,%rsp
  406281:	5d                   	pop    %rbp
  406282:	c3                   	retq   
  406283:	48 89 45 98          	mov    %rax,-0x68(%rbp)
  406287:	89 55 94             	mov    %edx,-0x6c(%rbp)
  40628a:	e9 28 00 00 00       	jmpq   4062b7 <_ZNSt6vectorINSt7__cxx1112basic_stringIcSt11char_traitsIcESaIcEEESaIS5_EEC2IN5boost9iterators18transform_iteratorINS9_9algorithm6detail20copy_iterator_rangeFIS5_N9__gnu_cxx17__normal_iteratorIPcS5_EEEENSC_14split_iteratorISI_EENS9_11use_defaultESM_EEvEET_SO_RKS6_+0xe7>
  40628f:	48 89 45 98          	mov    %rax,-0x68(%rbp)
  406293:	89 55 94             	mov    %edx,-0x6c(%rbp)
  406296:	e9 13 00 00 00       	jmpq   4062ae <_ZNSt6vectorINSt7__cxx1112basic_stringIcSt11char_traitsIcESaIcEEESaIS5_EEC2IN5boost9iterators18transform_iteratorINS9_9algorithm6detail20copy_iterator_rangeFIS5_N9__gnu_cxx17__normal_iteratorIPcS5_EEEENSC_14split_iteratorISI_EENS9_11use_defaultESM_EEvEET_SO_RKS6_+0xde>
  40629b:	48 89 45 98          	mov    %rax,-0x68(%rbp)
  40629f:	89 55 94             	mov    %edx,-0x6c(%rbp)
  4062a2:	48 8d bd 40 ff ff ff 	lea    -0xc0(%rbp),%rdi
  4062a9:	e8 42 00 00 00       	callq  4062f0 <_ZN5boost9iterators18transform_iteratorINS_9algorithm6detail20copy_iterator_rangeFINSt7__cxx1112basic_stringIcSt11char_traitsIcESaIcEEEN9__gnu_cxx17__normal_iteratorIPcSA_EEEENS2_14split_iteratorISE_EENS_11use_defaultESI_ED2Ev>
  4062ae:	48 8d 7d a0          	lea    -0x60(%rbp),%rdi
  4062b2:	e8 39 00 00 00       	callq  4062f0 <_ZN5boost9iterators18transform_iteratorINS_9algorithm6detail20copy_iterator_rangeFINSt7__cxx1112basic_stringIcSt11char_traitsIcESaIcEEEN9__gnu_cxx17__normal_iteratorIPcSA_EEEENS2_14split_iteratorISE_EENS_11use_defaultESI_ED2Ev>
  4062b7:	48 8b 85 10 ff ff ff 	mov    -0xf0(%rbp),%rax
  4062be:	48 89 c7             	mov    %rax,%rdi
  4062c1:	e8 7a e0 ff ff       	callq  404340 <_ZNSt12_Vector_baseINSt7__cxx1112basic_stringIcSt11char_traitsIcESaIcEEESaIS5_EED2Ev>
  4062c6:	48 8b 7d 98          	mov    -0x68(%rbp),%rdi
  4062ca:	e8 11 d1 ff ff       	callq  4033e0 <_Unwind_Resume@plt>
  4062cf:	90                   	nop

00000000004062d0 <_ZNSaINSt7__cxx1112basic_stringIcSt11char_traitsIcESaIcEEEED2Ev>:
  4062d0:	55                   	push   %rbp
  4062d1:	48 89 e5             	mov    %rsp,%rbp
  4062d4:	48 83 ec 10          	sub    $0x10,%rsp
  4062d8:	48 89 7d f8          	mov    %rdi,-0x8(%rbp)
  4062dc:	48 8b 45 f8          	mov    -0x8(%rbp),%rax
  4062e0:	48 89 c7             	mov    %rax,%rdi
  4062e3:	e8 38 e2 ff ff       	callq  404520 <_ZN9__gnu_cxx13new_allocatorINSt7__cxx1112basic_stringIcSt11char_traitsIcESaIcEEEED2Ev>
  4062e8:	48 83 c4 10          	add    $0x10,%rsp
  4062ec:	5d                   	pop    %rbp
  4062ed:	c3                   	retq   
  4062ee:	66 90                	xchg   %ax,%ax

00000000004062f0 <_ZN5boost9iterators18transform_iteratorINS_9algorithm6detail20copy_iterator_rangeFINSt7__cxx1112basic_stringIcSt11char_traitsIcESaIcEEEN9__gnu_cxx17__normal_iteratorIPcSA_EEEENS2_14split_iteratorISE_EENS_11use_defaultESI_ED2Ev>:
  4062f0:	55                   	push   %rbp
  4062f1:	48 89 e5             	mov    %rsp,%rbp
  4062f4:	48 83 ec 10          	sub    $0x10,%rsp
  4062f8:	48 89 7d f8          	mov    %rdi,-0x8(%rbp)
  4062fc:	48 8b 45 f8          	mov    -0x8(%rbp),%rax
  406300:	48 89 c7             	mov    %rax,%rdi
  406303:	e8 48 40 00 00       	callq  40a350 <_ZN5boost9iterators16iterator_adaptorINS0_18transform_iteratorINS_9algorithm6detail20copy_iterator_rangeFINSt7__cxx1112basic_stringIcSt11char_traitsIcESaIcEEEN9__gnu_cxx17__normal_iteratorIPcSB_EEEENS3_14split_iteratorISF_EENS_11use_defaultESJ_EESI_SB_SJ_SB_SJ_ED2Ev>
  406308:	48 83 c4 10          	add    $0x10,%rsp
  40630c:	5d                   	pop    %rbp
  40630d:	c3                   	retq   
  40630e:	66 90                	xchg   %ax,%ax

0000000000406310 <_ZNSt6vectorINSt7__cxx1112basic_stringIcSt11char_traitsIcESaIcEEESaIS5_EE4swapERS7_>:
  406310:	55                   	push   %rbp
  406311:	48 89 e5             	mov    %rsp,%rbp
  406314:	48 83 ec 30          	sub    $0x30,%rsp
  406318:	48 89 7d f8          	mov    %rdi,-0x8(%rbp)
  40631c:	48 89 75 f0          	mov    %rsi,-0x10(%rbp)
  406320:	48 8b 45 f8          	mov    -0x8(%rbp),%rax
  406324:	48 8b 75 f0          	mov    -0x10(%rbp),%rsi
  406328:	48 89 c7             	mov    %rax,%rdi
  40632b:	48 89 45 e8          	mov    %rax,-0x18(%rbp)
  40632f:	e8 3c 40 00 00       	callq  40a370 <_ZNSt12_Vector_baseINSt7__cxx1112basic_stringIcSt11char_traitsIcESaIcEEESaIS5_EE17_Vector_impl_data12_M_swap_dataERS8_>
  406334:	48 8b 7d e8          	mov    -0x18(%rbp),%rdi
  406338:	e8 f3 df ff ff       	callq  404330 <_ZNSt12_Vector_baseINSt7__cxx1112basic_stringIcSt11char_traitsIcESaIcEEESaIS5_EE19_M_get_Tp_allocatorEv>
  40633d:	48 8b 7d f0          	mov    -0x10(%rbp),%rdi
  406341:	48 89 45 e0          	mov    %rax,-0x20(%rbp)
  406345:	e8 e6 df ff ff       	callq  404330 <_ZNSt12_Vector_baseINSt7__cxx1112basic_stringIcSt11char_traitsIcESaIcEEESaIS5_EE19_M_get_Tp_allocatorEv>
  40634a:	48 8b 7d e0          	mov    -0x20(%rbp),%rdi
  40634e:	48 89 c6             	mov    %rax,%rsi
  406351:	e8 6a 40 00 00       	callq  40a3c0 <_ZN9__gnu_cxx14__alloc_traitsISaINSt7__cxx1112basic_stringIcSt11char_traitsIcESaIcEEEES6_E10_S_on_swapERS7_S9_>
  406356:	e9 00 00 00 00       	jmpq   40635b <_ZNSt6vectorINSt7__cxx1112basic_stringIcSt11char_traitsIcESaIcEEESaIS5_EE4swapERS7_+0x4b>
  40635b:	48 83 c4 30          	add    $0x30,%rsp
  40635f:	5d                   	pop    %rbp
  406360:	c3                   	retq   
  406361:	48 89 c7             	mov    %rax,%rdi
  406364:	89 55 dc             	mov    %edx,-0x24(%rbp)
  406367:	e8 e4 dc ff ff       	callq  404050 <__clang_call_terminate>
  40636c:	0f 1f 40 00          	nopl   0x0(%rax)

0000000000406370 <_ZN5boost12range_detail10make_rangeINSt7__cxx1112basic_stringIcSt11char_traitsIcESaIcEEEEENS_14iterator_rangeINS_14range_iteratorIT_vE4typeEEERSA_l>:
  406370:	55                   	push   %rbp
  406371:	48 89 e5             	mov    %rsp,%rbp
  406374:	48 83 ec 20          	sub    $0x20,%rsp
  406378:	48 89 7d e8          	mov    %rdi,-0x18(%rbp)
  40637c:	48 89 75 e0          	mov    %rsi,-0x20(%rbp)
  406380:	48 8b 7d e8          	mov    -0x18(%rbp),%rdi
  406384:	e8 17 00 00 00       	callq  4063a0 <_ZN5boost19make_iterator_rangeINSt7__cxx1112basic_stringIcSt11char_traitsIcESaIcEEEEENS_14iterator_rangeINS_14range_iteratorIT_vE4typeEEERS9_>
  406389:	48 89 45 f0          	mov    %rax,-0x10(%rbp)
  40638d:	48 89 55 f8          	mov    %rdx,-0x8(%rbp)
  406391:	48 8b 45 f0          	mov    -0x10(%rbp),%rax
  406395:	48 8b 55 f8          	mov    -0x8(%rbp),%rdx
  406399:	48 83 c4 20          	add    $0x20,%rsp
  40639d:	5d                   	pop    %rbp
  40639e:	c3                   	retq   
  40639f:	90                   	nop

00000000004063a0 <_ZN5boost19make_iterator_rangeINSt7__cxx1112basic_stringIcSt11char_traitsIcESaIcEEEEENS_14iterator_rangeINS_14range_iteratorIT_vE4typeEEERS9_>:
  4063a0:	55                   	push   %rbp
  4063a1:	48 89 e5             	mov    %rsp,%rbp
  4063a4:	48 83 ec 20          	sub    $0x20,%rsp
  4063a8:	48 89 7d e8          	mov    %rdi,-0x18(%rbp)
  4063ac:	48 8b 75 e8          	mov    -0x18(%rbp),%rsi
  4063b0:	48 8d 7d f0          	lea    -0x10(%rbp),%rdi
  4063b4:	e8 17 00 00 00       	callq  4063d0 <_ZN5boost14iterator_rangeIN9__gnu_cxx17__normal_iteratorIPcNSt7__cxx1112basic_stringIcSt11char_traitsIcESaIcEEEEEEC2IS9_EERT_NS_21iterator_range_detail9range_tagE>
  4063b9:	48 8b 45 f0          	mov    -0x10(%rbp),%rax
  4063bd:	48 8b 55 f8          	mov    -0x8(%rbp),%rdx
  4063c1:	48 83 c4 20          	add    $0x20,%rsp
  4063c5:	5d                   	pop    %rbp
  4063c6:	c3                   	retq   
  4063c7:	66 0f 1f 84 00 00 00 	nopw   0x0(%rax,%rax,1)
  4063ce:	00 00 

00000000004063d0 <_ZN5boost14iterator_rangeIN9__gnu_cxx17__normal_iteratorIPcNSt7__cxx1112basic_stringIcSt11char_traitsIcESaIcEEEEEEC2IS9_EERT_NS_21iterator_range_detail9range_tagE>:
  4063d0:	55                   	push   %rbp
  4063d1:	48 89 e5             	mov    %rsp,%rbp
  4063d4:	48 83 ec 30          	sub    $0x30,%rsp
  4063d8:	48 89 7d f0          	mov    %rdi,-0x10(%rbp)
  4063dc:	48 89 75 e8          	mov    %rsi,-0x18(%rbp)
  4063e0:	48 8b 45 f0          	mov    -0x10(%rbp),%rax
  4063e4:	48 8b 7d e8          	mov    -0x18(%rbp),%rdi
  4063e8:	48 89 45 d0          	mov    %rax,-0x30(%rbp)
  4063ec:	e8 2f 00 00 00       	callq  406420 <_ZN5boost21iterator_range_detail19iterator_range_implIN9__gnu_cxx17__normal_iteratorIPcNSt7__cxx1112basic_stringIcSt11char_traitsIcESaIcEEEEEE9adl_beginISA_EESB_RT_>
  4063f1:	48 89 45 e0          	mov    %rax,-0x20(%rbp)
  4063f5:	48 8b 7d e8          	mov    -0x18(%rbp),%rdi
  4063f9:	e8 52 00 00 00       	callq  406450 <_ZN5boost21iterator_range_detail19iterator_range_implIN9__gnu_cxx17__normal_iteratorIPcNSt7__cxx1112basic_stringIcSt11char_traitsIcESaIcEEEEEE7adl_endISA_EESB_RT_>
  4063fe:	48 89 45 d8          	mov    %rax,-0x28(%rbp)
  406402:	48 8b 75 e0          	mov    -0x20(%rbp),%rsi
  406406:	48 8b 55 d8          	mov    -0x28(%rbp),%rdx
  40640a:	48 8b 7d d0          	mov    -0x30(%rbp),%rdi
  40640e:	e8 6d 00 00 00       	callq  406480 <_ZN5boost21iterator_range_detail19iterator_range_baseIN9__gnu_cxx17__normal_iteratorIPcNSt7__cxx1112basic_stringIcSt11char_traitsIcESaIcEEEEENS_9iterators27random_access_traversal_tagEEC2ISB_EET_SG_>
  406413:	48 83 c4 30          	add    $0x30,%rsp
  406417:	5d                   	pop    %rbp
  406418:	c3                   	retq   
  406419:	0f 1f 80 00 00 00 00 	nopl   0x0(%rax)

0000000000406420 <_ZN5boost21iterator_range_detail19iterator_range_implIN9__gnu_cxx17__normal_iteratorIPcNSt7__cxx1112basic_stringIcSt11char_traitsIcESaIcEEEEEE9adl_beginISA_EESB_RT_>:
  406420:	55                   	push   %rbp
  406421:	48 89 e5             	mov    %rsp,%rbp
  406424:	48 83 ec 10          	sub    $0x10,%rsp
